ARM GAS  /tmp/ccioEaBB.s 			page 1


   1              		.syntax unified
   2              		.cpu cortex-m4
   3              		.fpu softvfp
   4              		.eabi_attribute 20, 1
   5              		.eabi_attribute 21, 1
   6              		.eabi_attribute 23, 3
   7              		.eabi_attribute 24, 1
   8              		.eabi_attribute 25, 1
   9              		.eabi_attribute 26, 1
  10              		.eabi_attribute 30, 2
  11              		.eabi_attribute 34, 1
  12              		.eabi_attribute 18, 4
  13              		.thumb
  14              		.file	"main.c"
  15              		.text
  16              	.Ltext0:
  17              		.cfi_sections	.debug_frame
  18              		.section	.text.requestsHook,"ax",%progbits
  19              		.align	2
  20              		.p2align 4,,15
  21              		.global	requestsHook
  22              		.thumb
  23              		.thumb_func
  24              		.type	requestsHook, %function
  25              	requestsHook:
  26              	.LFB122:
  27              		.file 1 "main.c"
  28              		.loc 1 159 0
  29              		.cfi_startproc
  30              		@ args = 0, pretend = 0, frame = 0
  31              		@ frame_needed = 0, uses_anonymous_args = 0
  32              		@ link register save eliminated.
  33              	.LVL0:
  34              		.loc 1 162 0
  35 0000 0020     		movs	r0, #0
  36              	.LVL1:
  37 0002 7047     		bx	lr
  38              		.cfi_endproc
  39              	.LFE122:
  40              		.size	requestsHook, .-requestsHook
  41 0004 AFF30080 		.section	.text.get_descriptor,"ax",%progbits
  41      AFF30080 
  41      AFF30080 
  42              		.align	2
  43              		.p2align 4,,15
  44              		.thumb
  45              		.thumb_func
  46              		.type	get_descriptor, %function
  47              	get_descriptor:
  48              	.LFB121:
  49              		.loc 1 138 0
  50              		.cfi_startproc
  51              		@ args = 0, pretend = 0, frame = 0
  52              		@ frame_needed = 0, uses_anonymous_args = 0
  53              		@ link register save eliminated.
  54              	.LVL2:
  55              		.loc 1 142 0
ARM GAS  /tmp/ccioEaBB.s 			page 2


  56 0000 0229     		cmp	r1, #2
  57 0002 15D0     		beq	.L7
  58 0004 0329     		cmp	r1, #3
  59 0006 0DD0     		beq	.L6
  60 0008 0129     		cmp	r1, #1
  61 000a 09D0     		beq	.L11
  62              	.LBB10:
  63              	.LBB11:
  64              		.loc 1 154 0
  65 000c 4FF44063 		mov	r3, #3072
  66              	.LVL3:
  67 0010 C4F20203 		movt	r3, 16386
  68 0014 0020     		movs	r0, #0
  69              	.LVL4:
  70 0016 5A69     		ldr	r2, [r3, #20]
  71              	.LVL5:
  72 0018 82F48051 		eor	r1, r2, #4096
  73              	.LVL6:
  74 001c 5961     		str	r1, [r3, #20]
  75 001e 7047     		bx	lr
  76              	.LVL7:
  77              	.L11:
  78              	.LBE11:
  79              	.LBE10:
  80              		.loc 1 144 0
  81 0020 0548     		ldr	r0, .L12
  82              	.LVL8:
  83 0022 7047     		bx	lr
  84              	.LVL9:
  85              	.L6:
  86              		.loc 1 148 0
  87 0024 032A     		cmp	r2, #3
  88 0026 05D8     		bhi	.L8
  89              		.loc 1 149 0
  90 0028 0448     		ldr	r0, .L12+4
  91              	.LVL10:
  92 002a 00EBC200 		add	r0, r0, r2, lsl #3
  93 002e 7047     		bx	lr
  94              	.LVL11:
  95              	.L7:
  96              		.loc 1 146 0
  97 0030 0348     		ldr	r0, .L12+8
  98              	.LVL12:
  99 0032 7047     		bx	lr
 100              	.LVL13:
 101              	.L8:
 102              		.loc 1 151 0
 103 0034 0348     		ldr	r0, .L12+12
 104              	.LVL14:
 105              		.loc 1 156 0
 106 0036 7047     		bx	lr
 107              	.L13:
 108              		.align	2
 109              	.L12:
 110 0038 00000000 		.word	.LANCHOR0
 111 003c 00000000 		.word	.LANCHOR2
 112 0040 00000000 		.word	.LANCHOR1
ARM GAS  /tmp/ccioEaBB.s 			page 3


 113 0044 20000000 		.word	.LANCHOR2+32
 114              		.cfi_endproc
 115              	.LFE121:
 116              		.size	get_descriptor, .-get_descriptor
 117 0048 AFF30080 		.section	.text.usb_event,"ax",%progbits
 117      AFF30080 
 118              		.align	2
 119              		.p2align 4,,15
 120              		.thumb
 121              		.thumb_func
 122              		.type	usb_event, %function
 123              	usb_event:
 124              	.LFB120:
 125              		.loc 1 107 0
 126              		.cfi_startproc
 127              		@ args = 0, pretend = 0, frame = 0
 128              		@ frame_needed = 0, uses_anonymous_args = 0
 129              	.LVL15:
 130 0000 10B5     		push	{r4, lr}
 131              	.LCFI0:
 132              		.cfi_def_cfa_offset 8
 133              		.cfi_offset 4, -8
 134              		.cfi_offset 14, -4
 135              		.loc 1 107 0
 136 0002 0446     		mov	r4, r0
 137              		.loc 1 109 0
 138 0004 0529     		cmp	r1, #5
 139 0006 04D8     		bhi	.L15
 140 0008 DFE801F0 		tbb	[pc, r1]
 141              	.L19:
 142 000c 1F       		.byte	(.L16-.L19)/2
 143 000d 0B       		.byte	(.L14-.L19)/2
 144 000e 0C       		.byte	(.L18-.L19)/2
 145 000f 0B       		.byte	(.L14-.L19)/2
 146 0010 0B       		.byte	(.L14-.L19)/2
 147 0011 0B       		.byte	(.L14-.L19)/2
 148              		.align	1
 149              	.L15:
 150              		.loc 1 130 0
 151 0012 4FF44060 		mov	r0, #3072
 152              	.LVL16:
 153 0016 C4F20200 		movt	r0, 16386
 154 001a 4269     		ldr	r2, [r0, #20]
 155 001c 82F48043 		eor	r3, r2, #16384
 156 0020 4361     		str	r3, [r0, #20]
 157              	.L14:
 158 0022 10BD     		pop	{r4, pc}
 159              	.LVL17:
 160              	.L18:
 161              	.LBB16:
 162              	.LBB17:
 163              	.LBB18:
 164              		.loc 1 117 0
 165 0024 2023     		movs	r3, #32
 166              	.LVL18:
 167              	@ 117 "main.c" 1
 168 0026 83F31188 		msr     BASEPRI, r3
ARM GAS  /tmp/ccioEaBB.s 			page 4


 169              	@ 0 "" 2
 170              	.LVL19:
 171              		.thumb
 172              	.LBE18:
 173              		.loc 1 118 0
 174 002a 0121     		movs	r1, #1
 175              	.LVL20:
 176 002c 0D4A     		ldr	r2, .L20
 177 002e FFF7FEFF 		bl	usbInitEndpointI
 178              	.LVL21:
 179              		.loc 1 119 0
 180 0032 2046     		mov	r0, r4
 181 0034 0221     		movs	r1, #2
 182 0036 0C4A     		ldr	r2, .L20+4
 183 0038 FFF7FEFF 		bl	usbInitEndpointI
 184              	.LVL22:
 185              	.LBB19:
 186              		.loc 1 120 0
 187 003c 0023     		movs	r3, #0
 188              	.LVL23:
 189              	@ 120 "main.c" 1
 190 003e 83F31188 		msr     BASEPRI, r3
 191              	@ 0 "" 2
 192              	.LVL24:
 193              		.thumb
 194              	.LBE19:
 195              		.loc 1 121 0
 196 0042 0A4B     		ldr	r3, .L20+8
 197              	.LVL25:
 198 0044 0122     		movs	r2, #1
 199 0046 1A70     		strb	r2, [r3, #0]
 200 0048 10BD     		pop	{r4, pc}
 201              	.LVL26:
 202              	.L16:
 203              	.LBE17:
 204              	.LBE16:
 205              		.loc 1 112 0
 206 004a 4FF44060 		mov	r0, #3072
 207              	.LVL27:
 208              		.loc 1 111 0
 209 004e 084A     		ldr	r2, .L20+12
 210              		.loc 1 112 0
 211 0050 C4F20200 		movt	r0, 16386
 212              		.loc 1 111 0
 213 0054 0021     		movs	r1, #0
 214              	.LVL28:
 215 0056 1170     		strb	r1, [r2, #0]
 216              		.loc 1 112 0
 217 0058 4369     		ldr	r3, [r0, #20]
 218 005a 83F40051 		eor	r1, r3, #8192
 219 005e 4161     		str	r1, [r0, #20]
 220              		.loc 1 113 0
 221 0060 10BD     		pop	{r4, pc}
 222              	.L21:
 223 0062 00BF     		.align	2
 224              	.L20:
 225 0064 00000000 		.word	.LANCHOR4
ARM GAS  /tmp/ccioEaBB.s 			page 5


 226 0068 00000000 		.word	.LANCHOR5
 227 006c 00000000 		.word	.LANCHOR6
 228 0070 00000000 		.word	.LANCHOR3
 229              		.cfi_endproc
 230              	.LFE120:
 231              		.size	usb_event, .-usb_event
 232 0074 AFF30080 		.section	.text.dataReceived,"ax",%progbits
 232      AFF30080 
 232      AFF30080 
 233              		.align	2
 234              		.p2align 4,,15
 235              		.global	dataReceived
 236              		.thumb
 237              		.thumb_func
 238              		.type	dataReceived, %function
 239              	dataReceived:
 240              	.LFB119:
 241              		.loc 1 57 0
 242              		.cfi_startproc
 243              		@ args = 0, pretend = 0, frame = 0
 244              		@ frame_needed = 0, uses_anonymous_args = 0
 245              	.LVL29:
 246 0000 10B5     		push	{r4, lr}
 247              	.LCFI1:
 248              		.cfi_def_cfa_offset 8
 249              		.cfi_offset 4, -8
 250              		.cfi_offset 14, -4
 251              		.loc 1 59 0
 252 0002 00EB8101 		add	r1, r0, r1, lsl #2
 253              	.LVL30:
 254              		.loc 1 63 0
 255 0006 234B     		ldr	r3, .L37
 256              		.loc 1 59 0
 257 0008 CA68     		ldr	r2, [r1, #12]
 258              		.loc 1 57 0
 259 000a 0446     		mov	r4, r0
 260              		.loc 1 63 0
 261 000c 1878     		ldrb	r0, [r3, #0]	@ zero_extendqisi2
 262              	.LVL31:
 263              		.loc 1 59 0
 264 000e 9169     		ldr	r1, [r2, #24]
 265              	.LVL32:
 266              		.loc 1 63 0
 267 0010 88B1     		cbz	r0, .L22
 268              		.loc 1 66 0
 269 0012 8A68     		ldr	r2, [r1, #8]
 270 0014 82B9     		cbnz	r2, .L36
 271              	.LVL33:
 272              	.L24:
 273              	.LBB24:
 274              	.LBB25:
 275              		.loc 1 85 0
 276 0016 4023     		movs	r3, #64
 277 0018 2046     		mov	r0, r4
 278 001a 0221     		movs	r1, #2
 279 001c 1E4A     		ldr	r2, .L37+4
 280 001e FFF7FEFF 		bl	usbPrepareReceive
ARM GAS  /tmp/ccioEaBB.s 			page 6


 281              	.LVL34:
 282              	.LBB26:
 283              		.loc 1 87 0
 284 0022 2023     		movs	r3, #32
 285              	.LVL35:
 286              	@ 87 "main.c" 1
 287 0024 83F31188 		msr     BASEPRI, r3
 288              	@ 0 "" 2
 289              	.LVL36:
 290              		.thumb
 291              	.LBE26:
 292              		.loc 1 88 0
 293 0028 0221     		movs	r1, #2
 294 002a 2046     		mov	r0, r4
 295 002c FFF7FEFF 		bl	usbStartReceiveI
 296              	.LVL37:
 297              	.LBB27:
 298              		.loc 1 89 0
 299 0030 0023     		movs	r3, #0
 300              	.LVL38:
 301              	@ 89 "main.c" 1
 302 0032 83F31188 		msr     BASEPRI, r3
 303              	@ 0 "" 2
 304              	.LVL39:
 305              		.thumb
 306              	.L22:
 307 0036 10BD     		pop	{r4, pc}
 308              	.LVL40:
 309              	.L36:
 310              	.LBE27:
 311              	.LBE25:
 312              	.LBE24:
 313              		.loc 1 67 0
 314 0038 174B     		ldr	r3, .L37+4
 315 003a 1878     		ldrb	r0, [r3, #0]	@ zero_extendqisi2
 316 003c 3138     		subs	r0, r0, #49
 317 003e 0328     		cmp	r0, #3
 318 0040 E9D8     		bhi	.L24
 319 0042 DFE800F0 		tbb	[pc, r0]
 320              	.L29:
 321 0046 1D       		.byte	(.L25-.L29)/2
 322 0047 14       		.byte	(.L26-.L29)/2
 323 0048 0B       		.byte	(.L27-.L29)/2
 324 0049 02       		.byte	(.L28-.L29)/2
 325              		.align	1
 326              	.L28:
 327              		.loc 1 78 0
 328 004a 4FF44061 		mov	r1, #3072
 329              	.LVL41:
 330 004e C4F20201 		movt	r1, 16386
 331 0052 4A69     		ldr	r2, [r1, #20]
 332 0054 82F40043 		eor	r3, r2, #32768
 333 0058 4B61     		str	r3, [r1, #20]
 334              		.loc 1 79 0
 335 005a DCE7     		b	.L24
 336              	.LVL42:
 337              	.L27:
ARM GAS  /tmp/ccioEaBB.s 			page 7


 338              		.loc 1 75 0
 339 005c 4FF44060 		mov	r0, #3072
 340 0060 C4F20200 		movt	r0, 16386
 341 0064 4169     		ldr	r1, [r0, #20]
 342              	.LVL43:
 343 0066 81F48042 		eor	r2, r1, #16384
 344 006a 4261     		str	r2, [r0, #20]
 345              		.loc 1 76 0
 346 006c D3E7     		b	.L24
 347              	.LVL44:
 348              	.L26:
 349              		.loc 1 72 0
 350 006e 4FF44063 		mov	r3, #3072
 351 0072 C4F20203 		movt	r3, 16386
 352 0076 5869     		ldr	r0, [r3, #20]
 353 0078 80F48051 		eor	r1, r0, #4096
 354              	.LVL45:
 355 007c 5961     		str	r1, [r3, #20]
 356              		.loc 1 73 0
 357 007e CAE7     		b	.L24
 358              	.LVL46:
 359              	.L25:
 360              		.loc 1 69 0
 361 0080 4FF44063 		mov	r3, #3072
 362 0084 C4F20203 		movt	r3, 16386
 363 0088 5A69     		ldr	r2, [r3, #20]
 364 008a 82F40050 		eor	r0, r2, #8192
 365 008e 5861     		str	r0, [r3, #20]
 366              		.loc 1 70 0
 367 0090 C1E7     		b	.L24
 368              	.L38:
 369 0092 00BF     		.align	2
 370              	.L37:
 371 0094 00000000 		.word	.LANCHOR3
 372 0098 00000000 		.word	.LANCHOR7
 373              		.cfi_endproc
 374              	.LFE119:
 375              		.size	dataReceived, .-dataReceived
 376 009c AFF30080 		.section	.text.dataTransmitted,"ax",%progbits
 377              		.align	2
 378              		.p2align 4,,15
 379              		.global	dataTransmitted
 380              		.thumb
 381              		.thumb_func
 382              		.type	dataTransmitted, %function
 383              	dataTransmitted:
 384              	.LFB118:
 385              		.loc 1 21 0
 386              		.cfi_startproc
 387              		@ args = 0, pretend = 0, frame = 0
 388              		@ frame_needed = 0, uses_anonymous_args = 0
 389              	.LVL47:
 390              		.loc 1 25 0
 391 0000 4FF44063 		mov	r3, #3072
 392 0004 C4F20203 		movt	r3, 16386
 393              		.loc 1 21 0
 394 0008 10B5     		push	{r4, lr}
ARM GAS  /tmp/ccioEaBB.s 			page 8


 395              	.LCFI2:
 396              		.cfi_def_cfa_offset 8
 397              		.cfi_offset 4, -8
 398              		.cfi_offset 14, -4
 399              		.loc 1 25 0
 400 000a 5A69     		ldr	r2, [r3, #20]
 401              		.loc 1 28 0
 402 000c 0B4C     		ldr	r4, .L44
 403              		.loc 1 25 0
 404 000e 82F40051 		eor	r1, r2, #8192
 405              	.LVL48:
 406 0012 5961     		str	r1, [r3, #20]
 407              		.loc 1 28 0
 408 0014 2378     		ldrb	r3, [r4, #0]	@ zero_extendqisi2
 409              		.loc 1 21 0
 410 0016 0446     		mov	r4, r0
 411              		.loc 1 28 0
 412 0018 7BB1     		cbz	r3, .L39
 413              	.LVL49:
 414              	.LBB32:
 415              	.LBB33:
 416              		.loc 1 31 0
 417 001a 0121     		movs	r1, #1
 418 001c 084A     		ldr	r2, .L44+4
 419 001e 4FF48073 		mov	r3, #256
 420 0022 FFF7FEFF 		bl	usbPrepareTransmit
 421              	.LVL50:
 422              	.LBB34:
 423              		.loc 1 33 0
 424 0026 2023     		movs	r3, #32
 425              	.LVL51:
 426              	@ 33 "main.c" 1
 427 0028 83F31188 		msr     BASEPRI, r3
 428              	@ 0 "" 2
 429              	.LVL52:
 430              		.thumb
 431              	.LBE34:
 432              		.loc 1 35 0
 433 002c 0121     		movs	r1, #1
 434 002e 2046     		mov	r0, r4
 435 0030 FFF7FEFF 		bl	usbStartTransmitI
 436              	.LVL53:
 437              	.LBB35:
 438              		.loc 1 36 0
 439 0034 0023     		movs	r3, #0
 440              	.LVL54:
 441              	@ 36 "main.c" 1
 442 0036 83F31188 		msr     BASEPRI, r3
 443              	@ 0 "" 2
 444              	.LVL55:
 445              		.thumb
 446              	.L39:
 447 003a 10BD     		pop	{r4, pc}
 448              	.L45:
 449              		.align	2
 450              	.L44:
 451 003c 00000000 		.word	.LANCHOR3
ARM GAS  /tmp/ccioEaBB.s 			page 9


 452 0040 00000000 		.word	.LANCHOR8
 453              	.LBE35:
 454              	.LBE33:
 455              	.LBE32:
 456              		.cfi_endproc
 457              	.LFE118:
 458              		.size	dataTransmitted, .-dataTransmitted
 459 0044 AFF30080 		.section	.text.startup.main,"ax",%progbits
 459      AFF30080 
 459      AFF30080 
 460              		.align	2
 461              		.p2align 4,,15
 462              		.global	main
 463              		.thumb
 464              		.thumb_func
 465              		.type	main, %function
 466              	main:
 467              	.LFB123:
 468              		.loc 1 172 0
 469              		.cfi_startproc
 470              		@ args = 0, pretend = 0, frame = 0
 471              		@ frame_needed = 0, uses_anonymous_args = 0
 472              	.LVL56:
 473 0000 F8B5     		push	{r3, r4, r5, r6, r7, lr}
 474              	.LCFI3:
 475              		.cfi_def_cfa_offset 24
 476              		.cfi_offset 3, -24
 477              		.cfi_offset 4, -20
 478              		.cfi_offset 5, -16
 479              		.cfi_offset 6, -12
 480              		.cfi_offset 7, -8
 481              		.cfi_offset 14, -4
 482              		.loc 1 177 0
 483 0002 4EF64F44 		movw	r4, #60495
 484 0006 2F4E     		ldr	r6, .L57
 485              		.loc 1 172 0
 486 0008 0023     		movs	r3, #0
 487              		.loc 1 177 0
 488 000a C4F6C464 		movt	r4, 20164
 489 000e 1A25     		movs	r5, #26
 490              	.LVL57:
 491              	.L47:
 492              		.loc 1 177 0 is_stmt 0 discriminator 2
 493 0010 98B2     		uxth	r0, r3
 494 0012 5A1C     		adds	r2, r3, #1
 495 0014 A4FB007E 		umull	r7, lr, r4, r0
 496 0018 91B2     		uxth	r1, r2
 497 001a 4FEADE0E 		lsr	lr, lr, #3
 498 001e A4FB01C7 		umull	ip, r7, r4, r1
 499 0022 05FB1E00 		mls	r0, r5, lr, r0
 500 0026 FF08     		lsrs	r7, r7, #3
 501 0028 6130     		adds	r0, r0, #97
 502 002a F054     		strb	r0, [r6, r3]
 503 002c 05FB1711 		mls	r1, r5, r7, r1
 504              	.LVL58:
 505 0030 0233     		adds	r3, r3, #2
 506              	.LVL59:
ARM GAS  /tmp/ccioEaBB.s 			page 10


 507 0032 6131     		adds	r1, r1, #97
 508              		.loc 1 176 0 is_stmt 1 discriminator 2
 509 0034 B3F5807F 		cmp	r3, #256
 510              		.loc 1 177 0 discriminator 2
 511 0038 B154     		strb	r1, [r6, r2]
 512              		.loc 1 176 0 discriminator 2
 513 003a E9D1     		bne	.L47
 514              		.loc 1 183 0
 515 003c 224C     		ldr	r4, .L57+4
 516 003e 234D     		ldr	r5, .L57+8
 517 0040 234F     		ldr	r7, .L57+12
 518              		.loc 1 179 0
 519 0042 FFF7FEFF 		bl	halInit
 520              	.LVL60:
 521              		.loc 1 180 0
 522 0046 FFF7FEFF 		bl	chSysInit
 523              	.LVL61:
 524              		.loc 1 183 0
 525 004a 2068     		ldr	r0, [r4, #0]
 526 004c 2149     		ldr	r1, .L57+16
 527 004e FFF7FEFF 		bl	usbStart
 528              	.LVL62:
 529              		.loc 1 184 0
 530 0052 2668     		ldr	r6, [r4, #0]
 531 0054 2B78     		ldrb	r3, [r5, #0]	@ zero_extendqisi2
 532 0056 326D     		ldr	r2, [r6, #80]
 533 0058 906B     		ldr	r0, [r2, #56]
 534 005a 40F40021 		orr	r1, r0, #524288
 535 005e 9163     		str	r1, [r2, #56]
 536              		.loc 1 193 0
 537 0060 0126     		movs	r6, #1
 538              		.loc 1 192 0
 539 0062 6420     		movs	r0, #100
 540              		.loc 1 189 0
 541 0064 23B3     		cbz	r3, .L49
 542              	.L56:
 543              		.loc 1 192 0
 544 0066 FFF7FEFF 		bl	chThdSleep
 545              	.LVL63:
 546              		.loc 1 197 0
 547 006a 4023     		movs	r3, #64
 548 006c 2068     		ldr	r0, [r4, #0]
 549 006e 1A4A     		ldr	r2, .L57+20
 550              		.loc 1 193 0
 551 0070 3E70     		strb	r6, [r7, #0]
 552              		.loc 1 197 0
 553 0072 0221     		movs	r1, #2
 554 0074 FFF7FEFF 		bl	usbPrepareReceive
 555              	.LVL64:
 556              	.LBB36:
 557              		.loc 1 198 0
 558 0078 2023     		movs	r3, #32
 559              	.LVL65:
 560              	@ 198 "main.c" 1
 561 007a 83F31188 		msr     BASEPRI, r3
 562              	@ 0 "" 2
 563              	.LVL66:
ARM GAS  /tmp/ccioEaBB.s 			page 11


 564              		.thumb
 565              	.LBE36:
 566              		.loc 1 199 0
 567 007e 0221     		movs	r1, #2
 568 0080 2068     		ldr	r0, [r4, #0]
 569 0082 FFF7FEFF 		bl	usbStartReceiveI
 570              	.LVL67:
 571              	.LBB37:
 572              		.loc 1 200 0
 573 0086 0023     		movs	r3, #0
 574              	.LVL68:
 575              	@ 200 "main.c" 1
 576 0088 83F31188 		msr     BASEPRI, r3
 577              	@ 0 "" 2
 578              	.LVL69:
 579              		.thumb
 580              	.LBE37:
 581              		.loc 1 204 0
 582 008c 0121     		movs	r1, #1
 583 008e 2068     		ldr	r0, [r4, #0]
 584 0090 0C4A     		ldr	r2, .L57
 585 0092 4FF48073 		mov	r3, #256
 586              	.LVL70:
 587 0096 FFF7FEFF 		bl	usbPrepareTransmit
 588              	.LVL71:
 589              	.LBB38:
 590              		.loc 1 205 0
 591 009a 2023     		movs	r3, #32
 592              	.LVL72:
 593              	@ 205 "main.c" 1
 594 009c 83F31188 		msr     BASEPRI, r3
 595              	@ 0 "" 2
 596              	.LVL73:
 597              		.thumb
 598              	.LBE38:
 599              		.loc 1 206 0
 600 00a0 0121     		movs	r1, #1
 601 00a2 2068     		ldr	r0, [r4, #0]
 602 00a4 FFF7FEFF 		bl	usbStartTransmitI
 603              	.LVL74:
 604              	.LBB39:
 605              		.loc 1 207 0
 606 00a8 0023     		movs	r3, #0
 607              	.LVL75:
 608              	@ 207 "main.c" 1
 609 00aa 83F31188 		msr     BASEPRI, r3
 610              	@ 0 "" 2
 611              	.LVL76:
 612              		.thumb
 613              	.LBE39:
 614              		.loc 1 208 0
 615 00ae 2B70     		strb	r3, [r5, #0]
 616              	.L49:
 617              		.loc 1 190 0
 618 00b0 4FF47A70 		mov	r0, #1000
 619 00b4 FFF7FEFF 		bl	chThdSleep
 620              	.LVL77:
ARM GAS  /tmp/ccioEaBB.s 			page 12


 621 00b8 2B78     		ldrb	r3, [r5, #0]	@ zero_extendqisi2
 622              		.loc 1 192 0
 623 00ba 6420     		movs	r0, #100
 624              		.loc 1 189 0
 625 00bc 002B     		cmp	r3, #0
 626 00be D2D1     		bne	.L56
 627 00c0 F6E7     		b	.L49
 628              	.L58:
 629 00c2 00BF     		.align	2
 630              	.L57:
 631 00c4 00000000 		.word	.LANCHOR8
 632 00c8 00000000 		.word	.LANCHOR9
 633 00cc 00000000 		.word	.LANCHOR6
 634 00d0 00000000 		.word	.LANCHOR3
 635 00d4 00000000 		.word	.LANCHOR10
 636 00d8 00000000 		.word	.LANCHOR7
 637              		.cfi_endproc
 638              	.LFE123:
 639              		.size	main, .-main
 640              		.global	config
 641              		.global	ep2outstate
 642              		.global	usbStatus
 643              		.global	initUSB
 644              		.global	usbp
 645              		.global	transferBuf
 646              		.global	receiveBuf
 647 00dc AFF30080 		.section	.rodata.ep1config,"a",%progbits
 648              		.align	2
 649              		.set	.LANCHOR4,. + 0
 650              		.type	ep1config, %object
 651              		.size	ep1config, 36
 652              	ep1config:
 653 0000 02000000 		.word	2
 654 0004 00000000 		.word	0
 655 0008 00000000 		.word	dataTransmitted
 656 000c 00000000 		.word	0
 657 0010 4000     		.short	64
 658 0012 0000     		.short	0
 659 0014 00000000 		.word	ep1instate
 660 0018 00000000 		.word	0
 661 001c 0400     		.short	4
 662 001e 0000     		.space	2
 663 0020 00000000 		.word	0
 664              		.section	.data.usbp,"aw",%progbits
 665              		.align	2
 666              		.set	.LANCHOR9,. + 0
 667              		.type	usbp, %object
 668              		.size	usbp, 4
 669              	usbp:
 670 0000 00000000 		.word	USBD1
 671              		.section	.rodata.stringVendor,"a",%progbits
 672              		.align	2
 673              		.type	stringVendor, %object
 674              		.size	stringVendor, 38
 675              	stringVendor:
 676 0000 26       		.byte	38
 677 0001 03       		.byte	3
ARM GAS  /tmp/ccioEaBB.s 			page 13


 678 0002 53       		.byte	83
 679 0003 00       		.byte	0
 680 0004 54       		.byte	84
 681 0005 00       		.byte	0
 682 0006 4D       		.byte	77
 683 0007 00       		.byte	0
 684 0008 69       		.byte	105
 685 0009 00       		.byte	0
 686 000a 63       		.byte	99
 687 000b 00       		.byte	0
 688 000c 72       		.byte	114
 689 000d 00       		.byte	0
 690 000e 6F       		.byte	111
 691 000f 00       		.byte	0
 692 0010 65       		.byte	101
 693 0011 00       		.byte	0
 694 0012 6C       		.byte	108
 695 0013 00       		.byte	0
 696 0014 65       		.byte	101
 697 0015 00       		.byte	0
 698 0016 63       		.byte	99
 699 0017 00       		.byte	0
 700 0018 74       		.byte	116
 701 0019 00       		.byte	0
 702 001a 72       		.byte	114
 703 001b 00       		.byte	0
 704 001c 6F       		.byte	111
 705 001d 00       		.byte	0
 706 001e 6E       		.byte	110
 707 001f 00       		.byte	0
 708 0020 69       		.byte	105
 709 0021 00       		.byte	0
 710 0022 63       		.byte	99
 711 0023 00       		.byte	0
 712 0024 73       		.byte	115
 713 0025 00       		.byte	0
 714 0026 0000     		.section	.bss.ep1instate,"aw",%nobits
 715              		.align	2
 716              		.type	ep1instate, %object
 717              		.size	ep1instate, 16
 718              	ep1instate:
 719 0000 00000000 		.space	16
 719      00000000 
 719      00000000 
 719      00000000 
 720              		.section	.bss.usbStatus,"aw",%nobits
 721              		.set	.LANCHOR3,. + 0
 722              		.type	usbStatus, %object
 723              		.size	usbStatus, 1
 724              	usbStatus:
 725 0000 00       		.space	1
 726              		.section	.rodata.vcom_configuration_descriptor,"a",%progbits
 727              		.align	2
 728              		.set	.LANCHOR1,. + 0
 729              		.type	vcom_configuration_descriptor, %object
 730              		.size	vcom_configuration_descriptor, 8
 731              	vcom_configuration_descriptor:
ARM GAS  /tmp/ccioEaBB.s 			page 14


 732 0000 20000000 		.word	32
 733 0004 00000000 		.word	vcom_configuration_descriptor_data
 734              		.section	.rodata.ep2config,"a",%progbits
 735              		.align	2
 736              		.set	.LANCHOR5,. + 0
 737              		.type	ep2config, %object
 738              		.size	ep2config, 36
 739              	ep2config:
 740 0000 02000000 		.word	2
 741 0004 00000000 		.word	0
 742 0008 00000000 		.word	0
 743 000c 00000000 		.word	dataReceived
 744 0010 0000     		.short	0
 745 0012 4000     		.short	64
 746 0014 00000000 		.word	0
 747 0018 00000000 		.word	ep2outstate
 748 001c 0100     		.short	1
 749 001e 0000     		.space	2
 750 0020 00000000 		.word	0
 751              		.section	.rodata.stringSerialNumber,"a",%progbits
 752              		.align	2
 753              		.type	stringSerialNumber, %object
 754              		.size	stringSerialNumber, 12
 755              	stringSerialNumber:
 756 0000 0C       		.byte	12
 757 0001 03       		.byte	3
 758 0002 32       		.byte	50
 759 0003 00       		.byte	0
 760 0004 2E       		.byte	46
 761 0005 00       		.byte	0
 762 0006 35       		.byte	53
 763 0007 00       		.byte	0
 764 0008 2E       		.byte	46
 765 0009 00       		.byte	0
 766 000a 32       		.byte	50
 767 000b 00       		.byte	0
 768              		.section	.rodata.stringNotFound,"a",%progbits
 769              		.align	2
 770              		.type	stringNotFound, %object
 771              		.size	stringNotFound, 34
 772              	stringNotFound:
 773 0000 22       		.byte	34
 774 0001 03       		.byte	3
 775 0002 53       		.byte	83
 776 0003 00       		.byte	0
 777 0004 74       		.byte	116
 778 0005 00       		.byte	0
 779 0006 72       		.byte	114
 780 0007 00       		.byte	0
 781 0008 69       		.byte	105
 782 0009 00       		.byte	0
 783 000a 6E       		.byte	110
 784 000b 00       		.byte	0
 785 000c 67       		.byte	103
 786 000d 00       		.byte	0
 787 000e 20       		.byte	32
 788 000f 00       		.byte	0
ARM GAS  /tmp/ccioEaBB.s 			page 15


 789 0010 6E       		.byte	110
 790 0011 00       		.byte	0
 791 0012 6F       		.byte	111
 792 0013 00       		.byte	0
 793 0014 74       		.byte	116
 794 0015 00       		.byte	0
 795 0016 20       		.byte	32
 796 0017 00       		.byte	0
 797 0018 66       		.byte	102
 798 0019 00       		.byte	0
 799 001a 6F       		.byte	111
 800 001b 00       		.byte	0
 801 001c 75       		.byte	117
 802 001d 00       		.byte	0
 803 001e 6E       		.byte	110
 804 001f 00       		.byte	0
 805 0020 64       		.byte	100
 806 0021 00       		.byte	0
 807 0022 0000     		.section	.rodata.stringDeviceDescriptor,"a",%progbits
 808              		.align	2
 809              		.type	stringDeviceDescriptor, %object
 810              		.size	stringDeviceDescriptor, 48
 811              	stringDeviceDescriptor:
 812 0000 30       		.byte	48
 813 0001 03       		.byte	3
 814 0002 43       		.byte	67
 815 0003 00       		.byte	0
 816 0004 68       		.byte	104
 817 0005 00       		.byte	0
 818 0006 69       		.byte	105
 819 0007 00       		.byte	0
 820 0008 62       		.byte	98
 821 0009 00       		.byte	0
 822 000a 69       		.byte	105
 823 000b 00       		.byte	0
 824 000c 4F       		.byte	79
 825 000d 00       		.byte	0
 826 000e 53       		.byte	83
 827 000f 00       		.byte	0
 828 0010 2F       		.byte	47
 829 0011 00       		.byte	0
 830 0012 43       		.byte	67
 831 0013 00       		.byte	0
 832 0014 75       		.byte	117
 833 0015 00       		.byte	0
 834 0016 73       		.byte	115
 835 0017 00       		.byte	0
 836 0018 74       		.byte	116
 837 0019 00       		.byte	0
 838 001a 6F       		.byte	111
 839 001b 00       		.byte	0
 840 001c 6D       		.byte	109
 841 001d 00       		.byte	0
 842 001e 20       		.byte	32
 843 001f 00       		.byte	0
 844 0020 48       		.byte	72
 845 0021 00       		.byte	0
ARM GAS  /tmp/ccioEaBB.s 			page 16


 846 0022 61       		.byte	97
 847 0023 00       		.byte	0
 848 0024 72       		.byte	114
 849 0025 00       		.byte	0
 850 0026 64       		.byte	100
 851 0027 00       		.byte	0
 852 0028 77       		.byte	119
 853 0029 00       		.byte	0
 854 002a 61       		.byte	97
 855 002b 00       		.byte	0
 856 002c 72       		.byte	114
 857 002d 00       		.byte	0
 858 002e 65       		.byte	101
 859 002f 00       		.byte	0
 860              		.section	.bss.initUSB,"aw",%nobits
 861              		.set	.LANCHOR6,. + 0
 862              		.type	initUSB, %object
 863              		.size	initUSB, 1
 864              	initUSB:
 865 0000 00       		.space	1
 866              		.section	.bss.transferBuf,"aw",%nobits
 867              		.align	2
 868              		.set	.LANCHOR8,. + 0
 869              		.type	transferBuf, %object
 870              		.size	transferBuf, 256
 871              	transferBuf:
 872 0000 00000000 		.space	256
 872      00000000 
 872      00000000 
 872      00000000 
 872      00000000 
 873              		.section	.rodata.stringLanguage,"a",%progbits
 874              		.align	2
 875              		.type	stringLanguage, %object
 876              		.size	stringLanguage, 4
 877              	stringLanguage:
 878 0000 04       		.byte	4
 879 0001 03       		.byte	3
 880 0002 09       		.byte	9
 881 0003 04       		.byte	4
 882              		.section	.bss.receiveBuf,"aw",%nobits
 883              		.align	2
 884              		.set	.LANCHOR7,. + 0
 885              		.type	receiveBuf, %object
 886              		.size	receiveBuf, 64
 887              	receiveBuf:
 888 0000 00000000 		.space	64
 888      00000000 
 888      00000000 
 888      00000000 
 888      00000000 
 889              		.section	.bss.ep2outstate,"aw",%nobits
 890              		.align	2
 891              		.type	ep2outstate, %object
 892              		.size	ep2outstate, 16
 893              	ep2outstate:
 894 0000 00000000 		.space	16
ARM GAS  /tmp/ccioEaBB.s 			page 17


 894      00000000 
 894      00000000 
 894      00000000 
 895              		.section	.rodata.config,"a",%progbits
 896              		.align	2
 897              		.set	.LANCHOR10,. + 0
 898              		.type	config, %object
 899              		.size	config, 16
 900              	config:
 901 0000 00000000 		.word	usb_event
 902 0004 00000000 		.word	get_descriptor
 903 0008 00000000 		.word	requestsHook
 904 000c 00000000 		.word	0
 905              		.section	.rodata.vcom_device_descriptor_data,"a",%progbits
 906              		.align	2
 907              		.type	vcom_device_descriptor_data, %object
 908              		.size	vcom_device_descriptor_data, 18
 909              	vcom_device_descriptor_data:
 910 0000 12       		.byte	18
 911 0001 01       		.byte	1
 912 0002 10       		.byte	16
 913 0003 01       		.byte	1
 914 0004 FF       		.byte	-1
 915 0005 00       		.byte	0
 916 0006 00       		.byte	0
 917 0007 40       		.byte	64
 918 0008 83       		.byte	-125
 919 0009 04       		.byte	4
 920 000a FF       		.byte	-1
 921 000b FF       		.byte	-1
 922 000c 00       		.byte	0
 923 000d 02       		.byte	2
 924 000e 01       		.byte	1
 925 000f 02       		.byte	2
 926 0010 03       		.byte	3
 927 0011 01       		.byte	1
 928 0012 0000     		.section	.rodata.vcom_strings,"a",%progbits
 929              		.align	2
 930              		.set	.LANCHOR2,. + 0
 931              		.type	vcom_strings, %object
 932              		.size	vcom_strings, 40
 933              	vcom_strings:
 934 0000 04000000 		.word	4
 935 0004 00000000 		.word	stringLanguage
 936 0008 26000000 		.word	38
 937 000c 00000000 		.word	stringVendor
 938 0010 30000000 		.word	48
 939 0014 00000000 		.word	stringDeviceDescriptor
 940 0018 0C000000 		.word	12
 941 001c 00000000 		.word	stringSerialNumber
 942 0020 22000000 		.word	34
 943 0024 00000000 		.word	stringNotFound
 944              		.section	.rodata.vcom_configuration_descriptor_data,"a",%progbits
 945              		.align	2
 946              		.type	vcom_configuration_descriptor_data, %object
 947              		.size	vcom_configuration_descriptor_data, 32
 948              	vcom_configuration_descriptor_data:
ARM GAS  /tmp/ccioEaBB.s 			page 18


 949 0000 09       		.byte	9
 950 0001 02       		.byte	2
 951 0002 20       		.byte	32
 952 0003 00       		.byte	0
 953 0004 01       		.byte	1
 954 0005 01       		.byte	1
 955 0006 00       		.byte	0
 956 0007 C0       		.byte	-64
 957 0008 32       		.byte	50
 958 0009 09       		.byte	9
 959 000a 04       		.byte	4
 960 000b 00       		.byte	0
 961 000c 00       		.byte	0
 962 000d 02       		.byte	2
 963 000e FF       		.byte	-1
 964 000f 00       		.byte	0
 965 0010 00       		.byte	0
 966 0011 00       		.byte	0
 967 0012 07       		.byte	7
 968 0013 05       		.byte	5
 969 0014 81       		.byte	-127
 970 0015 02       		.byte	2
 971 0016 40       		.byte	64
 972 0017 00       		.byte	0
 973 0018 00       		.byte	0
 974 0019 07       		.byte	7
 975 001a 05       		.byte	5
 976 001b 02       		.byte	2
 977 001c 02       		.byte	2
 978 001d 40       		.byte	64
 979 001e 00       		.byte	0
 980 001f 00       		.byte	0
 981              		.section	.rodata.vcom_device_descriptor,"a",%progbits
 982              		.align	2
 983              		.set	.LANCHOR0,. + 0
 984              		.type	vcom_device_descriptor, %object
 985              		.size	vcom_device_descriptor, 8
 986              	vcom_device_descriptor:
 987 0000 12000000 		.word	18
 988 0004 00000000 		.word	vcom_device_descriptor_data
 989              		.text
 990              	.Letext0:
 991              		.file 2 "/opt/ARM/bin/../lib/gcc/arm-none-eabi/4.7.3/include/stddef.h"
 992              		.file 3 "/opt/ARM/bin/../lib/gcc/arm-none-eabi/4.7.3/../../../../arm-none-eabi/include/stdint.h"
 993              		.file 4 "../ChibiOS/os/ports/GCC/ARMCMx/chtypes.h"
 994              		.file 5 "../ChibiOS/os/kernel/include/chlists.h"
 995              		.file 6 "../ChibiOS/os/kernel/include/chthreads.h"
 996              		.file 7 "../ChibiOS/os/ports/GCC/ARMCMx/chcore_v7m.h"
 997              		.file 8 "../ChibiOS/os/kernel/include/chmtx.h"
 998              		.file 9 "../ChibiOS/os/kernel/include/chqueues.h"
 999              		.file 10 "../ChibiOS/os/hal/platforms/STM32/GPIOv2/pal_lld.h"
 1000              		.file 11 "../ChibiOS/os/hal/include/usb.h"
 1001              		.file 12 "../ChibiOS/os/hal/platforms/STM32/OTGv1/usb_lld.h"
 1002              		.file 13 "../ChibiOS/os/hal/platforms/STM32/OTGv1/stm32_otg.h"
 1003              		.file 14 "usbdescriptor.h"
 1004              		.file 15 "../ChibiOS/os/ports/common/ARMCMx/CMSIS/include/core_cm4.h"
 1005              		.file 16 "../ChibiOS/os/hal/include/hal.h"
ARM GAS  /tmp/ccioEaBB.s 			page 19


 1006              		.file 17 "../ChibiOS/os/kernel/include/chsys.h"