ARM GAS  /tmp/ccoLks8M.s 			page 1


   1              		.syntax unified
   2              		.cpu cortex-m4
   3              		.fpu softvfp
   4              		.eabi_attribute 20, 1
   5              		.eabi_attribute 21, 1
   6              		.eabi_attribute 23, 3
   7              		.eabi_attribute 24, 1
   8              		.eabi_attribute 25, 1
   9              		.eabi_attribute 26, 1
  10              		.eabi_attribute 30, 2
  11              		.eabi_attribute 34, 1
  12              		.eabi_attribute 18, 4
  13              		.thumb
  14              		.file	"chprintf.c"
  15              		.text
  16              	.Ltext0:
  17              		.cfi_sections	.debug_frame
  18              		.section	.text.ltoa,"ax",%progbits
  19              		.align	2
  20              		.p2align 4,,15
  21              		.thumb
  22              		.thumb_func
  23              		.type	ltoa, %function
  24              	ltoa:
  25              	.LFB7:
  26              		.file 1 "../../ChibiOS_2.4.3/os/various/chprintf.c"
  27              		.loc 1 42 0
  28              		.cfi_startproc
  29              		@ args = 0, pretend = 0, frame = 0
  30              		@ frame_needed = 0, uses_anonymous_args = 0
  31              		@ link register save eliminated.
  32              	.LVL0:
  33 0000 F0B4     		push	{r4, r5, r6, r7}
  34              	.LCFI0:
  35              		.cfi_def_cfa_offset 16
  36              		.cfi_offset 4, -16
  37              		.cfi_offset 5, -12
  38              		.cfi_offset 6, -8
  39              		.cfi_offset 7, -4
  40              		.loc 1 42 0
  41 0002 0646     		mov	r6, r0
  42              		.loc 1 46 0
  43 0004 00F10B07 		add	r7, r0, #11
  44              	.LVL1:
  45              		.loc 1 42 0
  46 0008 00F10A04 		add	r4, r0, #10
  47              	.LVL2:
  48              	.L3:
  49              		.loc 1 48 0
  50 000c B1FBF2F5 		udiv	r5, r1, r2
  51 0010 02FB1511 		mls	r1, r2, r5, r1
  52              	.LVL3:
  53              		.loc 1 49 0
  54 0014 01F13003 		add	r3, r1, #48
  55              	.LVL4:
  56              		.loc 1 50 0
  57 0018 392B     		cmp	r3, #57
ARM GAS  /tmp/ccoLks8M.s 			page 2


  58              		.loc 1 51 0
  59 001a C8BF     		it	gt
  60 001c 01F13703 		addgt	r3, r1, #55
  61              	.LVL5:
  62              		.loc 1 52 0
  63 0020 DBB2     		uxtb	r3, r3
  64              	.LVL6:
  65 0022 2046     		mov	r0, r4
  66              	.LVL7:
  67              		.loc 1 53 0
  68 0024 2946     		mov	r1, r5
  69              	.LVL8:
  70              		.loc 1 52 0
  71 0026 04F80139 		strb	r3, [r4], #-1
  72              		.loc 1 53 0
  73 002a 002D     		cmp	r5, #0
  74 002c EED1     		bne	.L3
  75              	.LVL9:
  76              		.loc 1 55 0
  77 002e 3A1A     		subs	r2, r7, r0
  78              	.LVL10:
  79 0030 0146     		mov	r1, r0
  80              		.loc 1 42 0
  81 0032 B018     		adds	r0, r6, r2
  82              	.LVL11:
  83 0034 F243     		mvns	r2, r6
  84              	.LVL12:
  85 0036 8218     		adds	r2, r0, r2
  86 0038 D207     		lsls	r2, r2, #31
  87 003a 0AD5     		bpl	.L5
  88              	.LVL13:
  89              		.loc 1 57 0
  90 003c 06F8013B 		strb	r3, [r6], #1
  91              	.LVL14:
  92 0040 11F8013F 		ldrb	r3, [r1, #1]!	@ zero_extendqisi2
  93 0044 05E0     		b	.L5
  94              	.L15:
  95 0046 11F8013F 		ldrb	r3, [r1, #1]!	@ zero_extendqisi2
  96              	.LVL15:
  97 004a 7370     		strb	r3, [r6, #1]
  98 004c 11F8013F 		ldrb	r3, [r1, #1]!	@ zero_extendqisi2
  99 0050 561C     		adds	r6, r2, #1
 100              	.LVL16:
 101              	.L5:
 102              		.loc 1 57 0 is_stmt 0 discriminator 1
 103 0052 3246     		mov	r2, r6
 104 0054 02F8013B 		strb	r3, [r2], #1
 105              		.loc 1 58 0 is_stmt 1 discriminator 1
 106 0058 8242     		cmp	r2, r0
 107 005a F4D1     		bne	.L15
 108              		.loc 1 61 0
 109 005c F0BC     		pop	{r4, r5, r6, r7}
 110 005e 7047     		bx	lr
 111              		.cfi_endproc
 112              	.LFE7:
 113              		.size	ltoa, .-ltoa
 114              		.section	.text.chprintf,"ax",%progbits
ARM GAS  /tmp/ccoLks8M.s 			page 3


 115              		.align	2
 116              		.p2align 4,,15
 117              		.global	chprintf
 118              		.thumb
 119              		.thumb_func
 120              		.type	chprintf, %function
 121              	chprintf:
 122              	.LFB8:
 123              		.loc 1 86 0
 124              		.cfi_startproc
 125              		@ args = 4, pretend = 12, frame = 24
 126              		@ frame_needed = 0, uses_anonymous_args = 1
 127              	.LVL17:
 128 0000 0EB4     		push	{r1, r2, r3}
 129              	.LCFI1:
 130              		.cfi_def_cfa_offset 12
 131              		.cfi_offset 1, -12
 132              		.cfi_offset 2, -8
 133              		.cfi_offset 3, -4
 134 0002 2DE9F04F 		push	{r4, r5, r6, r7, r8, r9, sl, fp, lr}
 135              	.LCFI2:
 136              		.cfi_def_cfa_offset 48
 137              		.cfi_offset 4, -48
 138              		.cfi_offset 5, -44
 139              		.cfi_offset 6, -40
 140              		.cfi_offset 7, -36
 141              		.cfi_offset 8, -32
 142              		.cfi_offset 9, -28
 143              		.cfi_offset 10, -24
 144              		.cfi_offset 11, -20
 145              		.cfi_offset 14, -16
 146 0006 86B0     		sub	sp, sp, #24
 147              	.LCFI3:
 148              		.cfi_def_cfa_offset 72
 149              		.loc 1 86 0
 150 0008 0FAB     		add	r3, sp, #60
 151              		.loc 1 197 0
 152 000a 0DF10D01 		add	r1, sp, #13
 153              		.loc 1 105 0
 154 000e 0DF10C0B 		add	fp, sp, #12
 155              		.loc 1 86 0
 156 0012 53F8044B 		ldr	r4, [r3], #4
 157              		.loc 1 197 0
 158 0016 0091     		str	r1, [sp, #0]
 159 0018 CBEB010C 		rsb	ip, fp, r1
 160              		.loc 1 94 0
 161 001c 0293     		str	r3, [sp, #8]
 162              		.loc 1 86 0
 163 001e 0546     		mov	r5, r0
 164 0020 CDF804C0 		str	ip, [sp, #4]
 165              	.LVL18:
 166              	.L108:
 167              		.loc 1 96 0
 168 0024 A046     		mov	r8, r4
 169 0026 18F8011B 		ldrb	r1, [r8], #1	@ zero_extendqisi2
 170              	.LVL19:
 171              		.loc 1 97 0
ARM GAS  /tmp/ccoLks8M.s 			page 4


 172 002a 69B1     		cbz	r1, .L107
 173              	.LVL20:
 174              	.L124:
 175              		.loc 1 101 0
 176 002c 2529     		cmp	r1, #37
 177 002e 10D0     		beq	.L19
 178              		.loc 1 102 0
 179 0030 2C68     		ldr	r4, [r5, #0]
 180 0032 2369     		ldr	r3, [r4, #16]
 181              		.loc 1 96 0
 182 0034 4446     		mov	r4, r8
 183 0036 A046     		mov	r8, r4
 184              	.LVL21:
 185              		.loc 1 102 0
 186 0038 2846     		mov	r0, r5
 187 003a 4FF0FF32 		mov	r2, #-1
 188 003e 9847     		blx	r3
 189              	.LVL22:
 190              		.loc 1 96 0
 191 0040 18F8011B 		ldrb	r1, [r8], #1	@ zero_extendqisi2
 192              	.LVL23:
 193              		.loc 1 97 0
 194 0044 0029     		cmp	r1, #0
 195 0046 F1D1     		bne	.L124
 196              	.LVL24:
 197              	.L107:
 198              		.loc 1 222 0
 199 0048 06B0     		add	sp, sp, #24
 200 004a BDE8F04F 		pop	{r4, r5, r6, r7, r8, r9, sl, fp, lr}
 201 004e 03B0     		add	sp, sp, #12
 202 0050 7047     		bx	lr
 203              	.L19:
 204              	.LVL25:
 205              		.loc 1 108 0
 206 0052 6378     		ldrb	r3, [r4, #1]	@ zero_extendqisi2
 207 0054 2D2B     		cmp	r3, #45
 208 0056 00F08B81 		beq	.L125
 209              		.loc 1 107 0
 210 005a 0026     		movs	r6, #0
 211              	.LVL26:
 212              	.L21:
 213              		.loc 1 113 0
 214 005c 2E2B     		cmp	r3, #46
 215 005e 00F08181 		beq	.L126
 216              		.loc 1 112 0
 217 0062 2027     		movs	r7, #32
 218              	.LVL27:
 219              	.L22:
 220 0064 0299     		ldr	r1, [sp, #8]
 221              		.loc 1 115 0
 222 0066 4446     		mov	r4, r8
 223              		.loc 1 117 0
 224 0068 4FF00009 		mov	r9, #0
 225 006c 06E0     		b	.L25
 226              	.LVL28:
 227              	.L127:
 228              		.loc 1 123 0
ARM GAS  /tmp/ccoLks8M.s 			page 5


 229 006e 0A78     		ldrb	r2, [r1, #0]	@ zero_extendqisi2
 230              	.LVL29:
 231 0070 0431     		adds	r1, r1, #4
 232              	.LVL30:
 233              	.L23:
 234              		.loc 1 126 0
 235 0072 09EB890C 		add	ip, r9, r9, lsl #2
 236 0076 2378     		ldrb	r3, [r4, #0]	@ zero_extendqisi2
 237 0078 02EB4C09 		add	r9, r2, ip, lsl #1
 238              	.LVL31:
 239              	.L25:
 240              		.loc 1 120 0
 241 007c A3F13002 		sub	r2, r3, #48
 242 0080 D2B2     		uxtb	r2, r2
 243              		.loc 1 119 0
 244 0082 0134     		adds	r4, r4, #1
 245              	.LVL32:
 246              		.loc 1 120 0
 247 0084 092A     		cmp	r2, #9
 248 0086 F4D9     		bls	.L23
 249              		.loc 1 122 0
 250 0088 2A2B     		cmp	r3, #42
 251 008a F0D0     		beq	.L127
 252              		.loc 1 129 0
 253 008c 0020     		movs	r0, #0
 254 008e 2E2B     		cmp	r3, #46
 255 0090 0291     		str	r1, [sp, #8]
 256              	.LVL33:
 257 0092 4BD0     		beq	.L29
 258              	.LVL34:
 259              		.loc 1 143 0
 260 0094 6C2B     		cmp	r3, #108
 261 0096 55D0     		beq	.L30
 262              	.LVL35:
 263              	.L128:
 264              		.loc 1 143 0 is_stmt 0 discriminator 1
 265 0098 4C2B     		cmp	r3, #76
 266 009a 53D0     		beq	.L30
 267              		.loc 1 149 0 is_stmt 1
 268 009c A3F14101 		sub	r1, r3, #65
 269 00a0 1929     		cmp	r1, #25
 270 00a2 8CBF     		ite	hi
 271 00a4 0021     		movhi	r1, #0
 272 00a6 0121     		movls	r1, #1
 273              	.LVL36:
 274              	.L32:
 275              		.loc 1 152 0
 276 00a8 A3F14402 		sub	r2, r3, #68
 277 00ac 342A     		cmp	r2, #52
 278 00ae 00F25381 		bhi	.L33
 279 00b2 DFE812F0 		tbh	[pc, r2, lsl #1]
 280              	.L40:
 281 00b6 4201     		.2byte	(.L34-.L40)/2
 282 00b8 5101     		.2byte	(.L33-.L40)/2
 283 00ba 5101     		.2byte	(.L33-.L40)/2
 284 00bc 5101     		.2byte	(.L33-.L40)/2
 285 00be 5101     		.2byte	(.L33-.L40)/2
ARM GAS  /tmp/ccoLks8M.s 			page 6


 286 00c0 5101     		.2byte	(.L33-.L40)/2
 287 00c2 5101     		.2byte	(.L33-.L40)/2
 288 00c4 5101     		.2byte	(.L33-.L40)/2
 289 00c6 5101     		.2byte	(.L33-.L40)/2
 290 00c8 5101     		.2byte	(.L33-.L40)/2
 291 00ca 5101     		.2byte	(.L33-.L40)/2
 292 00cc 4001     		.2byte	(.L35-.L40)/2
 293 00ce 5101     		.2byte	(.L33-.L40)/2
 294 00d0 5101     		.2byte	(.L33-.L40)/2
 295 00d2 5101     		.2byte	(.L33-.L40)/2
 296 00d4 5101     		.2byte	(.L33-.L40)/2
 297 00d6 5101     		.2byte	(.L33-.L40)/2
 298 00d8 3801     		.2byte	(.L63-.L40)/2
 299 00da 5101     		.2byte	(.L33-.L40)/2
 300 00dc 5101     		.2byte	(.L33-.L40)/2
 301 00de 2B01     		.2byte	(.L37-.L40)/2
 302 00e0 5101     		.2byte	(.L33-.L40)/2
 303 00e2 5101     		.2byte	(.L33-.L40)/2
 304 00e4 5101     		.2byte	(.L33-.L40)/2
 305 00e6 5101     		.2byte	(.L33-.L40)/2
 306 00e8 5101     		.2byte	(.L33-.L40)/2
 307 00ea 5101     		.2byte	(.L33-.L40)/2
 308 00ec 5101     		.2byte	(.L33-.L40)/2
 309 00ee 5101     		.2byte	(.L33-.L40)/2
 310 00f0 5101     		.2byte	(.L33-.L40)/2
 311 00f2 5101     		.2byte	(.L33-.L40)/2
 312 00f4 EA00     		.2byte	(.L38-.L40)/2
 313 00f6 4201     		.2byte	(.L34-.L40)/2
 314 00f8 5101     		.2byte	(.L33-.L40)/2
 315 00fa 5101     		.2byte	(.L33-.L40)/2
 316 00fc 5101     		.2byte	(.L33-.L40)/2
 317 00fe 5101     		.2byte	(.L33-.L40)/2
 318 0100 5101     		.2byte	(.L33-.L40)/2
 319 0102 5101     		.2byte	(.L33-.L40)/2
 320 0104 5101     		.2byte	(.L33-.L40)/2
 321 0106 5101     		.2byte	(.L33-.L40)/2
 322 0108 5101     		.2byte	(.L33-.L40)/2
 323 010a 5101     		.2byte	(.L33-.L40)/2
 324 010c 4001     		.2byte	(.L35-.L40)/2
 325 010e 5101     		.2byte	(.L33-.L40)/2
 326 0110 5101     		.2byte	(.L33-.L40)/2
 327 0112 5101     		.2byte	(.L33-.L40)/2
 328 0114 4F00     		.2byte	(.L39-.L40)/2
 329 0116 5101     		.2byte	(.L33-.L40)/2
 330 0118 3801     		.2byte	(.L63-.L40)/2
 331 011a 5101     		.2byte	(.L33-.L40)/2
 332 011c 5101     		.2byte	(.L33-.L40)/2
 333 011e 2B01     		.2byte	(.L37-.L40)/2
 334              	.LVL37:
 335              	.L28:
 336              		.loc 1 135 0
 337 0120 0A78     		ldrb	r2, [r1, #0]	@ zero_extendqisi2
 338              	.LVL38:
 339 0122 0431     		adds	r1, r1, #4
 340              	.LVL39:
 341              	.L27:
 342              		.loc 1 138 0
ARM GAS  /tmp/ccoLks8M.s 			page 7


 343 0124 00EB8000 		add	r0, r0, r0, lsl #2
 344              	.LVL40:
 345              		.loc 1 139 0
 346 0128 02EB4000 		add	r0, r2, r0, lsl #1
 347              	.LVL41:
 348              	.L29:
 349              		.loc 1 131 0
 350 012c 14F8013B 		ldrb	r3, [r4], #1	@ zero_extendqisi2
 351              	.LVL42:
 352              		.loc 1 132 0
 353 0130 A3F13002 		sub	r2, r3, #48
 354 0134 D2B2     		uxtb	r2, r2
 355 0136 092A     		cmp	r2, #9
 356 0138 F4D9     		bls	.L27
 357              		.loc 1 134 0
 358 013a 2A2B     		cmp	r3, #42
 359 013c F0D0     		beq	.L28
 360              		.loc 1 143 0
 361 013e 6C2B     		cmp	r3, #108
 362 0140 0291     		str	r1, [sp, #8]
 363 0142 A9D1     		bne	.L128
 364              	.LVL43:
 365              	.L30:
 366              		.loc 1 145 0
 367 0144 2178     		ldrb	r1, [r4, #0]	@ zero_extendqisi2
 368 0146 0029     		cmp	r1, #0
 369 0148 00F01781 		beq	.L62
 370              	.LVL44:
 371              		.loc 1 146 0
 372 014c 0B46     		mov	r3, r1
 373 014e 0134     		adds	r4, r4, #1
 374              	.LVL45:
 375              		.loc 1 144 0
 376 0150 0121     		movs	r1, #1
 377 0152 A9E7     		b	.L32
 378              	.LVL46:
 379              	.L39:
 380              		.loc 1 159 0
 381 0154 029F     		ldr	r7, [sp, #8]
 382              		.loc 1 160 0
 383 0156 40F2000A 		movw	sl, #:lower16:.LC0
 384              		.loc 1 159 0
 385 015a 3B68     		ldr	r3, [r7, #0]
 386              	.LVL47:
 387              		.loc 1 160 0
 388 015c C0F2000A 		movt	sl, #:upper16:.LC0
 389 0160 002B     		cmp	r3, #0
 390 0162 18BF     		it	ne
 391 0164 9A46     		movne	sl, r3
 392              	.LVL48:
 393              		.loc 1 159 0
 394 0166 391D     		adds	r1, r7, #4
 395              	.LVL49:
 396              		.loc 1 163 0
 397 0168 9AF80020 		ldrb	r2, [sl, #0]	@ zero_extendqisi2
 398              	.LVL50:
 399              		.loc 1 159 0
ARM GAS  /tmp/ccoLks8M.s 			page 8


 400 016c 0291     		str	r1, [sp, #8]
 401              		.loc 1 162 0
 402 016e 47F6FF77 		movw	r7, #32767
 403 0172 0028     		cmp	r0, #0
 404 0174 08BF     		it	eq
 405 0176 3846     		moveq	r0, r7
 406              	.LVL51:
 407              		.loc 1 163 0
 408 0178 002A     		cmp	r2, #0
 409 017a 00F01C81 		beq	.L66
 410 017e 9AF80130 		ldrb	r3, [sl, #1]	@ zero_extendqisi2
 411 0182 411E     		subs	r1, r0, #1
 412 0184 0AEB0008 		add	r8, sl, r0
 413              		.loc 1 86 0
 414 0188 0AF10102 		add	r2, sl, #1
 415              	.LVL52:
 416 018c 01F00100 		and	r0, r1, #1
 417              		.loc 1 163 0
 418 0190 B3B1     		cbz	r3, .L109
 419 0192 9045     		cmp	r8, r2
 420 0194 1346     		mov	r3, r2
 421 0196 00F00A81 		beq	.L110
 422 019a 60B1     		cbz	r0, .L45
 423 019c 5778     		ldrb	r7, [r2, #1]	@ zero_extendqisi2
 424              		.loc 1 86 0
 425 019e 0132     		adds	r2, r2, #1
 426              	.LVL53:
 427              		.loc 1 163 0
 428 01a0 77B1     		cbz	r7, .L109
 429 01a2 9045     		cmp	r8, r2
 430 01a4 1346     		mov	r3, r2
 431 01a6 06D1     		bne	.L45
 432 01a8 01E1     		b	.L110
 433              	.L44:
 434              		.loc 1 163 0 is_stmt 0 discriminator 2
 435 01aa 5778     		ldrb	r7, [r2, #1]	@ zero_extendqisi2
 436              		.loc 1 86 0 is_stmt 1 discriminator 2
 437 01ac 0132     		adds	r2, r2, #1
 438              	.LVL54:
 439              		.loc 1 163 0 discriminator 2
 440 01ae 3FB1     		cbz	r7, .L109
 441              		.loc 1 163 0 is_stmt 0
 442 01b0 9845     		cmp	r8, r3
 443 01b2 00F0FC80 		beq	.L110
 444              	.L45:
 445              		.loc 1 163 0 discriminator 1
 446 01b6 5878     		ldrb	r0, [r3, #1]	@ zero_extendqisi2
 447              		.loc 1 86 0 is_stmt 1 discriminator 1
 448 01b8 5A1C     		adds	r2, r3, #1
 449              	.LVL55:
 450 01ba 531C     		adds	r3, r2, #1
 451              		.loc 1 163 0 discriminator 1
 452 01bc 0028     		cmp	r0, #0
 453 01be F4D1     		bne	.L44
 454              	.LVL56:
 455              	.L109:
 456 01c0 CAEB0208 		rsb	r8, sl, r2
ARM GAS  /tmp/ccoLks8M.s 			page 9


 457              		.loc 1 201 0
 458 01c4 C8EB090C 		rsb	ip, r8, r9
 459              		.loc 1 158 0
 460 01c8 2027     		movs	r7, #32
 461              	.LVL57:
 462 01ca 2CEAEC79 		bic	r9, ip, ip, asr #31
 463              	.LVL58:
 464              		.loc 1 203 0
 465 01ce 002E     		cmp	r6, #0
 466 01d0 6BD0     		beq	.L129
 467              	.LVL59:
 468              	.L51:
 469              		.loc 1 214 0 discriminator 1
 470 01d2 B8F1000F 		cmp	r8, #0
 471 01d6 2CDD     		ble	.L57
 472              		.loc 1 215 0
 473 01d8 5646     		mov	r6, sl
 474 01da 2868     		ldr	r0, [r5, #0]
 475 01dc 16F8011B 		ldrb	r1, [r6], #1	@ zero_extendqisi2
 476 01e0 0369     		ldr	r3, [r0, #16]
 477              		.loc 1 86 0
 478 01e2 D044     		add	r8, sl, r8
 479              	.LVL60:
 480 01e4 6FEA0A0A 		mvn	sl, sl
 481              	.LVL61:
 482 01e8 08EB0A0E 		add	lr, r8, sl
 483              		.loc 1 215 0
 484 01ec 2846     		mov	r0, r5
 485 01ee 4FF0FF32 		mov	r2, #-1
 486 01f2 0EF0010A 		and	sl, lr, #1
 487              	.LVL62:
 488 01f6 9847     		blx	r3
 489              	.LVL63:
 490              		.loc 1 214 0
 491 01f8 4645     		cmp	r6, r8
 492 01fa 1AD0     		beq	.L57
 493 01fc BAF1000F 		cmp	sl, #0
 494 0200 03D0     		beq	.L56
 495              	.LVL64:
 496              		.loc 1 215 0
 497 0202 2A68     		ldr	r2, [r5, #0]
 498 0204 16F8011B 		ldrb	r1, [r6], #1	@ zero_extendqisi2
 499 0208 0CE0     		b	.L123
 500              	.L56:
 501 020a 2A68     		ldr	r2, [r5, #0]
 502 020c B246     		mov	sl, r6
 503 020e 1369     		ldr	r3, [r2, #16]
 504 0210 1AF8011B 		ldrb	r1, [sl], #1	@ zero_extendqisi2
 505 0214 4FF0FF32 		mov	r2, #-1
 506 0218 2846     		mov	r0, r5
 507 021a 9847     		blx	r3
 508              	.LVL65:
 509 021c 2A68     		ldr	r2, [r5, #0]
 510 021e 7178     		ldrb	r1, [r6, #1]	@ zero_extendqisi2
 511 0220 0AF10106 		add	r6, sl, #1
 512              	.L123:
 513 0224 1369     		ldr	r3, [r2, #16]
ARM GAS  /tmp/ccoLks8M.s 			page 10


 514 0226 2846     		mov	r0, r5
 515 0228 4FF0FF32 		mov	r2, #-1
 516 022c 9847     		blx	r3
 517              	.LVL66:
 518              		.loc 1 214 0
 519 022e 4645     		cmp	r6, r8
 520 0230 EBD1     		bne	.L56
 521              	.L57:
 522              	.LVL67:
 523              		.loc 1 217 0
 524 0232 B9F1000F 		cmp	r9, #0
 525 0236 3FF4F5AE 		beq	.L108
 526              		.loc 1 218 0
 527 023a 2968     		ldr	r1, [r5, #0]
 528 023c 09F1FF39 		add	r9, r9, #-1
 529              	.LVL68:
 530              		.loc 1 217 0
 531 0240 4E46     		mov	r6, r9
 532              		.loc 1 218 0
 533 0242 0B69     		ldr	r3, [r1, #16]
 534 0244 2846     		mov	r0, r5
 535 0246 3946     		mov	r1, r7
 536 0248 4FF0FF32 		mov	r2, #-1
 537 024c 09F00109 		and	r9, r9, #1
 538              	.LVL69:
 539 0250 9847     		blx	r3
 540              	.LVL70:
 541              		.loc 1 217 0
 542 0252 002E     		cmp	r6, #0
 543 0254 3FF4E6AE 		beq	.L108
 544 0258 B9F1000F 		cmp	r9, #0
 545 025c 03D0     		beq	.L72
 546              		.loc 1 218 0
 547 025e 2A68     		ldr	r2, [r5, #0]
 548 0260 2846     		mov	r0, r5
 549 0262 1369     		ldr	r3, [r2, #16]
 550 0264 0AE0     		b	.L120
 551              	.LVL71:
 552              	.L72:
 553 0266 2868     		ldr	r0, [r5, #0]
 554 0268 3946     		mov	r1, r7
 555 026a 0369     		ldr	r3, [r0, #16]
 556 026c 4FF0FF32 		mov	r2, #-1
 557 0270 2846     		mov	r0, r5
 558 0272 9847     		blx	r3
 559              	.LVL72:
 560 0274 2968     		ldr	r1, [r5, #0]
 561 0276 0B69     		ldr	r3, [r1, #16]
 562              		.loc 1 219 0
 563 0278 013E     		subs	r6, r6, #1
 564              		.loc 1 218 0
 565 027a 2846     		mov	r0, r5
 566              	.LVL73:
 567              	.L120:
 568 027c 3946     		mov	r1, r7
 569 027e 4FF0FF32 		mov	r2, #-1
 570 0282 9847     		blx	r3
ARM GAS  /tmp/ccoLks8M.s 			page 11


 571              	.LVL74:
 572              		.loc 1 217 0
 573 0284 013E     		subs	r6, r6, #1
 574 0286 EED1     		bne	.L72
 575 0288 CCE6     		b	.L108
 576              	.LVL75:
 577              	.L38:
 578              		.loc 1 155 0
 579 028a 0298     		ldr	r0, [sp, #8]
 580              	.LVL76:
 581 028c DDF80480 		ldr	r8, [sp, #4]
 582 0290 0268     		ldr	r2, [r0, #0]
 583 0292 011D     		adds	r1, r0, #4
 584              	.LVL77:
 585 0294 0291     		str	r1, [sp, #8]
 586 0296 8DF80C20 		strb	r2, [sp, #12]
 587              	.LVL78:
 588              		.loc 1 154 0
 589 029a 2027     		movs	r7, #32
 590              		.loc 1 106 0
 591 029c DA46     		mov	sl, fp
 592              	.LVL79:
 593              	.L41:
 594              		.loc 1 201 0
 595 029e C8EB090C 		rsb	ip, r8, r9
 596              	.LVL80:
 597 02a2 2CEAEC79 		bic	r9, ip, ip, asr #31
 598              	.LVL81:
 599              		.loc 1 203 0
 600 02a6 002E     		cmp	r6, #0
 601 02a8 93D1     		bne	.L51
 602              	.LVL82:
 603              	.L129:
 604              		.loc 1 204 0
 605 02aa C9F10009 		rsb	r9, r9, #0
 606              	.LVL83:
 607              		.loc 1 205 0
 608 02ae B9F1000F 		cmp	r9, #0
 609 02b2 8ED0     		beq	.L51
 610              		.loc 1 206 0
 611 02b4 9AF80010 		ldrb	r1, [sl, #0]	@ zero_extendqisi2
 612 02b8 2D29     		cmp	r1, #45
 613 02ba 6BD0     		beq	.L130
 614              	.LVL84:
 615              	.L53:
 616              		.loc 1 211 0 discriminator 1
 617 02bc 2968     		ldr	r1, [r5, #0]
 618 02be 2846     		mov	r0, r5
 619 02c0 0B69     		ldr	r3, [r1, #16]
 620 02c2 4FF0FF32 		mov	r2, #-1
 621 02c6 3946     		mov	r1, r7
 622 02c8 6FEA0906 		mvn	r6, r9
 623 02cc 9847     		blx	r3
 624              	.LVL85:
 625              		.loc 1 212 0 discriminator 1
 626 02ce 19F10109 		adds	r9, r9, #1
 627              	.LVL86:
ARM GAS  /tmp/ccoLks8M.s 			page 12


 628 02d2 06F00106 		and	r6, r6, #1
 629              	.LVL87:
 630 02d6 3FF47CAF 		beq	.L51
 631 02da 56B1     		cbz	r6, .L73
 632              	.LVL88:
 633              		.loc 1 211 0
 634 02dc 2A68     		ldr	r2, [r5, #0]
 635 02de 1369     		ldr	r3, [r2, #16]
 636 02e0 2846     		mov	r0, r5
 637              	.LVL89:
 638              	.L121:
 639 02e2 3946     		mov	r1, r7
 640 02e4 4FF0FF32 		mov	r2, #-1
 641 02e8 9847     		blx	r3
 642              	.LVL90:
 643              		.loc 1 212 0
 644 02ea 19F10109 		adds	r9, r9, #1
 645              	.LVL91:
 646 02ee 3FF470AF 		beq	.L51
 647              	.LVL92:
 648              	.L73:
 649              		.loc 1 211 0 discriminator 1
 650 02f2 2868     		ldr	r0, [r5, #0]
 651 02f4 3946     		mov	r1, r7
 652 02f6 0369     		ldr	r3, [r0, #16]
 653 02f8 4FF0FF32 		mov	r2, #-1
 654 02fc 2846     		mov	r0, r5
 655 02fe 9847     		blx	r3
 656              	.LVL93:
 657 0300 2968     		ldr	r1, [r5, #0]
 658              		.loc 1 212 0 discriminator 1
 659 0302 09F10109 		add	r9, r9, #1
 660              	.LVL94:
 661              		.loc 1 211 0 discriminator 1
 662 0306 0B69     		ldr	r3, [r1, #16]
 663 0308 2846     		mov	r0, r5
 664 030a EAE7     		b	.L121
 665              	.LVL95:
 666              	.L37:
 667              		.loc 1 152 0
 668 030c 1022     		movs	r2, #16
 669              	.LVL96:
 670              	.L36:
 671              		.loc 1 191 0
 672 030e 029B     		ldr	r3, [sp, #8]
 673              		.loc 1 190 0
 674 0310 69B1     		cbz	r1, .L49
 675              	.L131:
 676              		.loc 1 191 0
 677 0312 191D     		adds	r1, r3, #4
 678              	.LVL97:
 679 0314 0291     		str	r1, [sp, #8]
 680 0316 1968     		ldr	r1, [r3, #0]
 681              	.LVL98:
 682              	.L50:
 683              		.loc 1 194 0
 684 0318 5846     		mov	r0, fp
ARM GAS  /tmp/ccoLks8M.s 			page 13


 685 031a FFF7FEFF 		bl	ltoa
 686              	.LVL99:
 687              		.loc 1 106 0
 688 031e DA46     		mov	sl, fp
 689 0320 CBEB0008 		rsb	r8, fp, r0
 690              		.loc 1 195 0
 691 0324 BBE7     		b	.L41
 692              	.LVL100:
 693              	.L63:
 694              		.loc 1 152 0
 695 0326 0A22     		movs	r2, #10
 696              	.LVL101:
 697              		.loc 1 191 0
 698 0328 029B     		ldr	r3, [sp, #8]
 699              		.loc 1 190 0
 700 032a 0029     		cmp	r1, #0
 701 032c F1D1     		bne	.L131
 702              	.L49:
 703              		.loc 1 193 0
 704 032e 181D     		adds	r0, r3, #4
 705              	.LVL102:
 706 0330 1968     		ldr	r1, [r3, #0]
 707              	.LVL103:
 708 0332 0290     		str	r0, [sp, #8]
 709 0334 F0E7     		b	.L50
 710              	.LVL104:
 711              	.L35:
 712 0336 0822     		movs	r2, #8
 713 0338 E9E7     		b	.L36
 714              	.LVL105:
 715              	.L34:
 716              		.loc 1 169 0
 717 033a 029B     		ldr	r3, [sp, #8]
 718              	.LVL106:
 719 033c 1A1D     		adds	r2, r3, #4
 720              	.LVL107:
 721              		.loc 1 168 0
 722 033e F1B9     		cbnz	r1, .L132
 723              		.loc 1 171 0
 724 0340 1968     		ldr	r1, [r3, #0]
 725              	.LVL108:
 726 0342 0292     		str	r2, [sp, #8]
 727              		.loc 1 172 0
 728 0344 0029     		cmp	r1, #0
 729 0346 1EDB     		blt	.L133
 730              	.L67:
 731              		.loc 1 105 0
 732 0348 5846     		mov	r0, fp
 733              	.LVL109:
 734              	.L48:
 735              		.loc 1 176 0
 736 034a 0A22     		movs	r2, #10
 737 034c FFF7FEFF 		bl	ltoa
 738              	.LVL110:
 739              		.loc 1 106 0
 740 0350 DA46     		mov	sl, fp
 741 0352 CBEB0008 		rsb	r8, fp, r0
ARM GAS  /tmp/ccoLks8M.s 			page 14


 742              		.loc 1 177 0
 743 0356 A2E7     		b	.L41
 744              	.LVL111:
 745              	.L33:
 746              		.loc 1 197 0
 747 0358 8DF80C30 		strb	r3, [sp, #12]
 748              	.LVL112:
 749 035c DDF80480 		ldr	r8, [sp, #4]
 750              		.loc 1 106 0
 751 0360 DA46     		mov	sl, fp
 752              		.loc 1 198 0
 753 0362 9CE7     		b	.L41
 754              	.LVL113:
 755              	.L126:
 756 0364 98F80130 		ldrb	r3, [r8, #1]	@ zero_extendqisi2
 757              		.loc 1 115 0
 758 0368 3027     		movs	r7, #48
 759              		.loc 1 114 0
 760 036a 08F10108 		add	r8, r8, #1
 761              	.LVL114:
 762 036e 79E6     		b	.L22
 763              	.LVL115:
 764              	.L125:
 765              		.loc 1 109 0
 766 0370 04F10208 		add	r8, r4, #2
 767              	.LVL116:
 768 0374 A378     		ldrb	r3, [r4, #2]	@ zero_extendqisi2
 769              		.loc 1 110 0
 770 0376 0126     		movs	r6, #1
 771 0378 70E6     		b	.L21
 772              	.LVL117:
 773              	.L62:
 774              		.loc 1 144 0
 775 037a 0121     		movs	r1, #1
 776 037c 94E6     		b	.L32
 777              	.LVL118:
 778              	.L132:
 779              		.loc 1 169 0
 780 037e 1968     		ldr	r1, [r3, #0]
 781              	.LVL119:
 782 0380 0292     		str	r2, [sp, #8]
 783              		.loc 1 172 0
 784 0382 0029     		cmp	r1, #0
 785 0384 E0DA     		bge	.L67
 786              	.L133:
 787              		.loc 1 173 0
 788 0386 2D20     		movs	r0, #45
 789              	.LVL120:
 790 0388 8DF80C00 		strb	r0, [sp, #12]
 791              	.LVL121:
 792              		.loc 1 174 0
 793 038c 4942     		negs	r1, r1
 794              	.LVL122:
 795              		.loc 1 173 0
 796 038e 0DF10D00 		add	r0, sp, #13
 797 0392 DAE7     		b	.L48
 798              	.LVL123:
ARM GAS  /tmp/ccoLks8M.s 			page 15


 799              	.L130:
 800              		.loc 1 206 0 discriminator 1
 801 0394 302F     		cmp	r7, #48
 802 0396 91D1     		bne	.L53
 803              		.loc 1 207 0
 804 0398 2E68     		ldr	r6, [r5, #0]
 805              	.LVL124:
 806 039a 2846     		mov	r0, r5
 807 039c 3369     		ldr	r3, [r6, #16]
 808 039e 4FF0FF32 		mov	r2, #-1
 809 03a2 9847     		blx	r3
 810              	.LVL125:
 811 03a4 0AF1010A 		add	sl, sl, #1
 812              	.LVL126:
 813              		.loc 1 208 0
 814 03a8 08F1FF38 		add	r8, r8, #-1
 815              	.LVL127:
 816 03ac 86E7     		b	.L53
 817              	.LVL128:
 818              	.L110:
 819 03ae CAEB0808 		rsb	r8, sl, r8
 820              		.loc 1 158 0
 821 03b2 2027     		movs	r7, #32
 822 03b4 73E7     		b	.L41
 823              	.LVL129:
 824              	.L66:
 825              		.loc 1 163 0
 826 03b6 9046     		mov	r8, r2
 827              		.loc 1 158 0
 828 03b8 2027     		movs	r7, #32
 829 03ba 70E7     		b	.L41
 830              		.cfi_endproc
 831              	.LFE8:
 832              		.size	chprintf, .-chprintf
 833 03bc AFF30080 		.section	.rodata.str1.4,"aMS",%progbits,1
 834              		.align	2
 835              	.LC0:
 836 0000 286E756C 		.ascii	"(null)\000"
 836      6C2900
 837 0007 00       		.text
 838              	.Letext0:
 839              		.file 2 "/opt/ARM/bin/../lib/gcc/arm-none-eabi/4.7.3/include/stdarg.h"
 840              		.file 3 "/opt/ARM/bin/../lib/gcc/arm-none-eabi/4.7.3/include/stddef.h"
 841              		.file 4 "/opt/ARM/bin/../lib/gcc/arm-none-eabi/4.7.3/../../../../arm-none-eabi/include/stdint.h"
 842              		.file 5 "../../ChibiOS_2.4.3/os/ports/GCC/ARMCMx/chtypes.h"
 843              		.file 6 "<built-in>"
 844              		.file 7 "../../ChibiOS_2.4.3/os/kernel/include/chioch.h"