ARM GAS  /tmp/ccsDLGGk.s 			page 1


   1              		.syntax unified
   2              		.cpu cortex-m4
   3              		.fpu softvfp
   4              		.eabi_attribute 20, 1
   5              		.eabi_attribute 21, 1
   6              		.eabi_attribute 23, 3
   7              		.eabi_attribute 24, 1
   8              		.eabi_attribute 25, 1
   9              		.eabi_attribute 26, 1
  10              		.eabi_attribute 30, 2
  11              		.eabi_attribute 34, 1
  12              		.eabi_attribute 18, 4
  13              		.thumb
  14              		.file	"chqueues.c"
  15              		.text
  16              	.Ltext0:
  17              		.cfi_sections	.debug_frame
  18              		.section	.text.qwait,"ax",%progbits
  19              		.align	2
  20              		.p2align 4,,15
  21              		.thumb
  22              		.thumb_func
  23              		.type	qwait, %function
  24              	qwait:
  25              	.LFB7:
  26              		.file 1 "../../ChibiOS_2.4.3/os/kernel/src/chqueues.c"
  27              		.loc 1 72 0
  28              		.cfi_startproc
  29              		@ args = 0, pretend = 0, frame = 0
  30              		@ frame_needed = 0, uses_anonymous_args = 0
  31              		@ link register save eliminated.
  32              	.LVL0:
  33 0000 10B4     		push	{r4}
  34              	.LCFI0:
  35              		.cfi_def_cfa_offset 4
  36              		.cfi_offset 4, -4
  37              		.loc 1 72 0
  38 0002 0246     		mov	r2, r0
  39              		.loc 1 74 0
  40 0004 59B1     		cbz	r1, .L2
  41              		.loc 1 76 0
  42 0006 084B     		ldr	r3, .L4
  43 0008 DB69     		ldr	r3, [r3, #28]
  44 000a 5862     		str	r0, [r3, #36]
  45              	.LVL1:
  46              	.LBB12:
  47              	.LBB13:
  48              		.file 2 "../../ChibiOS_2.4.3/os/kernel/include/chinline.h"
  49              		.loc 2 55 0
  50 000c 4468     		ldr	r4, [r0, #4]
  51              	.LBE13:
  52              	.LBE12:
  53              		.loc 1 78 0
  54 000e 0D20     		movs	r0, #13
  55              	.LVL2:
  56              	.LBB15:
  57              	.LBB14:
ARM GAS  /tmp/ccsDLGGk.s 			page 2


  58              		.loc 2 55 0
  59 0010 83E81400 		stmia	r3, {r2, r4}
  60              		.loc 2 56 0
  61 0014 5360     		str	r3, [r2, #4]
  62 0016 2360     		str	r3, [r4, #0]
  63              	.LBE14:
  64              	.LBE15:
  65              		.loc 1 79 0
  66 0018 10BC     		pop	{r4}
  67              		.loc 1 78 0
  68 001a FFF7FEBF 		b	chSchGoSleepTimeoutS
  69              	.LVL3:
  70              	.L2:
  71              		.loc 1 79 0
  72 001e 4FF0FF30 		mov	r0, #-1
  73              	.LVL4:
  74 0022 10BC     		pop	{r4}
  75 0024 7047     		bx	lr
  76              	.L5:
  77 0026 00BF     		.align	2
  78              	.L4:
  79 0028 00000000 		.word	rlist
  80              		.cfi_endproc
  81              	.LFE7:
  82              		.size	qwait, .-qwait
  83 002c AFF30080 		.section	.text.chIQInit,"ax",%progbits
  84              		.align	2
  85              		.p2align 4,,15
  86              		.global	chIQInit
  87              		.thumb
  88              		.thumb_func
  89              		.type	chIQInit, %function
  90              	chIQInit:
  91              	.LFB8:
  92              		.loc 1 96 0
  93              		.cfi_startproc
  94              		@ args = 0, pretend = 0, frame = 0
  95              		@ frame_needed = 0, uses_anonymous_args = 0
  96              		@ link register save eliminated.
  97              	.LVL5:
  98 0000 10B4     		push	{r4}
  99              	.LCFI1:
 100              		.cfi_def_cfa_offset 4
 101              		.cfi_offset 4, -4
 102              		.loc 1 101 0
 103 0002 8A18     		adds	r2, r1, r2
 104              	.LVL6:
 105              		.loc 1 99 0
 106 0004 0024     		movs	r4, #0
 107              		.loc 1 98 0
 108 0006 4060     		str	r0, [r0, #4]
 109 0008 0060     		str	r0, [r0, #0]
 110              		.loc 1 99 0
 111 000a 8460     		str	r4, [r0, #8]
 112              		.loc 1 100 0
 113 000c 4161     		str	r1, [r0, #20]
 114 000e 8161     		str	r1, [r0, #24]
ARM GAS  /tmp/ccsDLGGk.s 			page 3


 115 0010 C160     		str	r1, [r0, #12]
 116              		.loc 1 101 0
 117 0012 0261     		str	r2, [r0, #16]
 118              		.loc 1 102 0
 119 0014 C361     		str	r3, [r0, #28]
 120              		.loc 1 103 0
 121 0016 10BC     		pop	{r4}
 122 0018 7047     		bx	lr
 123              		.cfi_endproc
 124              	.LFE8:
 125              		.size	chIQInit, .-chIQInit
 126              		.section	.text.chIQResetI,"ax",%progbits
 127              		.align	2
 128              		.p2align 4,,15
 129              		.global	chIQResetI
 130              		.thumb
 131              		.thumb_func
 132              		.type	chIQResetI, %function
 133              	chIQResetI:
 134              	.LFB9:
 135              		.loc 1 116 0
 136              		.cfi_startproc
 137              		@ args = 0, pretend = 0, frame = 0
 138              		@ frame_needed = 0, uses_anonymous_args = 0
 139              	.LVL7:
 140 0000 38B5     		push	{r3, r4, r5, lr}
 141              	.LCFI2:
 142              		.cfi_def_cfa_offset 16
 143              		.cfi_offset 3, -16
 144              		.cfi_offset 4, -12
 145              		.cfi_offset 5, -8
 146              		.cfi_offset 14, -4
 147              		.loc 1 116 0
 148 0002 0446     		mov	r4, r0
 149              		.loc 1 120 0
 150 0004 C368     		ldr	r3, [r0, #12]
 151              		.loc 1 122 0
 152 0006 0068     		ldr	r0, [r0, #0]
 153              	.LVL8:
 154              		.loc 1 120 0
 155 0008 6361     		str	r3, [r4, #20]
 156              		.loc 1 121 0
 157 000a 0021     		movs	r1, #0
 158              		.loc 1 122 0
 159 000c A042     		cmp	r0, r4
 160              		.loc 1 120 0
 161 000e A361     		str	r3, [r4, #24]
 162              		.loc 1 121 0
 163 0010 A160     		str	r1, [r4, #8]
 164              		.loc 1 122 0
 165 0012 0AD0     		beq	.L7
 166              		.loc 1 123 0
 167 0014 6FF00105 		mvn	r5, #1
 168              	.L11:
 169              	.LVL9:
 170              	.LBB16:
 171              	.LBB17:
ARM GAS  /tmp/ccsDLGGk.s 			page 4


 172              		.loc 2 62 0
 173 0018 0268     		ldr	r2, [r0, #0]
 174 001a 2260     		str	r2, [r4, #0]
 175 001c 5460     		str	r4, [r2, #4]
 176              	.LBE17:
 177              	.LBE16:
 178              		.loc 1 123 0
 179 001e FFF7FEFF 		bl	chSchReadyI
 180              	.LVL10:
 181 0022 4562     		str	r5, [r0, #36]
 182              		.loc 1 122 0
 183 0024 2068     		ldr	r0, [r4, #0]
 184 0026 A042     		cmp	r0, r4
 185 0028 F6D1     		bne	.L11
 186              	.LVL11:
 187              	.L7:
 188 002a 38BD     		pop	{r3, r4, r5, pc}
 189              		.cfi_endproc
 190              	.LFE9:
 191              		.size	chIQResetI, .-chIQResetI
 192 002c AFF30080 		.section	.text.chIQPutI,"ax",%progbits
 193              		.align	2
 194              		.p2align 4,,15
 195              		.global	chIQPutI
 196              		.thumb
 197              		.thumb_func
 198              		.type	chIQPutI, %function
 199              	chIQPutI:
 200              	.LFB10:
 201              		.loc 1 139 0
 202              		.cfi_startproc
 203              		@ args = 0, pretend = 0, frame = 0
 204              		@ frame_needed = 0, uses_anonymous_args = 0
 205              	.LVL12:
 206              		.loc 1 143 0
 207 0000 4269     		ldr	r2, [r0, #20]
 208              		.loc 1 139 0
 209 0002 08B5     		push	{r3, lr}
 210              	.LCFI3:
 211              		.cfi_def_cfa_offset 8
 212              		.cfi_offset 3, -8
 213              		.cfi_offset 14, -4
 214              		.loc 1 139 0
 215 0004 0346     		mov	r3, r0
 216              		.loc 1 143 0
 217 0006 8069     		ldr	r0, [r0, #24]
 218              	.LVL13:
 219 0008 8242     		cmp	r2, r0
 220 000a 9868     		ldr	r0, [r3, #8]
 221 000c 18D0     		beq	.L14
 222              	.L15:
 223              		.loc 1 146 0
 224 000e 0130     		adds	r0, r0, #1
 225 0010 9860     		str	r0, [r3, #8]
 226              		.loc 1 147 0
 227 0012 02F8011B 		strb	r1, [r2], #1
 228              		.loc 1 148 0
ARM GAS  /tmp/ccsDLGGk.s 			page 5


 229 0016 1969     		ldr	r1, [r3, #16]
 230              	.LVL14:
 231              		.loc 1 147 0
 232 0018 5A61     		str	r2, [r3, #20]
 233              		.loc 1 148 0
 234 001a 8A42     		cmp	r2, r1
 235              		.loc 1 149 0
 236 001c 28BF     		it	cs
 237 001e DA68     		ldrcs	r2, [r3, #12]
 238              		.loc 1 151 0
 239 0020 1868     		ldr	r0, [r3, #0]
 240              		.loc 1 149 0
 241 0022 28BF     		it	cs
 242 0024 5A61     		strcs	r2, [r3, #20]
 243              		.loc 1 151 0
 244 0026 9842     		cmp	r0, r3
 245 0028 08D0     		beq	.L19
 246              	.LVL15:
 247              	.LBB18:
 248              	.LBB19:
 249              		.loc 2 62 0
 250 002a 0268     		ldr	r2, [r0, #0]
 251 002c 1A60     		str	r2, [r3, #0]
 252 002e 5360     		str	r3, [r2, #4]
 253              	.LBE19:
 254              	.LBE18:
 255              		.loc 1 152 0
 256 0030 FFF7FEFF 		bl	chSchReadyI
 257              	.LVL16:
 258 0034 0023     		movs	r3, #0
 259 0036 4362     		str	r3, [r0, #36]
 260              		.loc 1 154 0
 261 0038 1846     		mov	r0, r3
 262 003a 08BD     		pop	{r3, pc}
 263              	.LVL17:
 264              	.L19:
 265 003c 0020     		movs	r0, #0
 266              		.loc 1 155 0
 267 003e 08BD     		pop	{r3, pc}
 268              	.LVL18:
 269              	.L14:
 270              		.loc 1 143 0 discriminator 1
 271 0040 0028     		cmp	r0, #0
 272 0042 E4D0     		beq	.L15
 273              		.loc 1 144 0
 274 0044 6FF00300 		mvn	r0, #3
 275 0048 08BD     		pop	{r3, pc}
 276              		.cfi_endproc
 277              	.LFE10:
 278              		.size	chIQPutI, .-chIQPutI
 279 004a 00BFAFF3 		.section	.text.chIQGetTimeout,"ax",%progbits
 279      0080
 280              		.align	2
 281              		.p2align 4,,15
 282              		.global	chIQGetTimeout
 283              		.thumb
 284              		.thumb_func
ARM GAS  /tmp/ccsDLGGk.s 			page 6


 285              		.type	chIQGetTimeout, %function
 286              	chIQGetTimeout:
 287              	.LFB11:
 288              		.loc 1 177 0
 289              		.cfi_startproc
 290              		@ args = 0, pretend = 0, frame = 0
 291              		@ frame_needed = 0, uses_anonymous_args = 0
 292              	.LVL19:
 293 0000 70B5     		push	{r4, r5, r6, lr}
 294              	.LCFI4:
 295              		.cfi_def_cfa_offset 16
 296              		.cfi_offset 4, -16
 297              		.cfi_offset 5, -12
 298              		.cfi_offset 6, -8
 299              		.cfi_offset 14, -4
 300              	.LBB20:
 301              		.loc 1 180 0
 302 0002 2023     		movs	r3, #32
 303              	.LVL20:
 304              	.LBE20:
 305              		.loc 1 177 0
 306 0004 0446     		mov	r4, r0
 307 0006 0E46     		mov	r6, r1
 308              	.LBB21:
 309              		.loc 1 180 0
 310              	@ 180 "../../ChibiOS_2.4.3/os/kernel/src/chqueues.c" 1
 311 0008 83F31188 		msr     BASEPRI, r3
 312              	@ 0 "" 2
 313              	.LVL21:
 314              		.thumb
 315              	.LBE21:
 316              		.loc 1 181 0
 317 000c C369     		ldr	r3, [r0, #28]
 318              	.LVL22:
 319 000e 03B1     		cbz	r3, .L28
 320              		.loc 1 182 0
 321 0010 9847     		blx	r3
 322              	.LVL23:
 323              	.L28:
 324              		.loc 1 184 0 discriminator 1
 325 0012 A568     		ldr	r5, [r4, #8]
 326              	.LBB22:
 327              		.loc 1 186 0 discriminator 1
 328 0014 2046     		mov	r0, r4
 329 0016 3146     		mov	r1, r6
 330              	.LBE22:
 331              		.loc 1 184 0 discriminator 1
 332 0018 3DB9     		cbnz	r5, .L31
 333              	.LVL24:
 334              	.LBB24:
 335              		.loc 1 186 0
 336 001a FFF7FEFF 		bl	qwait
 337              	.LVL25:
 338 001e 0028     		cmp	r0, #0
 339 0020 F7DA     		bge	.L28
 340              	.LBB23:
 341              		.loc 1 187 0
ARM GAS  /tmp/ccsDLGGk.s 			page 7


 342 0022 2B46     		mov	r3, r5
 343              	.LVL26:
 344              	@ 187 "../../ChibiOS_2.4.3/os/kernel/src/chqueues.c" 1
 345 0024 83F31188 		msr     BASEPRI, r3
 346              	@ 0 "" 2
 347              	.LVL27:
 348              		.thumb
 349              	.LBE23:
 350              		.loc 1 188 0
 351 0028 70BD     		pop	{r4, r5, r6, pc}
 352              	.LVL28:
 353              	.L31:
 354              	.LBE24:
 355              		.loc 1 193 0
 356 002a A169     		ldr	r1, [r4, #24]
 357              	.LVL29:
 358              		.loc 1 194 0
 359 002c 2269     		ldr	r2, [r4, #16]
 360              		.loc 1 192 0
 361 002e 013D     		subs	r5, r5, #1
 362 0030 A560     		str	r5, [r4, #8]
 363              		.loc 1 193 0
 364 0032 11F8010B 		ldrb	r0, [r1], #1	@ zero_extendqisi2
 365              	.LVL30:
 366              		.loc 1 194 0
 367 0036 9142     		cmp	r1, r2
 368              		.loc 1 193 0
 369 0038 A161     		str	r1, [r4, #24]
 370              		.loc 1 195 0
 371 003a 24BF     		itt	cs
 372 003c E168     		ldrcs	r1, [r4, #12]
 373 003e A161     		strcs	r1, [r4, #24]
 374              	.LBB25:
 375              		.loc 1 197 0
 376 0040 0023     		movs	r3, #0
 377              	.LVL31:
 378              	@ 197 "../../ChibiOS_2.4.3/os/kernel/src/chqueues.c" 1
 379 0042 83F31188 		msr     BASEPRI, r3
 380              	@ 0 "" 2
 381              	.LVL32:
 382              		.thumb
 383              	.LBE25:
 384              		.loc 1 199 0
 385 0046 70BD     		pop	{r4, r5, r6, pc}
 386              		.cfi_endproc
 387              	.LFE11:
 388              		.size	chIQGetTimeout, .-chIQGetTimeout
 389 0048 AFF30080 		.section	.text.chIQReadTimeout,"ax",%progbits
 389      AFF30080 
 390              		.align	2
 391              		.p2align 4,,15
 392              		.global	chIQReadTimeout
 393              		.thumb
 394              		.thumb_func
 395              		.type	chIQReadTimeout, %function
 396              	chIQReadTimeout:
 397              	.LFB12:
ARM GAS  /tmp/ccsDLGGk.s 			page 8


 398              		.loc 1 226 0
 399              		.cfi_startproc
 400              		@ args = 0, pretend = 0, frame = 0
 401              		@ frame_needed = 0, uses_anonymous_args = 0
 402              	.LVL33:
 403 0000 2DE9F047 		push	{r4, r5, r6, r7, r8, r9, sl, lr}
 404              	.LCFI5:
 405              		.cfi_def_cfa_offset 32
 406              		.cfi_offset 4, -32
 407              		.cfi_offset 5, -28
 408              		.cfi_offset 6, -24
 409              		.cfi_offset 7, -20
 410              		.cfi_offset 8, -16
 411              		.cfi_offset 9, -12
 412              		.cfi_offset 10, -8
 413              		.cfi_offset 14, -4
 414              		.loc 1 226 0
 415 0004 1E46     		mov	r6, r3
 416 0006 0446     		mov	r4, r0
 417              		.loc 1 227 0
 418 0008 C769     		ldr	r7, [r0, #28]
 419              	.LVL34:
 420              	.LBB26:
 421              		.loc 1 232 0
 422 000a 2023     		movs	r3, #32
 423              	.LVL35:
 424              	@ 232 "../../ChibiOS_2.4.3/os/kernel/src/chqueues.c" 1
 425 000c 83F31188 		msr     BASEPRI, r3
 426              	@ 0 "" 2
 427              	.LVL36:
 428              		.thumb
 429              	.LBE26:
 430              		.loc 1 228 0
 431 0010 4FF00008 		mov	r8, #0
 432              	.LBB27:
 433              		.loc 1 225 0
 434 0014 01F10109 		add	r9, r1, #1
 435 0018 01EB020A 		add	sl, r1, r2
 436              	.LVL37:
 437              	.L38:
 438              	.LBE27:
 439              		.loc 1 234 0
 440 001c 0FB1     		cbz	r7, .L43
 441              		.loc 1 235 0
 442 001e 2046     		mov	r0, r4
 443 0020 B847     		blx	r7
 444              	.LVL38:
 445              	.L43:
 446              		.loc 1 237 0 discriminator 1
 447 0022 A568     		ldr	r5, [r4, #8]
 448              		.loc 1 238 0 discriminator 1
 449 0024 2046     		mov	r0, r4
 450 0026 3146     		mov	r1, r6
 451              		.loc 1 237 0 discriminator 1
 452 0028 4DB9     		cbnz	r5, .L47
 453              	.LVL39:
 454              		.loc 1 238 0
ARM GAS  /tmp/ccsDLGGk.s 			page 9


 455 002a FFF7FEFF 		bl	qwait
 456              	.LVL40:
 457 002e 0028     		cmp	r0, #0
 458 0030 F7D0     		beq	.L43
 459              	.LBB28:
 460              		.loc 1 239 0
 461 0032 2B46     		mov	r3, r5
 462              	.LVL41:
 463              	@ 239 "../../ChibiOS_2.4.3/os/kernel/src/chqueues.c" 1
 464 0034 83F31188 		msr     BASEPRI, r3
 465              	@ 0 "" 2
 466              	.LVL42:
 467              		.thumb
 468              	.L35:
 469              	.LBE28:
 470              		.loc 1 256 0
 471 0038 4046     		mov	r0, r8
 472 003a BDE8F087 		pop	{r4, r5, r6, r7, r8, r9, sl, pc}
 473              	.LVL43:
 474              	.L47:
 475              		.loc 1 245 0
 476 003e A369     		ldr	r3, [r4, #24]
 477              	.LVL44:
 478              		.loc 1 244 0
 479 0040 013D     		subs	r5, r5, #1
 480 0042 A560     		str	r5, [r4, #8]
 481              		.loc 1 245 0
 482 0044 13F8012B 		ldrb	r2, [r3], #1	@ zero_extendqisi2
 483 0048 09F8012C 		strb	r2, [r9, #-1]
 484              		.loc 1 246 0
 485 004c 2069     		ldr	r0, [r4, #16]
 486              	.LVL45:
 487              		.loc 1 245 0
 488 004e A361     		str	r3, [r4, #24]
 489              		.loc 1 246 0
 490 0050 8342     		cmp	r3, r0
 491              		.loc 1 247 0
 492 0052 24BF     		itt	cs
 493 0054 E368     		ldrcs	r3, [r4, #12]
 494 0056 A361     		strcs	r3, [r4, #24]
 495              	.LBB29:
 496              		.loc 1 249 0
 497 0058 0023     		movs	r3, #0
 498              	@ 249 "../../ChibiOS_2.4.3/os/kernel/src/chqueues.c" 1
 499 005a 83F31188 		msr     BASEPRI, r3
 500              	@ 0 "" 2
 501              	.LVL46:
 502              		.thumb
 503              	.LBE29:
 504              		.loc 1 251 0
 505 005e D145     		cmp	r9, sl
 506              		.loc 1 250 0
 507 0060 08F10108 		add	r8, r8, #1
 508              	.LVL47:
 509              		.loc 1 251 0
 510 0064 E8D0     		beq	.L35
 511              	.LBB30:
ARM GAS  /tmp/ccsDLGGk.s 			page 10


 512              		.loc 1 254 0
 513 0066 2023     		movs	r3, #32
 514              	.LVL48:
 515              	@ 254 "../../ChibiOS_2.4.3/os/kernel/src/chqueues.c" 1
 516 0068 83F31188 		msr     BASEPRI, r3
 517              	@ 0 "" 2
 518              	.LVL49:
 519              		.thumb
 520 006c 09F10109 		add	r9, r9, #1
 521              	.LBE30:
 522              		.loc 1 255 0
 523 0070 D4E7     		b	.L38
 524              		.cfi_endproc
 525              	.LFE12:
 526              		.size	chIQReadTimeout, .-chIQReadTimeout
 527 0072 00BFAFF3 		.section	.text.chOQInit,"ax",%progbits
 527      0080AFF3 
 527      0080AFF3 
 527      0080
 528              		.align	2
 529              		.p2align 4,,15
 530              		.global	chOQInit
 531              		.thumb
 532              		.thumb_func
 533              		.type	chOQInit, %function
 534              	chOQInit:
 535              	.LFB13:
 536              		.loc 1 273 0
 537              		.cfi_startproc
 538              		@ args = 0, pretend = 0, frame = 0
 539              		@ frame_needed = 0, uses_anonymous_args = 0
 540              		@ link register save eliminated.
 541              	.LVL50:
 542 0000 10B4     		push	{r4}
 543              	.LCFI6:
 544              		.cfi_def_cfa_offset 4
 545              		.cfi_offset 4, -4
 546              		.loc 1 278 0
 547 0002 8C18     		adds	r4, r1, r2
 548              		.loc 1 275 0
 549 0004 4060     		str	r0, [r0, #4]
 550 0006 0060     		str	r0, [r0, #0]
 551              		.loc 1 276 0
 552 0008 8260     		str	r2, [r0, #8]
 553              		.loc 1 277 0
 554 000a 4161     		str	r1, [r0, #20]
 555 000c 8161     		str	r1, [r0, #24]
 556 000e C160     		str	r1, [r0, #12]
 557              		.loc 1 278 0
 558 0010 0461     		str	r4, [r0, #16]
 559              		.loc 1 279 0
 560 0012 C361     		str	r3, [r0, #28]
 561              		.loc 1 280 0
 562 0014 10BC     		pop	{r4}
 563 0016 7047     		bx	lr
 564              		.cfi_endproc
 565              	.LFE13:
ARM GAS  /tmp/ccsDLGGk.s 			page 11


 566              		.size	chOQInit, .-chOQInit
 567 0018 AFF30080 		.section	.text.chOQResetI,"ax",%progbits
 567      AFF30080 
 568              		.align	2
 569              		.p2align 4,,15
 570              		.global	chOQResetI
 571              		.thumb
 572              		.thumb_func
 573              		.type	chOQResetI, %function
 574              	chOQResetI:
 575              	.LFB14:
 576              		.loc 1 293 0
 577              		.cfi_startproc
 578              		@ args = 0, pretend = 0, frame = 0
 579              		@ frame_needed = 0, uses_anonymous_args = 0
 580              	.LVL51:
 581 0000 38B5     		push	{r3, r4, r5, lr}
 582              	.LCFI7:
 583              		.cfi_def_cfa_offset 16
 584              		.cfi_offset 3, -16
 585              		.cfi_offset 4, -12
 586              		.cfi_offset 5, -8
 587              		.cfi_offset 14, -4
 588              		.loc 1 298 0
 589 0002 0269     		ldr	r2, [r0, #16]
 590              		.loc 1 297 0
 591 0004 C368     		ldr	r3, [r0, #12]
 592              		.loc 1 293 0
 593 0006 0446     		mov	r4, r0
 594              		.loc 1 299 0
 595 0008 0068     		ldr	r0, [r0, #0]
 596              	.LVL52:
 597              		.loc 1 297 0
 598 000a 6361     		str	r3, [r4, #20]
 599              		.loc 1 298 0
 600 000c D11A     		subs	r1, r2, r3
 601              		.loc 1 299 0
 602 000e A042     		cmp	r0, r4
 603              		.loc 1 297 0
 604 0010 A361     		str	r3, [r4, #24]
 605              		.loc 1 298 0
 606 0012 A160     		str	r1, [r4, #8]
 607              		.loc 1 299 0
 608 0014 0AD0     		beq	.L49
 609              		.loc 1 300 0
 610 0016 6FF00105 		mvn	r5, #1
 611              	.L53:
 612              	.LVL53:
 613              	.LBB31:
 614              	.LBB32:
 615              		.loc 2 62 0
 616 001a 0368     		ldr	r3, [r0, #0]
 617 001c 2360     		str	r3, [r4, #0]
 618 001e 5C60     		str	r4, [r3, #4]
 619              	.LBE32:
 620              	.LBE31:
 621              		.loc 1 300 0
ARM GAS  /tmp/ccsDLGGk.s 			page 12


 622 0020 FFF7FEFF 		bl	chSchReadyI
 623              	.LVL54:
 624 0024 4562     		str	r5, [r0, #36]
 625              		.loc 1 299 0
 626 0026 2068     		ldr	r0, [r4, #0]
 627 0028 A042     		cmp	r0, r4
 628 002a F6D1     		bne	.L53
 629              	.LVL55:
 630              	.L49:
 631 002c 38BD     		pop	{r3, r4, r5, pc}
 632              		.cfi_endproc
 633              	.LFE14:
 634              		.size	chOQResetI, .-chOQResetI
 635 002e 00BF     		.section	.text.chOQPutTimeout,"ax",%progbits
 636              		.align	2
 637              		.p2align 4,,15
 638              		.global	chOQPutTimeout
 639              		.thumb
 640              		.thumb_func
 641              		.type	chOQPutTimeout, %function
 642              	chOQPutTimeout:
 643              	.LFB15:
 644              		.loc 1 325 0
 645              		.cfi_startproc
 646              		@ args = 0, pretend = 0, frame = 0
 647              		@ frame_needed = 0, uses_anonymous_args = 0
 648              	.LVL56:
 649 0000 F8B5     		push	{r3, r4, r5, r6, r7, lr}
 650              	.LCFI8:
 651              		.cfi_def_cfa_offset 24
 652              		.cfi_offset 3, -24
 653              		.cfi_offset 4, -20
 654              		.cfi_offset 5, -16
 655              		.cfi_offset 6, -12
 656              		.cfi_offset 7, -8
 657              		.cfi_offset 14, -4
 658              		.loc 1 325 0
 659 0002 0446     		mov	r4, r0
 660 0004 0F46     		mov	r7, r1
 661 0006 1646     		mov	r6, r2
 662              	.LBB33:
 663              		.loc 1 327 0
 664 0008 2023     		movs	r3, #32
 665              	.LVL57:
 666              	@ 327 "../../ChibiOS_2.4.3/os/kernel/src/chqueues.c" 1
 667 000a 83F31188 		msr     BASEPRI, r3
 668              	@ 0 "" 2
 669              	.LVL58:
 670              		.thumb
 671              	.L56:
 672              	.LBE33:
 673              		.loc 1 328 0 discriminator 1
 674 000e A568     		ldr	r5, [r4, #8]
 675              	.LBB34:
 676              		.loc 1 331 0 discriminator 1
 677 0010 2046     		mov	r0, r4
 678 0012 3146     		mov	r1, r6
ARM GAS  /tmp/ccsDLGGk.s 			page 13


 679              	.LBE34:
 680              		.loc 1 328 0 discriminator 1
 681 0014 3DB9     		cbnz	r5, .L65
 682              	.LVL59:
 683              	.LBB36:
 684              		.loc 1 331 0
 685 0016 FFF7FEFF 		bl	qwait
 686              	.LVL60:
 687 001a 0028     		cmp	r0, #0
 688 001c F7DA     		bge	.L56
 689              	.LBB35:
 690              		.loc 1 332 0
 691 001e 2B46     		mov	r3, r5
 692              	.LVL61:
 693              	@ 332 "../../ChibiOS_2.4.3/os/kernel/src/chqueues.c" 1
 694 0020 83F31188 		msr     BASEPRI, r3
 695              	@ 0 "" 2
 696              	.LVL62:
 697              		.thumb
 698              	.LBE35:
 699              		.loc 1 333 0
 700 0024 F8BD     		pop	{r3, r4, r5, r6, r7, pc}
 701              	.LVL63:
 702              	.L65:
 703              	.LBE36:
 704              		.loc 1 338 0
 705 0026 6369     		ldr	r3, [r4, #20]
 706              	.LVL64:
 707              		.loc 1 337 0
 708 0028 013D     		subs	r5, r5, #1
 709 002a A560     		str	r5, [r4, #8]
 710              		.loc 1 338 0
 711 002c 03F8017B 		strb	r7, [r3], #1
 712              		.loc 1 339 0
 713 0030 2269     		ldr	r2, [r4, #16]
 714              		.loc 1 338 0
 715 0032 6361     		str	r3, [r4, #20]
 716              		.loc 1 339 0
 717 0034 9342     		cmp	r3, r2
 718              		.loc 1 340 0
 719 0036 28BF     		it	cs
 720 0038 E368     		ldrcs	r3, [r4, #12]
 721              		.loc 1 342 0
 722 003a E169     		ldr	r1, [r4, #28]
 723              	.LVL65:
 724              		.loc 1 340 0
 725 003c 28BF     		it	cs
 726 003e 6361     		strcs	r3, [r4, #20]
 727              		.loc 1 342 0
 728 0040 09B1     		cbz	r1, .L60
 729              		.loc 1 343 0
 730 0042 2046     		mov	r0, r4
 731              	.LVL66:
 732 0044 8847     		blx	r1
 733              	.LVL67:
 734              	.L60:
 735              	.LBB37:
ARM GAS  /tmp/ccsDLGGk.s 			page 14


 736              		.loc 1 345 0
 737 0046 0023     		movs	r3, #0
 738              	.LVL68:
 739              	@ 345 "../../ChibiOS_2.4.3/os/kernel/src/chqueues.c" 1
 740 0048 83F31188 		msr     BASEPRI, r3
 741              	@ 0 "" 2
 742              	.LVL69:
 743              		.thumb
 744              	.LBE37:
 745              		.loc 1 346 0
 746 004c 1846     		mov	r0, r3
 747              		.loc 1 347 0
 748 004e F8BD     		pop	{r3, r4, r5, r6, r7, pc}
 749              		.cfi_endproc
 750              	.LFE15:
 751              		.size	chOQPutTimeout, .-chOQPutTimeout
 752              		.section	.text.chOQGetI,"ax",%progbits
 753              		.align	2
 754              		.p2align 4,,15
 755              		.global	chOQGetI
 756              		.thumb
 757              		.thumb_func
 758              		.type	chOQGetI, %function
 759              	chOQGetI:
 760              	.LFB16:
 761              		.loc 1 359 0
 762              		.cfi_startproc
 763              		@ args = 0, pretend = 0, frame = 0
 764              		@ frame_needed = 0, uses_anonymous_args = 0
 765              	.LVL70:
 766              		.loc 1 364 0
 767 0000 8269     		ldr	r2, [r0, #24]
 768 0002 4169     		ldr	r1, [r0, #20]
 769 0004 9142     		cmp	r1, r2
 770              		.loc 1 359 0
 771 0006 0346     		mov	r3, r0
 772 0008 10B5     		push	{r4, lr}
 773              	.LCFI9:
 774              		.cfi_def_cfa_offset 8
 775              		.cfi_offset 4, -8
 776              		.cfi_offset 14, -4
 777              		.loc 1 364 0
 778 000a 8068     		ldr	r0, [r0, #8]
 779              	.LVL71:
 780 000c 16D0     		beq	.L67
 781              	.L68:
 782              		.loc 1 367 0
 783 000e 441C     		adds	r4, r0, #1
 784 0010 9C60     		str	r4, [r3, #8]
 785              		.loc 1 368 0
 786 0012 12F8014B 		ldrb	r4, [r2], #1	@ zero_extendqisi2
 787              	.LVL72:
 788              		.loc 1 369 0
 789 0016 1969     		ldr	r1, [r3, #16]
 790              		.loc 1 368 0
 791 0018 9A61     		str	r2, [r3, #24]
 792              		.loc 1 369 0
ARM GAS  /tmp/ccsDLGGk.s 			page 15


 793 001a 8A42     		cmp	r2, r1
 794              		.loc 1 370 0
 795 001c 28BF     		it	cs
 796 001e DA68     		ldrcs	r2, [r3, #12]
 797              		.loc 1 372 0
 798 0020 1868     		ldr	r0, [r3, #0]
 799              		.loc 1 370 0
 800 0022 28BF     		it	cs
 801 0024 9A61     		strcs	r2, [r3, #24]
 802              		.loc 1 372 0
 803 0026 9842     		cmp	r0, r3
 804 0028 06D0     		beq	.L71
 805              	.LVL73:
 806              	.LBB38:
 807              	.LBB39:
 808              		.loc 2 62 0
 809 002a 0268     		ldr	r2, [r0, #0]
 810 002c 1A60     		str	r2, [r3, #0]
 811 002e 5360     		str	r3, [r2, #4]
 812              	.LBE39:
 813              	.LBE38:
 814              		.loc 1 373 0
 815 0030 FFF7FEFF 		bl	chSchReadyI
 816              	.LVL74:
 817 0034 0023     		movs	r3, #0
 818 0036 4362     		str	r3, [r0, #36]
 819              	.LVL75:
 820              	.L71:
 821              		.loc 1 375 0
 822 0038 2046     		mov	r0, r4
 823 003a 10BD     		pop	{r4, pc}
 824              	.LVL76:
 825              	.L67:
 826              		.loc 1 364 0 discriminator 1
 827 003c 0028     		cmp	r0, #0
 828 003e E6D0     		beq	.L68
 829              		.loc 1 365 0
 830 0040 6FF00200 		mvn	r0, #2
 831              		.loc 1 376 0
 832 0044 10BD     		pop	{r4, pc}
 833              		.cfi_endproc
 834              	.LFE16:
 835              		.size	chOQGetI, .-chOQGetI
 836 0046 00BFAFF3 		.section	.text.chOQWriteTimeout,"ax",%progbits
 836      0080AFF3 
 836      0080
 837              		.align	2
 838              		.p2align 4,,15
 839              		.global	chOQWriteTimeout
 840              		.thumb
 841              		.thumb_func
 842              		.type	chOQWriteTimeout, %function
 843              	chOQWriteTimeout:
 844              	.LFB17:
 845              		.loc 1 403 0
 846              		.cfi_startproc
 847              		@ args = 0, pretend = 0, frame = 0
ARM GAS  /tmp/ccsDLGGk.s 			page 16


 848              		@ frame_needed = 0, uses_anonymous_args = 0
 849              	.LVL77:
 850 0000 2DE9F047 		push	{r4, r5, r6, r7, r8, r9, sl, lr}
 851              	.LCFI10:
 852              		.cfi_def_cfa_offset 32
 853              		.cfi_offset 4, -32
 854              		.cfi_offset 5, -28
 855              		.cfi_offset 6, -24
 856              		.cfi_offset 7, -20
 857              		.cfi_offset 8, -16
 858              		.cfi_offset 9, -12
 859              		.cfi_offset 10, -8
 860              		.cfi_offset 14, -4
 861              		.loc 1 403 0
 862 0004 9A46     		mov	sl, r3
 863 0006 0446     		mov	r4, r0
 864 0008 8846     		mov	r8, r1
 865 000a 1646     		mov	r6, r2
 866              		.loc 1 404 0
 867 000c D0F81C90 		ldr	r9, [r0, #28]
 868              	.LVL78:
 869              	.LBB40:
 870              		.loc 1 409 0
 871 0010 2023     		movs	r3, #32
 872              	.LVL79:
 873              	@ 409 "../../ChibiOS_2.4.3/os/kernel/src/chqueues.c" 1
 874 0012 83F31188 		msr     BASEPRI, r3
 875              	@ 0 "" 2
 876              	.LVL80:
 877              		.loc 1 405 0
 878              		.thumb
 879 0016 0027     		movs	r7, #0
 880              	.LVL81:
 881              	.L91:
 882              	.LBE40:
 883              		.loc 1 411 0 discriminator 1
 884 0018 A568     		ldr	r5, [r4, #8]
 885              		.loc 1 423 0 discriminator 1
 886 001a 2046     		mov	r0, r4
 887              		.loc 1 417 0 discriminator 1
 888 001c 6B1E     		subs	r3, r5, #1
 889              	.LVL82:
 890              		.loc 1 411 0 discriminator 1
 891 001e EDB1     		cbz	r5, .L77
 892              	.LVL83:
 893              	.L92:
 894              		.loc 1 417 0
 895 0020 A360     		str	r3, [r4, #8]
 896              		.loc 1 418 0
 897 0022 6569     		ldr	r5, [r4, #20]
 898 0024 18F8011B 		ldrb	r1, [r8], #1	@ zero_extendqisi2
 899              	.LVL84:
 900 0028 05F8011B 		strb	r1, [r5], #1
 901              		.loc 1 419 0
 902 002c 2269     		ldr	r2, [r4, #16]
 903              		.loc 1 418 0
 904 002e 6561     		str	r5, [r4, #20]
ARM GAS  /tmp/ccsDLGGk.s 			page 17


 905              	.LVL85:
 906              		.loc 1 419 0
 907 0030 9542     		cmp	r5, r2
 908              		.loc 1 420 0
 909 0032 24BF     		itt	cs
 910 0034 E268     		ldrcs	r2, [r4, #12]
 911 0036 6261     		strcs	r2, [r4, #20]
 912              		.loc 1 422 0
 913 0038 B9F1000F 		cmp	r9, #0
 914 003c 00D0     		beq	.L79
 915              		.loc 1 423 0
 916 003e C847     		blx	r9
 917              	.LVL86:
 918              	.L79:
 919              	.LBB41:
 920              		.loc 1 425 0
 921 0040 0023     		movs	r3, #0
 922              	.LVL87:
 923              	@ 425 "../../ChibiOS_2.4.3/os/kernel/src/chqueues.c" 1
 924 0042 83F31188 		msr     BASEPRI, r3
 925              	@ 0 "" 2
 926              	.LVL88:
 927              		.thumb
 928              	.LBE41:
 929              		.loc 1 426 0
 930 0046 0137     		adds	r7, r7, #1
 931              	.LVL89:
 932              		.loc 1 427 0
 933 0048 013E     		subs	r6, r6, #1
 934              	.LVL90:
 935 004a 10D0     		beq	.L76
 936              	.LBB42:
 937              		.loc 1 429 0
 938 004c 2023     		movs	r3, #32
 939              	.LVL91:
 940              	@ 429 "../../ChibiOS_2.4.3/os/kernel/src/chqueues.c" 1
 941 004e 83F31188 		msr     BASEPRI, r3
 942              	@ 0 "" 2
 943              	.LVL92:
 944              		.thumb
 945              	.LBE42:
 946              		.loc 1 411 0
 947 0052 A568     		ldr	r5, [r4, #8]
 948              		.loc 1 423 0
 949 0054 2046     		mov	r0, r4
 950              		.loc 1 417 0
 951 0056 6B1E     		subs	r3, r5, #1
 952              	.LVL93:
 953              		.loc 1 411 0
 954 0058 002D     		cmp	r5, #0
 955 005a E1D1     		bne	.L92
 956              	.LVL94:
 957              	.L77:
 958              		.loc 1 412 0
 959 005c 2046     		mov	r0, r4
 960              	.LVL95:
 961 005e 5146     		mov	r1, sl
ARM GAS  /tmp/ccsDLGGk.s 			page 18


 962 0060 FFF7FEFF 		bl	qwait
 963              	.LVL96:
 964 0064 0028     		cmp	r0, #0
 965 0066 D7D0     		beq	.L91
 966              	.LBB43:
 967              		.loc 1 413 0
 968 0068 2B46     		mov	r3, r5
 969              	.LVL97:
 970              	@ 413 "../../ChibiOS_2.4.3/os/kernel/src/chqueues.c" 1
 971 006a 83F31188 		msr     BASEPRI, r3
 972              	@ 0 "" 2
 973              	.LVL98:
 974              		.thumb
 975              	.L76:
 976              	.LBE43:
 977              		.loc 1 431 0
 978 006e 3846     		mov	r0, r7
 979 0070 BDE8F087 		pop	{r4, r5, r6, r7, r8, r9, sl, pc}
 980              		.cfi_endproc
 981              	.LFE17:
 982              		.size	chOQWriteTimeout, .-chOQWriteTimeout
 983 0074 AFF30080 		.text
 983      AFF30080 
 983      AFF30080 
 984              	.Letext0:
 985              		.file 3 "/opt/ARM/bin/../lib/gcc/arm-none-eabi/4.7.3/include/stddef.h"
 986              		.file 4 "/opt/ARM/bin/../lib/gcc/arm-none-eabi/4.7.3/../../../../arm-none-eabi/include/stdint.h"
 987              		.file 5 "../../ChibiOS_2.4.3/os/ports/GCC/ARMCMx/chtypes.h"
 988              		.file 6 "../../ChibiOS_2.4.3/os/kernel/include/chlists.h"
 989              		.file 7 "../../ChibiOS_2.4.3/os/kernel/include/chthreads.h"
 990              		.file 8 "../../ChibiOS_2.4.3/os/ports/GCC/ARMCMx/chcore_v7m.h"
 991              		.file 9 "../../ChibiOS_2.4.3/os/kernel/include/chschd.h"
 992              		.file 10 "../../ChibiOS_2.4.3/os/kernel/include/chmtx.h"
 993              		.file 11 "../../ChibiOS_2.4.3/os/kernel/include/chqueues.h"