ARM GAS  /tmp/ccsDLGGk.s 			page 1


   1              		.syntax unified
   2              		.cpu cortex-m4
   3              		.fpu softvfp
   4              		.eabi_attribute 20, 1
   5              		.eabi_attribute 21, 1
   6              		.eabi_attribute 23, 3
   7              		.eabi_attribute 24, 1
   8              		.eabi_attribute 25, 1
   9              		.eabi_attribute 26, 1
  10              		.eabi_attribute 30, 2
  11              		.eabi_attribute 34, 1
  12              		.eabi_attribute 18, 4
  13              		.thumb
  14              		.file	"chqueues.c"
  15              		.text
  16              	.Ltext0:
  17              		.cfi_sections	.debug_frame
  18              		.section	.text.qwait,"ax",%progbits
  19              		.align	2
  20              		.p2align 4,,15
  21              		.thumb
  22              		.thumb_func
  23              		.type	qwait, %function
  24              	qwait:
  25              	.LFB7:
  26              		.file 1 "../../ChibiOS_2.4.3/os/kernel/src/chqueues.c"
  27              		.loc 1 72 0
  28              		.cfi_startproc
  29              		@ args = 0, pretend = 0, frame = 0
  30              		@ frame_needed = 0, uses_anonymous_args = 0
  31              		@ link register save eliminated.
  32              	.LVL0:
  33 0000 10B4     		push	{r4}
  34              	.LCFI0:
  35              		.cfi_def_cfa_offset 4
  36              		.cfi_offset 4, -4
  37              		.loc 1 72 0
  38 0002 0246     		mov	r2, r0
  39              		.loc 1 74 0
  40 0004 59B1     		cbz	r1, .L2
  41              		.loc 1 76 0
  42 0006 084B     		ldr	r3, .L4
  43 0008 DB69     		ldr	r3, [r3, #28]
  44 000a 5862     		str	r0, [r3, #36]
  45              	.LVL1:
  46              	.LBB12:
  47              	.LBB13:
  48              		.file 2 "../../ChibiOS_2.4.3/os/kernel/include/chinline.h"
  49              		.loc 2 55 0
  50 000c 4468     		ldr	r4, [r0, #4]
  51              	.LBE13:
  52              	.LBE12:
  53              		.loc 1 78 0
  54 000e 0D20     		movs	r0, #13
  55              	.LVL2:
  56              	.LBB15:
  57              	.LBB14:
ARM GAS  /tmp/ccsDLGGk.s 			page 2


  58              		.loc 2 55 0
  59 0010 83E81400 		stmia	r3, {r2, r4}
  60              		.loc 2 56 0
  61 0014 5360     		str	r3, [r2, #4]
  62 0016 2360     		str	r3, [r4, #0]
  63              	.LBE14:
  64              	.LBE15:
  65              		.loc 1 79 0
  66 0018 10BC     		pop	{r4}
  67              		.loc 1 78 0
  68 001a FFF7FEBF 		b	chSchGoSleepTimeoutS
  69              	.LVL3:
  70              	.L2:
  71              		.loc 1 79 0
  72 001e 4FF0FF30 		mov	r0, #-1
  73              	.LVL4:
  74 0022 10BC     		pop	{r4}
  75 0024 7047     		bx	lr
  76              	.L5:
  77 0026 00BF     		.align	2
  78              	.L4:
  79 0028 00000000 		.word	rlist
  80              		.cfi_endproc
  81              	.LFE7:
  82              		.size	qwait, .-qwait
  83 002c AFF30080 		.section	.text.chIQInit,"ax",%progbits
  84              		.align	2
  85              		.p2align 4,,15
  86              		.global	chIQInit
  87              		.thumb
  88              		.thumb_func
  89              		.type	chIQInit, %function
  90              	chIQInit:
  91              	.LFB8:
  92              		.loc 1 96 0
  93              		.cfi_startproc
  94              		@ args = 0, pretend = 0, frame = 0
  95              		@ frame_needed = 0, uses_anonymous_args = 0
  96              		@ link register save eliminated.
  97              	.LVL5:
  98 0000 10B4     		push	{r4}
  99              	.LCFI1:
 100              		.cfi_def_cfa_offset 4
 101              		.cfi_offset 4, -4
 102              		.loc 1 101 0
 103 0002 8A18     		adds	r2, r1, r2
 104              	.LVL6:
 105              		.loc 1 99 0
 106 0004 0024     		movs	r4, #0
 107              		.loc 1 98 0
 108 0006 4060     		str	r0, [r0, #4]
 109 0008 0060     		str	r0, [r0, #0]
 110              		.loc 1 99 0
 111 000a 8460     		str	r4, [r0, #8]
 112              		.loc 1 100 0
 113 000c 4161     		str	r1, [r0, #20]
 114 000e 8161     		str	r1, [r0, #24]
ARM GAS  /tmp/ccsDLGGk.s 			page 3


 115 0010 C160     		str	r1, [r0, #12]
 116              		.loc 1 101 0
 117 0012 0261     		str	r2, [r0, #16]
 118              		.loc 1 102 0
 119 0014 C361     		str	r3, [r0, #28]
 120              		.loc 1 103 0
 121 0016 10BC     		pop	{r4}
 122 0018 7047     		bx	lr
 123              		.cfi_endproc
 124              	.LFE8:
 125              		.size	chIQInit, .-chIQInit
 126              		.section	.text.chIQResetI,"ax",%progbits
 127              		.align	2
 128              		.p2align 4,,15
 129              		.global	chIQResetI
 130              		.thumb
 131              		.thumb_func
 132              		.type	chIQResetI, %function
 133              	chIQResetI:
 134              	.LFB9:
 135              		.loc 1 116 0
 136              		.cfi_startproc
 137              		@ args = 0, pretend = 0, frame = 0
 138              		@ frame_needed = 0, uses_anonymous_args = 0
 139              	.LVL7:
 140 0000 38B5     		push	{r3, r4, r5, lr}
 141              	.LCFI2:
 142              		.cfi_def_cfa_offset 16
 143              		.cfi_offset 3, -16
 144              		.cfi_offset 4, -12
 145              		.cfi_offset 5, -8
 146              		.cfi_offset 14, -4
 147              		.loc 1 116 0
 148 0002 0446     		mov	r4, r0
 149              		.loc 1 120 0
 150 0004 C368     		ldr	r3, [r0, #12]
 151              		.loc 1 122 0
 152 0006 0068     		ldr	r0, [r0, #0]
 153              	.LVL8:
 154              		.loc 1 120 0
 155 0008 6361     		str	r3, [r4, #20]
 156              		.loc 1 121 0
 157 000a 0021     		movs	r1, #0
 158              		.loc 1 122 0
 159 000c A042     		cmp	r0, r4
 160              		.loc 1 120 0
 161 000e A361     		str	r3, [r4, #24]
 162              		.loc 1 121 0
 163 0010 A160     		str	r1, [r4, #8]
 164              		.loc 1 122 0
 165 0012 0AD0     		beq	.L7
 166              		.loc 1 123 0
 167 0014 6FF00105 		mvn	r5, #1
 168              	.L11:
 169              	.LVL9:
 170              	.LBB16:
 171              	.LBB17:
ARM GAS  /tmp/ccsDLGGk.s 			page 4


 172              		.loc 2 62 0
 173 0018 0268     		ldr	r2, [r0, #0]
 174 001a 2260     		str	r2, [r4, #0]
 175 001c 5460     		str	r4, [r2, #4]
 176              	.LBE17:
 177              	.LBE16:
 178              		.loc 1 123 0
 179 001e FFF7FEFF 		bl	chSchReadyI
 180              	.LVL10:
 181 0022 4562     		str	r5, [r0, #36]
 182              		.loc 1 122 0
 183 0024 2068     		ldr	r0, [r4, #0]
 184 0026 A042     		cmp	r0, r4
 185 0028 F6D1     		bne	.L11
 186              	.LVL11:
 187              	.L7:
 188 002a 38BD     		pop	{r3, r4, r5, pc}
 189              		.cfi_endproc
 190              	.LFE9:
 191              		.size	chIQResetI, .-chIQResetI
 192 002c AFF30080 		.section	.text.chIQPutI,"ax",%progbits
 193              		.align	2
 194              		.p2align 4,,15
 195              		.global	chIQPutI
 196              		.thumb
 197              		.thumb_func
 198              		.type	chIQPutI, %function
 199              	chIQPutI:
 200              	.LFB10:
 201              		.loc 1 139 0
 202              		.cfi_startproc
 203              		@ args = 0, pretend = 0, frame = 0
 204              		@ frame_needed = 0, uses_anonymous_args = 0
 205              	.LVL12:
 206              		.loc 1 143 0
 207 0000 4269     		ldr	r2, [r0, #20]
 208              		.loc 1 139 0
 209 0002 08B5     		push	{r3, lr}
 210              	.LCFI3:
 211              		.cfi_def_cfa_offset 8
 212              		.cfi_offset 3, -8
 213              		.cfi_offset 14, -4
 214              		.loc 1 139 0
 215 0004 0346     		mov	r3, r0
 216              		.loc 1 143 0
 217 0006 8069     		ldr	r0, [r0, #24]
 218              	.LVL13:
 219 0008 8242     		cmp	r2, r0
 220 000a 9868     		ldr	r0, [r3, #8]
 221 000c 18D0     		beq	.L14
 222              	.L15:
 223              		.loc 1 146 0
 224 000e 0130     		adds	r0, r0, #1
 225 0010 9860     		str	r0, [r3, #8]
 226              		.loc 1 147 0
 227 0012 02F8011B 		strb	r1, [r2], #1
 228              		.loc 1 148 0
ARM GAS  /tmp/ccsDLGGk.s 			page 5


 229 0016 1969     		ldr	r1, [r3, #16]
 230              	.LVL14:
 231              		.loc 1 147 0
 232 0018 5A61     		str	r2, [r3, #20]
 233              		.loc 1 148 0
 234 001a 8A42     		cmp	r2, r1
 235              		.loc 1 149 0
 236 001c 28BF     		it	cs
 237 001e DA68     		ldrcs	r2, [r3, #12]
 238              		.loc 1 151 0
 239 0020 1868     		ldr	r0, [r3, #0]
 240              		.loc 1 149 0
 241 0022 28BF     		it	cs
 242 0024 5A61     		strcs	r2, [r3, #20]
 243              		.loc 1 151 0
 244 0026 9842     		cmp	r0, r3
 245 0028 08D0     		beq	.L19
 246              	.LVL15:
 247              	.LBB18:
 248              	.LBB19:
 249              		.loc 2 62 0
 250 002a 0268     		ldr	r2, [r0, #0]
 251 002c 1A60     		str	r2, [r3, #0]
 252 002e 5360     		str	r3, [r2, #4]
 253              	.LBE19:
 254              	.LBE18:
 255              		.loc 1 152 0
 256 0030 FFF7FEFF 		bl	chSchReadyI
 257              	.LVL16:
 258 0034 0023     		movs	r3, #0
 259 0036 4362     		str	r3, [r0, #36]
 260              		.loc 1 154 0
 261 0038 1846     		mov	r0, r3
 262 003a 08BD     		pop	{r3, pc}
 263              	.LVL17:
 264              	.L19:
 265 003c 0020     		movs	r0, #0
 266              		.loc 1 155 0
 267 003e 08BD     		pop	{r3, pc}
 268              	.LVL18:
 269              	.L14:
 270              		.loc 1 143 0 discriminator 1
 271 0040 0028     		cmp	r0, #0
 272 0042 E4D0     		beq	.L15
 273              		.loc 1 144 0
 274 0044 6FF00300 		mvn	r0, #3
 275 0048 08BD     		pop	{r3, pc}
 276              		.cfi_endproc
 277              	.LFE10:
 278              		.size	chIQPutI, .-chIQPutI
 279 004a 00BFAFF3 		.section	.text.chIQGetTimeout,"ax",%progbits
 279      0080
 280              		.align	2
 281              		.p2align 4,,15
 282              		.global	chIQGetTimeout
 283              		.thumb
 284              		.thumb_func
ARM GAS  /tmp/ccsDLGGk.s 			page 6


 285              		.type	chIQGetTimeout, %function
 286              	chIQGetTimeout:
 287              	.LFB11:
 288              		.loc 1 177 0
 289              		.cfi_startproc
 290              		@ args = 0, pretend = 0, frame = 0
 291              		@ frame_needed = 0, uses_anonymous_args = 0
 292              	.LVL19:
 293 0000 70B5     		push	{r4, r5, r6, lr}
 294              	.LCFI4:
 295              		.cfi_def_cfa_offset 16
 296              		.cfi_offset 4, -16
 297              		.cfi_offset 5, -12
 298              		.cfi_offset 6, -8
 299              		.cfi_offset 14, -4
 300              	.LBB20:
 301              		.loc 1 180 0
 302 0002 2023     		movs	r3, #32
 303              	.LVL20:
 304              	.LBE20:
 305              		.loc 1 177 0
 306 0004 0446     		mov	r4, r0
 307 0006 0E46     		mov	r6, r1
 308              	.LBB21:
 309              		.loc 1 180 0
 310              	@ 180 "../../ChibiOS_2.4.3/os/kernel/src/chqueues.c" 1
 311 0008 83F31188 		msr     BASEPRI, r3
 312              	@ 0 "" 2
 313              	.LVL21:
 314              		.thumb
 315              	.LBE21:
 316              		.loc 1 181 0
 317 000c C369     		ldr	r3, [r0, #28]
 318              	.LVL22:
 319 000e 03B1     		cbz	r3, .L28
 320              		.loc 1 182 0
 321 0010 9847     		blx	r3
 322              	.LVL23:
 323              	.L28:
 324              		.loc 1 184 0 discriminator 1
 325 0012 A568     		ldr	r5, [r4, #8]
 326              	.LBB22:
 327              		.loc 1 186 0 discriminator 1
 328 0014 2046     		mov	r0, r4
 329 0016 3146     		mov	r1, r6
 330              	.LBE22:
 331              		.loc 1 184 0 discriminator 1
 332 0018 3DB9     		cbnz	r5, .L31
 333              	.LVL24:
 334              	.LBB24:
 335              		.loc 1 186 0
 336 001a FFF7FEFF 		bl	qwait
 337              	.LVL25:
 338 001e 0028     		cmp	r0, #0
 339 0020 F7DA     		bge	.L28
 340              	.LBB23:
 341              		.loc 1 187 0
ARM GAS  /tmp/ccsDLGGk.s 			page 7


 342 0022 2B46     		mov	r3, r5
 343              	.LVL26:
 344              	@ 187 "../../ChibiOS_2.4.3/os/kernel/src/chqueues.c" 1
 345 0024 83F31188 		msr     BASEPRI, r3
 346              	@ 0 "" 2
 347              	.LVL27:
 348              		.thumb
 349              	.LBE23:
 350              		.loc 1 188 0
 351 0028 70BD     		pop	{r4, r5, r6, pc}
 352              	.LVL28:
 353              	.L31:
 354              	.LBE24:
 355              		.loc 1 193 0
 356 002a A169     		ldr	r1, [r4, #24]
 357              	.LVL29:
 358              		.loc 1 194 0
 359 002c 2269     		ldr	r2, [r4, #16]
 360              		.loc 1 192 0
 361 002e 013D     		subs	r5, r5, #1
 362 0030 A560     		str	r5, [r4, #8]
 363              		.loc 1 193 0
 364 0032 11F8010B 		ldrb	r0, [r1], #1	@ zero_extendqisi2
 365              	.LVL30:
 366              		.loc 1 194 0
 367 0036 9142     		cmp	r1, r2
 368              		.loc 1 193 0
 369 0038 A161     		str	r1, [r4, #24]
 370              		.loc 1 195 0
 371 003a 24BF     		itt	cs
 372 003c E168     		ldrcs	r1, [r4, #12]
 373 003e A161     		strcs	r1, [r4, #24]
 374              	.LBB25:
 375              		.loc 1 197 0
 376 0040 0023     		movs	r3, #0
 377              	.LVL31:
 378              	@ 197 "../../ChibiOS_2.4.3/os/kernel/src/chqueues.c" 1
 379 0042 83F31188 		msr     BASEPRI, r3
 380              	@ 0 "" 2
 381              	.LVL32:
 382              		.thumb
 383              	.LBE25:
 384              		.loc 1 199 0
 385 0046 70BD     		pop	{r4, r5, r6, pc}
 386              		.cfi_endproc
 387              	.LFE11:
 388              		.size	chIQGetTimeout, .-chIQGetTimeout
 389 0048 AFF30080 		.section	.text.chIQReadTimeout,"ax",%progbits
 389      AFF30080 
 390              		.align	2
 391              		.p2align 4,,15
 392              		.global	chIQReadTimeout
 393              		.thumb
 394              		.thumb_func
 395              		.type	chIQReadTimeout, %function
 396              	chIQReadTimeout:
 397              	.LFB12:
ARM GAS  /tmp/ccsDLGGk.s 			page 8


 398              		.loc 1 226 0
 399              		.cfi_startproc
 400              		@ args = 0, pretend = 0, frame = 0
 401              		@ frame_needed = 0, uses_anonymous_args = 0
 402              	.LVL33:
 403 0000 2DE9F047 		push	{r4, r5, r6, r7, r8, r9, sl, lr}
 404              	.LCFI5:
 405              		.cfi_def_cfa_offset 32
 406              		.cfi_offset 4, -32
 407              		.cfi_offset 5, -28
 408              		.cfi_offset 6, -24
 409              		.cfi_offset 7, -20
 410              		.cfi_offset 8, -16
 411              		.cfi_offset 9, -12
 412              		.cfi_offset 10, -8
 413              		.cfi_offset 14, -4
 414              		.loc 1 226 0
 415 0004 1E46     		mov	r6, r3
 416 0006 0446     		mov	r4, r0
 417              		.loc 1 227 0
 418 0008 C769     		ldr	r7, [r0, #28]
 419              	.LVL34:
 420              	.LBB26:
 421              		.loc 1 232 0
 422 000a 2023     		movs	r3, #32
 423              	.LVL35:
 424              	@ 232 "../../ChibiOS_2.4.3/os/kernel/src/chqueues.c" 1
 425 000c 83F31188 		msr     BASEPRI, r3
 426              	@ 0 "" 2
 427              	.LVL36:
 428              		.thumb
 429              	.LBE26:
 430              		.loc 1 228 0
 431 0010 4FF00008 		mov	r8, #0
 432              	.LBB27:
 433              		.loc 1 225 0
 434 0014 01F10109 		add	r9, r1, #1
 435 0018 01EB020A 		add	sl, r1, r2
 436              	.LVL37:
 437              	.L38:
 438              	.LBE27:
 439              		.loc 1 234 0
 440 001c 0FB1     		cbz	r7, .L43
 441              		.loc 1 235 0
 442 001e 2046     		mov	r0, r4
 443 0020 B847     		blx	r7
 444              	.LVL38:
 445              	.L43:
 446              		.loc 1 237 0 discriminator 1
 447 0022 A568     		ldr	r5, [r4, #8]
 448              		.loc 1 238 0 discriminator 1
 449 0024 2046     		mov	r0, r4
 450 0026 3146     		mov	r1, r6
 451              		.loc 1 237 0 discriminator 1
 452 0028 4DB9     		cbnz	r5, .L47
 453              	.LVL39:
 454              		.loc 1 238 0
ARM GAS  /tmp/ccsDLGGk.s 			page 9


 455 002a FFF7FEFF 		bl	qwait
 456              	.LVL40:
 457 002e 0028     		cmp	r0, #0
 458 0030 F7D0     		beq	.L43
 459              	.LBB28:
 460              		.loc 1 239 0
 461 0032 2B46     		mov	r3, r5
 462              	.LVL41:
 463              	@ 239 "../../ChibiOS_2.4.3/os/kernel/src/chqueues.c" 1
 464 0034 83F31188 		msr     BASEPRI, r3
 465              	@ 0 "" 2
 466              	.LVL42:
 467              		.thumb
 468              	.L35:
 469              	.LBE28:
 470              		.loc 1 256 0
 471 0038 4046     		mov	r0, r8
 472 003a BDE8F087 		pop	{r4, r5, r6, r7, r8, r9, sl, pc}
 473              	.LVL43:
 474              	.L47:
 475              		.loc 1 245 0
 476 003e A369     		ldr	r3, [r4, #24]
 477              	.LVL44:
 478              		.loc 1 244 0
 479 0040 013D     		subs	r5, r5, #1
 480 0042 A560     		str	r5, [r4, #8]
 481              		.loc 1 245 0
 482 0044 13F8012B 		ldrb	r2, [r3], #1	@ zero_extendqisi2
 483 0048 09F8012C 		strb	r2, [r9, #-1]
 484              		.loc 1 246 0
 485 004c 2069     		ldr	r0, [r4, #16]
 486              	.LVL45:
 487              		.loc 1 245 0
 488 004e A361     		str	r3, [r4, #24]
 489              		.loc 1 246 0
 490 0050 8342     		cmp	r3, r0
 491              		.loc 1 247 0
 492 0052 24BF     		itt	cs
 493 0054 E368     		ldrcs	r3, [r4, #12]
 494 0056 A361     		strcs	r3, [r4, #24]
 495              	.LBB29:
 496              		.loc 1 249 0
 497 0058 0023     		movs	r3, #0
 498              	@ 249 "../../ChibiOS_2.4.3/os/kernel/src/chqueues.c" 1
 499 005a 83F31188 		msr     BASEPRI, r3
 500              	@ 0 "" 2
 501              	.LVL46:
 502              		.thumb
 503              	.LBE29:
 504              		.loc 1 251 0
 505 005e D145     		cmp	r9, sl
 506              		.loc 1 250 0
 507 0060 08F10108 		add	r8, r8, #1
 508              	.LVL47:
 509              		.loc 1 251 0
 510 0064 E8D0     		beq	.L35
 511              	.LBB30:
ARM GAS  /tmp/ccsDLGGk.s 			page 10


 512              		.loc 1 254 0
 513 0066 2023     		movs	r3, #32
 514              	.LVL48:
 515              	@ 254 "../../ChibiOS_2.4.3/os/kernel/src/chqueues.c" 1
 516 0068 83F31188 		msr     BASEPRI, r3
 517              	@ 0 "" 2
 518              	.LVL49:
 519              		.thumb
 520 006c 09F10109 		add	r9, r9, #1
 521              	.LBE30:
 522              		.loc 1 255 0
 523 0070 D4E7     		b	.L38
 524              		.cfi_endproc
 525              	.LFE12:
 526              		.size	chIQReadTimeout, .-chIQReadTimeout
 527 0072 00BFAFF3 		.section	.text.chOQInit,"ax",%progbits
 527      0080AFF3 
 527      0080AFF3 
 527      0080
 528              		.align	2
 529              		.p2align 4,,15
 530              		.global	chOQInit
 531              		.thumb
 532              		.thumb_func
 533              		.type	chOQInit, %function
 534              	chOQInit:
 535              	.LFB13:
 536              		.loc 1 273 0
 537              		.cfi_startproc
 538              		@ args = 0, pretend = 0, frame = 0
 539              		@ frame_needed = 0, uses_anonymous_args = 0
 540              		@ link register save eliminated.
 541              	.LVL50:
 542 0000 10B4     		push	{r4}
 543              	.LCFI6:
 544              		.cfi_def_cfa_offset 4
 545              		.cfi_offset 4, -4
 546              		.loc 1 278 0
 547 0002 8C18     		adds	r4, r1, r2
 548              		.loc 1 275 0
 549 0004 4060     		str	r0, [r0, #4]
 550 0006 0060     		str	r0, [r0, #0]
 551              		.loc 1 276 0
 552 0008 8260     		str	r2, [r0, #8]
 553              		.loc 1 277 0
 554 000a 4161     		str	r1, [r0, #20]
 555 000c 8161     		str	r1, [r0, #24]
 556 000e C160     		str	r1, [r0, #12]
 557              		.loc 1 278 0
 558 0010 0461     		str	r4, [r0, #16]
 559              		.loc 1 279 0
 560 0012 C361     		str	r3, [r0, #28]
 561              		.loc 1 280 0
 562 0014 10BC     		pop	{r4}
 563 0016 7047     		bx	lr
 564              		.cfi_endproc
 565              	.LFE13:
ARM GAS  /tmp/ccsDLGGk.s 			page 11


 566              		.size	chOQInit, .-chOQInit
 567 0018 AFF30080 		.section	.text.chOQResetI,"ax",%progbits
 567      AFF30080 
 568              		.align	2
 569              		.p2align 4,,15
 570              		.global	chOQResetI
 571              		.thumb
 572              		.thumb_func
 573              		.type	chOQResetI, %function
 574              	chOQResetI:
 575              	.LFB14:
 576              		.loc 1 293 0
 577              		.cfi_startproc
 578              		@ args = 0, pretend = 0, frame = 0
 579              		@ frame_needed = 0, uses_anonymous_args = 0
 580              	.LVL51:
 581 0000 38B5     		push	{r3, r4, r5, lr}
 582              	.LCFI7:
 583              		.cfi_def_cfa_offset 16
 584              		.cfi_offset 3, -16
 585              		.cfi_offset 4, -12
 586              		.cfi_offset 5, -8
 587              		.cfi_offset 14, -4
 588              		.loc 1 298 0
 589 0002 0269     		ldr	r2, [r0, #16]
 590              		.loc 1 297 0
 591 0004 C368     		ldr	r3, [r0, #12]
 592              		.loc 1 293 0
 593 0006 0446     		mov	r4, r0
 594              		.loc 1 299 0
 595 0008 0068     		ldr	r0, [r0, #0]
 596              	.LVL52:
 597              		.loc 1 297 0
 598 000a 6361     		str	r3, [r4, #20]
 599              		.loc 1 298 0
 600 000c D11A     		subs	r1, r2, r3
 601              		.loc 1 299 0
 602 000e A042     		cmp	r0, r4
 603              		.loc 1 297 0
 604 0010 A361     		str	r3, [r4, #24]
 605              		.loc 1 298 0
 606 0012 A160     		str	r1, [r4, #8]
 607              		.loc 1 299 0
 608 0014 0AD0     		beq	.L49
 609              		.loc 1 300 0
 610 0016 6FF00105 		mvn	r5, #1
 611              	.L53:
 612              	.LVL53:
 613              	.LBB31:
 614              	.LBB32:
 615              		.loc 2 62 0
 616 001a 0368     		ldr	r3, [r0, #0]
 617 001c 2360     		str	r3, [r4, #0]
 618 001e 5C60     		str	r4, [r3, #4]
 619              	.LBE32:
 620              	.LBE31:
 621              		.loc 1 300 0
ARM GAS  /tmp/ccsDLGGk.s 			page 12


 622 0020 FFF7FEFF 		bl	chSchReadyI
 623              	.LVL54:
 624 0024 4562     		str	r5, [r0, #36]
 625              		.loc 1 299 0
 626 0026 2068     		ldr	r0, [r4, #0]
 627 0028 A042     		cmp	r0, r4
 628 002a F6D1     		bne	.L53
 629              	.LVL55:
 630              	.L49:
 631 002c 38BD     		pop	{r3, r4, r5, pc}
 632              		.cfi_endproc
 633              	.LFE14:
 634              		.size	chOQResetI, .-chOQResetI
 635 002e 00BF     		.section	.text.chOQPutTimeout,"ax",%progbits
 636              		.align	2
 637              		.p2align 4,,15
 638              		.global	chOQPutTimeout
 639              		.thumb
 640              		.thumb_func
 641              		.type	chOQPutTimeout, %function
 642              	chOQPutTimeout:
 643              	.LFB15:
 644              		.loc 1 325 0
 645              		.cfi_startproc
 646              		@ args = 0, pretend = 0, frame = 0
 647              		@ frame_needed = 0, uses_anonymous_args = 0
 648              	.LVL56:
 649 0000 F8B5     		push	{r3, r4, r5, r6, r7, lr}
 650              	.LCFI8:
 651              		.cfi_def_cfa_offset 24
 652              		.cfi_offset 3, -24
 653              		.cfi_offset 4, -20
 654              		.cfi_offset 5, -16
 655              		.cfi_offset 6, -12
 656              		.cfi_offset 7, -8
 657              		.cfi_offset 14, -4
 658              		.loc 1 325 0
 659 0002 0446     		mov	r4, r0
 660 0004 0F46     		mov	r7, r1
 661 0006 1646     		mov	r6, r2
 662              	.LBB33:
 663              		.loc 1 327 0
 664 0008 2023     		movs	r3, #32
 665              	.LVL57:
 666              	@ 327 "../../ChibiOS_2.4.3/os/kernel/src/chqueues.c" 1
 667 000a 83F31188 		msr     BASEPRI, r3
 668              	@ 0 "" 2
 669              	.LVL58:
 670              		.thumb
 671              	.L56:
 672              	.LBE33:
 673              		.loc 1 328 0 discriminator 1
 674 000e A568     		ldr	r5, [r4, #8]
 675              	.LBB34:
 676              		.loc 1 331 0 discriminator 1
 677 0010 2046     		mov	r0, r4
 678 0012 3146     		mov	r1, r6
ARM GAS  /tmp/ccsDLGGk.s 			page 13


 679              	.LBE34:
 680              		.loc 1 328 0 discriminator 1
 681 0014 3DB9     		cbnz	r5, .L65
 682              	.LVL59:
 683              	.LBB36:
 684              		.loc 1 331 0
 685 0016 FFF7FEFF 		bl	qwait
 686              	.LVL60:
 687 001a 0028     		cmp	r0, #0
 688 001c F7DA     		bge	.L56
 689              	.LBB35:
 690              		.loc 1 332 0
 691 001e 2B46     		mov	r3, r5
 692              	.LVL61:
 693              	@ 332 "../../ChibiOS_2.4.3/os/kernel/src/chqueues.c" 1
 694 0020 83F31188 		msr     BASEPRI, r3
 695              	@ 0 "" 2
 696              	.LVL62:
 697              		.thumb
 698              	.LBE35:
 699              		.loc 1 333 0
 700 0024 F8BD     		pop	{r3, r4, r5, r6, r7, pc}
 701              	.LVL63:
 702              	.L65:
 703              	.LBE36:
 704              		.loc 1 338 0
 705 0026 6369     		ldr	r3, [r4, #20]
 706              	.LVL64:
 707              		.loc 1 337 0
 708 0028 013D     		subs	r5, r5, #1
 709 002a A560     		str	r5, [r4, #8]
 710              		.loc 1 338 0
 711 002c 03F8017B 		strb	r7, [r3], #1
 712              		.loc 1 339 0
 713 0030 2269     		ldr	r2, [r4, #16]
 714              		.loc 1 338 0
 715 0032 6361     		str	r3, [r4, #20]
 716              		.loc 1 339 0
 717 0034 9342     		cmp	r3, r2
 718              		.loc 1 340 0
 719 0036 28BF     		it	cs
 720 0038 E368     		ldrcs	r3, [r4, #12]
 721              		.loc 1 342 0
 722 003a E169     		ldr	r1, [r4, #28]
 723              	.LVL65:
 724              		.loc 1 340 0
 725 003c 28BF     		it	cs
 726 003e 6361     		strcs	r3, [r4, #20]
 727              		.loc 1 342 0
 728 0040 09B1     		cbz	r1, .L60
 729              		.loc 1 343 0
 730 0042 2046     		mov	r0, r4
 731              	.LVL66:
 732 0044 8847     		blx	r1
 733              	.LVL67:
 734              	.L60:
 735              	.LBB37:
ARM GAS  /tmp/ccsDLGGk.s 			page 14


 736              		.loc 1 345 0
 737 0046 0023     		movs	r3, #0
 738              	.LVL68:
 739              	@ 345 "../../ChibiOS_2.4.3/os/kernel/src/chqueues.c" 1
 740 0048 83F31188 		msr     BASEPRI, r3
 741              	@ 0 "" 2
 742              	.LVL69:
 743              		.thumb
 744              	.LBE37:
 745              		.loc 1 346 0
 746 004c 1846     		mov	r0, r3
 747              		.loc 1 347 0
 748 004e F8BD     		pop	{r3, r4, r5, r6, r7, pc}
 749              		.cfi_endproc
 750              	.LFE15:
 751              		.size	chOQPutTimeout, .-chOQPutTimeout
 752              		.section	.text.chOQGetI,"ax",%progbits
 753              		.align	2
 754              		.p2align 4,,15
 755              		.global	chOQGetI
 756              		.thumb
 757              		.thumb_func
 758              		.type	chOQGetI, %function
 759              	chOQGetI:
 760              	.LFB16:
 761              		.loc 1 359 0
 762              		.cfi_startproc
 763              		@ args = 0, pretend = 0, frame = 0
 764              		@ frame_needed = 0, uses_anonymous_args = 0
 765              	.LVL70:
 766              		.loc 1 364 0
 767 0000 8269     		ldr	r2, [r0, #24]
 768 0002 4169     		ldr	r1, [r0, #20]
 769 0004 9142     		cmp	r1, r2
 770              		.loc 1 359 0
 771 0006 0346     		mov	r3, r0
 772 0008 10B5     		push	{r4, lr}
 773              	.LCFI9:
 774              		.cfi_def_cfa_offset 8
 775              		.cfi_offset 4, -8
 776              		.cfi_offset 14, -4
 777              		.loc 1 364 0
 778 000a 8068     		ldr	r0, [r0, #8]
 779              	.LVL71:
 780 000c 16D0     		beq	.L67
 781              	.L68:
 782              		.loc 1 367 0
 783 000e 441C     		adds	r4, r0, #1
 784 0010 9C60     		str	r4, [r3, #8]
 785              		.loc 1 368 0
 786 0012 12F8014B 		ldrb	r4, [r2], #1	@ zero_extendqisi2
 787              	.LVL72:
 788              		.loc 1 369 0
 789 0016 1969     		ldr	r1, [r3, #16]
 790              		.loc 1 368 0
 791 0018 9A61     		str	r2, [r3, #24]
 792              		.loc 1 369 0
ARM GAS  /tmp/ccsDLGGk.s 			page 15


 793 001a 8A42     		cmp	r2, r1
 794              		.loc 1 370 0
 795 001c 28BF     		it	cs
 796 001e DA68     		ldrcs	r2, [r3, #12]
 797              		.loc 1 372 0
 798 0020 1868     		ldr	r0, [r3, #0]
 799              		.loc 1 370 0
 800 0022 28BF     		it	cs
 801 0024 9A61     		strcs	r2, [r3, #24]
 802              		.loc 1 372 0
 803 0026 9842     		cmp	r0, r3
 804 0028 06D0     		beq	.L71
 805              	.LVL73:
 806              	.LBB38:
 807              	.LBB39:
 808              		.loc 2 62 0
 809 002a 0268     		ldr	r2, [r0, #0]
 810 002c 1A60     		str	r2, [r3, #0]
 811 002e 5360     		str	r3, [r2, #4]
 812              	.LBE39:
 813              	.LBE38:
 814              		.loc 1 373 0
 815 0030 FFF7FEFF 		bl	chSchReadyI
 816              	.LVL74:
 817 0034 0023     		movs	r3, #0
 818 0036 4362     		str	r3, [r0, #36]
 819              	.LVL75:
 820              	.L71:
 821              		.loc 1 375 0
 822 0038 2046     		mov	r0, r4
 823 003a 10BD     		pop	{r4, pc}
 824              	.LVL76:
 825              	.L67:
 826              		.loc 1 364 0 discriminator 1
 827 003c 0028     		cmp	r0, #0
 828 003e E6D0     		beq	.L68
 829              		.loc 1 365 0
 830 0040 6FF00200 		mvn	r0, #2
 831              		.loc 1 376 0
 832 0044 10BD     		pop	{r4, pc}
 833              		.cfi_endproc
 834              	.LFE16:
 835              		.size	chOQGetI, .-chOQGetI
 836 0046 00BFAFF3 		.section	.text.chOQWriteTimeout,"ax",%progbits
 836      0080AFF3 
 836      0080
 837              		.align	2
 838              		.p2align 4,,15
 839              		.global	chOQWriteTimeout
 840              		.thumb
 841              		.thumb_func
 842              		.type	chOQWriteTimeout, %function
 843              	chOQWriteTimeout:
 844              	.LFB17:
 845              		.loc 1 403 0
 846              		.cfi_startproc
 847              		@ args = 0, pretend = 0, frame = 0
ARM GAS  /tmp/ccsDLGGk.s 			page 16


 848              		@ frame_needed = 0, uses_anonymous_args = 0
 849              	.LVL77:
 850 0000 2DE9F047 		push	{r4, r5, r6, r7, r8, r9, sl, lr}
 851              	.LCFI10:
 852              		.cfi_def_cfa_offset 32
 853              		.cfi_offset 4, -32
 854              		.cfi_offset 5, -28
 855              		.cfi_offset 6, -24
 856              		.cfi_offset 7, -20
 857              		.cfi_offset 8, -16
 858              		.cfi_offset 9, -12
 859              		.cfi_offset 10, -8
 860              		.cfi_offset 14, -4
 861              		.loc 1 403 0
 862 0004 9A46     		mov	sl, r3
 863 0006 0446     		mov	r4, r0
 864 0008 8846     		mov	r8, r1
 865 000a 1646     		mov	r6, r2
 866              		.loc 1 404 0
 867 000c D0F81C90 		ldr	r9, [r0, #28]
 868              	.LVL78:
 869              	.LBB40:
 870              		.loc 1 409 0
 871 0010 2023     		movs	r3, #32
 872              	.LVL79:
 873              	@ 409 "../../ChibiOS_2.4.3/os/kernel/src/chqueues.c" 1
 874 0012 83F31188 		msr     BASEPRI, r3
 875              	@ 0 "" 2
 876              	.LVL80:
 877              		.loc 1 405 0
 878              		.thumb
 879 0016 0027     		movs	r7, #0
 880              	.LVL81:
 881              	.L91:
 882              	.LBE40:
 883              		.loc 1 411 0 discriminator 1
 884 0018 A568     		ldr	r5, [r4, #8]
 885              		.loc 1 423 0 discriminator 1
 886 001a 2046     		mov	r0, r4
 887              		.loc 1 417 0 discriminator 1
 888 001c 6B1E     		subs	r3, r5, #1
 889              	.LVL82:
 890              		.loc 1 411 0 discriminator 1
 891 001e EDB1     		cbz	r5, .L77
 892              	.LVL83:
 893              	.L92:
 894              		.loc 1 417 0
 895 0020 A360     		str	r3, [r4, #8]
 896              		.loc 1 418 0
 897 0022 6569     		ldr	r5, [r4, #20]
 898 0024 18F8011B 		ldrb	r1, [r8], #1	@ zero_extendqisi2
 899              	.LVL84:
 900 0028 05F8011B 		strb	r1, [r5], #1
 901              		.loc 1 419 0
 902 002c 2269     		ldr	r2, [r4, #16]
 903              		.loc 1 418 0
 904 002e 6561     		str	r5, [r4, #20]
ARM GAS  /tmp/ccsDLGGk.s 			page 17


 905              	.LVL85:
 906              		.loc 1 419 0
 907 0030 9542     		cmp	r5, r2
 908              		.loc 1 420 0
 909 0032 24BF     		itt	cs
 910 0034 E268     		ldrcs	r2, [r4, #12]
 911 0036 6261     		strcs	r2, [r4, #20]
 912              		.loc 1 422 0
 913 0038 B9F1000F 		cmp	r9, #0
 914 003c 00D0     		beq	.L79
 915              		.loc 1 423 0
 916 003e C847     		blx	r9
 917              	.LVL86:
 918              	.L79:
 919              	.LBB41:
 920              		.loc 1 425 0
 921 0040 0023     		movs	r3, #0
 922              	.LVL87:
 923              	@ 425 "../../ChibiOS_2.4.3/os/kernel/src/chqueues.c" 1
 924 0042 83F31188 		msr     BASEPRI, r3
 925              	@ 0 "" 2
 926              	.LVL88:
 927              		.thumb
 928              	.LBE41:
 929              		.loc 1 426 0
 930 0046 0137     		adds	r7, r7, #1
 931              	.LVL89:
 932              		.loc 1 427 0
 933 0048 013E     		subs	r6, r6, #1
 934              	.LVL90:
 935 004a 10D0     		beq	.L76
 936              	.LBB42:
 937              		.loc 1 429 0
 938 004c 2023     		movs	r3, #32
 939              	.LVL91:
 940              	@ 429 "../../ChibiOS_2.4.3/os/kernel/src/chqueues.c" 1
 941 004e 83F31188 		msr     BASEPRI, r3
 942              	@ 0 "" 2
 943              	.LVL92:
 944              		.thumb
 945              	.LBE42:
 946              		.loc 1 411 0
 947 0052 A568     		ldr	r5, [r4, #8]
 948              		.loc 1 423 0
 949 0054 2046     		mov	r0, r4
 950              		.loc 1 417 0
 951 0056 6B1E     		subs	r3, r5, #1
 952              	.LVL93:
 953              		.loc 1 411 0
 954 0058 002D     		cmp	r5, #0
 955 005a E1D1     		bne	.L92
 956              	.LVL94:
 957              	.L77:
 958              		.loc 1 412 0
 959 005c 2046     		mov	r0, r4
 960              	.LVL95:
 961 005e 5146     		mov	r1, sl
ARM GAS  /tmp/ccsDLGGk.s 			page 18


 962 0060 FFF7FEFF 		bl	qwait
 963              	.LVL96:
 964 0064 0028     		cmp	r0, #0
 965 0066 D7D0     		beq	.L91
 966              	.LBB43:
 967              		.loc 1 413 0
 968 0068 2B46     		mov	r3, r5
 969              	.LVL97:
 970              	@ 413 "../../ChibiOS_2.4.3/os/kernel/src/chqueues.c" 1
 971 006a 83F31188 		msr     BASEPRI, r3
 972              	@ 0 "" 2
 973              	.LVL98:
 974              		.thumb
 975              	.L76:
 976              	.LBE43:
 977              		.loc 1 431 0
 978 006e 3846     		mov	r0, r7
 979 0070 BDE8F087 		pop	{r4, r5, r6, r7, r8, r9, sl, pc}
 980              		.cfi_endproc
 981              	.LFE17:
 982              		.size	chOQWriteTimeout, .-chOQWriteTimeout
 983 0074 AFF30080 		.text
 983      AFF30080 
 983      AFF30080 
 984              	.Letext0:
 985              		.file 3 "/opt/ARM/bin/../lib/gcc/arm-none-eabi/4.7.3/include/stddef.h"
 986              		.file 4 "/opt/ARM/bin/../lib/gcc/arm-none-eabi/4.7.3/../../../../arm-none-eabi/include/stdint.h"
 987              		.file 5 "../../ChibiOS_2.4.3/os/ports/GCC/ARMCMx/chtypes.h"
 988              		.file 6 "../../ChibiOS_2.4.3/os/kernel/include/chlists.h"
 989              		.file 7 "../../ChibiOS_2.4.3/os/kernel/include/chthreads.h"
 990              		.file 8 "../../ChibiOS_2.4.3/os/ports/GCC/ARMCMx/chcore_v7m.h"
 991              		.file 9 "../../ChibiOS_2.4.3/os/kernel/include/chschd.h"
 992              		.file 10 "../../ChibiOS_2.4.3/os/kernel/include/chmtx.h"
 993              		.file 11 "../../ChibiOS_2.4.3/os/kernel/include/chqueues.h"
 994              		.section	.debug_info,"",%progbits
 995              	.Ldebug_info0:
 996 0000 420C0000 		.4byte	0xc42
 997 0004 0200     		.2byte	0x2
 998 0006 00000000 		.4byte	.Ldebug_abbrev0
 999 000a 04       		.byte	0x4
 1000 000b 01       		.uleb128 0x1
 1001 000c 84020000 		.4byte	.LASF89
 1002 0010 01       		.byte	0x1
 1003 0011 9C010000 		.4byte	.LASF90
 1004 0015 49010000 		.4byte	.LASF91
 1005 0019 78000000 		.4byte	.Ldebug_ranges0+0x78
 1006 001d 00000000 		.4byte	0
 1007 0021 00000000 		.4byte	0
 1008 0025 00000000 		.4byte	.Ldebug_line0
 1009 0029 02       		.uleb128 0x2
 1010 002a 04       		.byte	0x4
 1011 002b 05       		.byte	0x5
 1012 002c 696E7400 		.ascii	"int\000"
 1013 0030 03       		.uleb128 0x3
 1014 0031 21000000 		.4byte	.LASF2
 1015 0035 03       		.byte	0x3
 1016 0036 D5       		.byte	0xd5
ARM GAS  /tmp/ccsDLGGk.s 			page 19


 1017 0037 3B000000 		.4byte	0x3b
 1018 003b 04       		.uleb128 0x4
 1019 003c 04       		.byte	0x4
 1020 003d 07       		.byte	0x7
 1021 003e 1F010000 		.4byte	.LASF0
 1022 0042 04       		.uleb128 0x4
 1023 0043 01       		.byte	0x1
 1024 0044 06       		.byte	0x6
 1025 0045 93000000 		.4byte	.LASF1
 1026 0049 03       		.uleb128 0x3
 1027 004a CF030000 		.4byte	.LASF3
 1028 004e 04       		.byte	0x4
 1029 004f 2A       		.byte	0x2a
 1030 0050 54000000 		.4byte	0x54
 1031 0054 04       		.uleb128 0x4
 1032 0055 01       		.byte	0x1
 1033 0056 08       		.byte	0x8
 1034 0057 D5020000 		.4byte	.LASF4
 1035 005b 04       		.uleb128 0x4
 1036 005c 02       		.byte	0x2
 1037 005d 05       		.byte	0x5
 1038 005e ED020000 		.4byte	.LASF5
 1039 0062 04       		.uleb128 0x4
 1040 0063 02       		.byte	0x2
 1041 0064 07       		.byte	0x7
 1042 0065 89010000 		.4byte	.LASF6
 1043 0069 03       		.uleb128 0x3
 1044 006a CD020000 		.4byte	.LASF7
 1045 006e 04       		.byte	0x4
 1046 006f 4F       		.byte	0x4f
 1047 0070 74000000 		.4byte	0x74
 1048 0074 04       		.uleb128 0x4
 1049 0075 04       		.byte	0x4
 1050 0076 05       		.byte	0x5
 1051 0077 BC000000 		.4byte	.LASF8
 1052 007b 03       		.uleb128 0x3
 1053 007c 3B030000 		.4byte	.LASF9
 1054 0080 04       		.byte	0x4
 1055 0081 50       		.byte	0x50
 1056 0082 86000000 		.4byte	0x86
 1057 0086 04       		.uleb128 0x4
 1058 0087 04       		.byte	0x4
 1059 0088 07       		.byte	0x7
 1060 0089 37010000 		.4byte	.LASF10
 1061 008d 04       		.uleb128 0x4
 1062 008e 08       		.byte	0x8
 1063 008f 05       		.byte	0x5
 1064 0090 85000000 		.4byte	.LASF11
 1065 0094 04       		.uleb128 0x4
 1066 0095 08       		.byte	0x8
 1067 0096 07       		.byte	0x7
 1068 0097 54000000 		.4byte	.LASF12
 1069 009b 03       		.uleb128 0x3
 1070 009c A7000000 		.4byte	.LASF13
 1071 00a0 05       		.byte	0x5
 1072 00a1 2E       		.byte	0x2e
 1073 00a2 69000000 		.4byte	0x69
ARM GAS  /tmp/ccsDLGGk.s 			page 20


 1074 00a6 03       		.uleb128 0x3
 1075 00a7 CF010000 		.4byte	.LASF14
 1076 00ab 05       		.byte	0x5
 1077 00ac 2F       		.byte	0x2f
 1078 00ad 49000000 		.4byte	0x49
 1079 00b1 03       		.uleb128 0x3
 1080 00b2 C5000000 		.4byte	.LASF15
 1081 00b6 05       		.byte	0x5
 1082 00b7 30       		.byte	0x30
 1083 00b8 49000000 		.4byte	0x49
 1084 00bc 03       		.uleb128 0x3
 1085 00bd 63020000 		.4byte	.LASF16
 1086 00c1 05       		.byte	0x5
 1087 00c2 31       		.byte	0x31
 1088 00c3 49000000 		.4byte	0x49
 1089 00c7 03       		.uleb128 0x3
 1090 00c8 7C020000 		.4byte	.LASF17
 1091 00cc 05       		.byte	0x5
 1092 00cd 32       		.byte	0x32
 1093 00ce 7B000000 		.4byte	0x7b
 1094 00d2 03       		.uleb128 0x3
 1095 00d3 C9010000 		.4byte	.LASF18
 1096 00d7 05       		.byte	0x5
 1097 00d8 33       		.byte	0x33
 1098 00d9 69000000 		.4byte	0x69
 1099 00dd 03       		.uleb128 0x3
 1100 00de E3010000 		.4byte	.LASF19
 1101 00e2 05       		.byte	0x5
 1102 00e3 35       		.byte	0x35
 1103 00e4 7B000000 		.4byte	0x7b
 1104 00e8 03       		.uleb128 0x3
 1105 00e9 70030000 		.4byte	.LASF20
 1106 00ed 05       		.byte	0x5
 1107 00ee 36       		.byte	0x36
 1108 00ef 7B000000 		.4byte	0x7b
 1109 00f3 03       		.uleb128 0x3
 1110 00f4 19010000 		.4byte	.LASF21
 1111 00f8 05       		.byte	0x5
 1112 00f9 37       		.byte	0x37
 1113 00fa 69000000 		.4byte	0x69
 1114 00fe 03       		.uleb128 0x3
 1115 00ff 29030000 		.4byte	.LASF22
 1116 0103 06       		.byte	0x6
 1117 0104 2A       		.byte	0x2a
 1118 0105 09010000 		.4byte	0x109
 1119 0109 05       		.uleb128 0x5
 1120 010a 29030000 		.4byte	.LASF22
 1121 010e 48       		.byte	0x48
 1122 010f 07       		.byte	0x7
 1123 0110 5E       		.byte	0x5e
 1124 0111 20020000 		.4byte	0x220
 1125 0115 06       		.uleb128 0x6
 1126 0116 0D030000 		.4byte	.LASF23
 1127 011a 07       		.byte	0x7
 1128 011b 5F       		.byte	0x5f
 1129 011c 45020000 		.4byte	0x245
 1130 0120 02       		.byte	0x2
ARM GAS  /tmp/ccsDLGGk.s 			page 21


 1131 0121 23       		.byte	0x23
 1132 0122 00       		.uleb128 0
 1133 0123 06       		.uleb128 0x6
 1134 0124 75020000 		.4byte	.LASF24
 1135 0128 07       		.byte	0x7
 1136 0129 61       		.byte	0x61
 1137 012a 45020000 		.4byte	0x245
 1138 012e 02       		.byte	0x2
 1139 012f 23       		.byte	0x23
 1140 0130 04       		.uleb128 0x4
 1141 0131 06       		.uleb128 0x6
 1142 0132 74000000 		.4byte	.LASF25
 1143 0136 07       		.byte	0x7
 1144 0137 63       		.byte	0x63
 1145 0138 C7000000 		.4byte	0xc7
 1146 013c 02       		.byte	0x2
 1147 013d 23       		.byte	0x23
 1148 013e 08       		.uleb128 0x8
 1149 013f 06       		.uleb128 0x6
 1150 0140 0C040000 		.4byte	.LASF26
 1151 0144 07       		.byte	0x7
 1152 0145 64       		.byte	0x64
 1153 0146 12030000 		.4byte	0x312
 1154 014a 02       		.byte	0x2
 1155 014b 23       		.byte	0x23
 1156 014c 0C       		.uleb128 0xc
 1157 014d 06       		.uleb128 0x6
 1158 014e E8000000 		.4byte	.LASF27
 1159 0152 07       		.byte	0x7
 1160 0153 66       		.byte	0x66
 1161 0154 45020000 		.4byte	0x245
 1162 0158 02       		.byte	0x2
 1163 0159 23       		.byte	0x23
 1164 015a 10       		.uleb128 0x10
 1165 015b 06       		.uleb128 0x6
 1166 015c 31020000 		.4byte	.LASF28
 1167 0160 07       		.byte	0x7
 1168 0161 67       		.byte	0x67
 1169 0162 45020000 		.4byte	0x245
 1170 0166 02       		.byte	0x2
 1171 0167 23       		.byte	0x23
 1172 0168 14       		.uleb128 0x14
 1173 0169 06       		.uleb128 0x6
 1174 016a DE030000 		.4byte	.LASF29
 1175 016e 07       		.byte	0x7
 1176 016f 6E       		.byte	0x6e
 1177 0170 34040000 		.4byte	0x434
 1178 0174 02       		.byte	0x2
 1179 0175 23       		.byte	0x23
 1180 0176 18       		.uleb128 0x18
 1181 0177 06       		.uleb128 0x6
 1182 0178 F7020000 		.4byte	.LASF30
 1183 017c 07       		.byte	0x7
 1184 017d 79       		.byte	0x79
 1185 017e B1000000 		.4byte	0xb1
 1186 0182 02       		.byte	0x2
 1187 0183 23       		.byte	0x23
ARM GAS  /tmp/ccsDLGGk.s 			page 22


 1188 0184 1C       		.uleb128 0x1c
 1189 0185 06       		.uleb128 0x6
 1190 0186 21030000 		.4byte	.LASF31
 1191 018a 07       		.byte	0x7
 1192 018b 7D       		.byte	0x7d
 1193 018c A6000000 		.4byte	0xa6
 1194 0190 02       		.byte	0x2
 1195 0191 23       		.byte	0x23
 1196 0192 1D       		.uleb128 0x1d
 1197 0193 06       		.uleb128 0x6
 1198 0194 AF030000 		.4byte	.LASF32
 1199 0198 07       		.byte	0x7
 1200 0199 82       		.byte	0x82
 1201 019a BC000000 		.4byte	0xbc
 1202 019e 02       		.byte	0x2
 1203 019f 23       		.byte	0x23
 1204 01a0 1E       		.uleb128 0x1e
 1205 01a1 06       		.uleb128 0x6
 1206 01a2 90030000 		.4byte	.LASF33
 1207 01a6 07       		.byte	0x7
 1208 01a7 89       		.byte	0x89
 1209 01a8 3C030000 		.4byte	0x33c
 1210 01ac 02       		.byte	0x2
 1211 01ad 23       		.byte	0x23
 1212 01ae 20       		.uleb128 0x20
 1213 01af 07       		.uleb128 0x7
 1214 01b0 705F7500 		.ascii	"p_u\000"
 1215 01b4 07       		.byte	0x7
 1216 01b5 AE       		.byte	0xae
 1217 01b6 FF030000 		.4byte	0x3ff
 1218 01ba 02       		.byte	0x2
 1219 01bb 23       		.byte	0x23
 1220 01bc 24       		.uleb128 0x24
 1221 01bd 06       		.uleb128 0x6
 1222 01be 12040000 		.4byte	.LASF34
 1223 01c2 07       		.byte	0x7
 1224 01c3 B3       		.byte	0xb3
 1225 01c4 6D020000 		.4byte	0x26d
 1226 01c8 02       		.byte	0x2
 1227 01c9 23       		.byte	0x23
 1228 01ca 28       		.uleb128 0x28
 1229 01cb 06       		.uleb128 0x6
 1230 01cc 9E030000 		.4byte	.LASF35
 1231 01d0 07       		.byte	0x7
 1232 01d1 B9       		.byte	0xb9
 1233 01d2 4B020000 		.4byte	0x24b
 1234 01d6 02       		.byte	0x2
 1235 01d7 23       		.byte	0x23
 1236 01d8 2C       		.uleb128 0x2c
 1237 01d9 06       		.uleb128 0x6
 1238 01da 09000000 		.4byte	.LASF36
 1239 01de 07       		.byte	0x7
 1240 01df BD       		.byte	0xbd
 1241 01e0 D2000000 		.4byte	0xd2
 1242 01e4 02       		.byte	0x2
 1243 01e5 23       		.byte	0x23
 1244 01e6 34       		.uleb128 0x34
ARM GAS  /tmp/ccsDLGGk.s 			page 23


 1245 01e7 06       		.uleb128 0x6
 1246 01e8 30030000 		.4byte	.LASF37
 1247 01ec 07       		.byte	0x7
 1248 01ed C3       		.byte	0xc3
 1249 01ee DD000000 		.4byte	0xdd
 1250 01f2 02       		.byte	0x2
 1251 01f3 23       		.byte	0x23
 1252 01f4 38       		.uleb128 0x38
 1253 01f5 06       		.uleb128 0x6
 1254 01f6 E3020000 		.4byte	.LASF38
 1255 01fa 07       		.byte	0x7
 1256 01fb CA       		.byte	0xca
 1257 01fc 46040000 		.4byte	0x446
 1258 0200 02       		.byte	0x2
 1259 0201 23       		.byte	0x23
 1260 0202 3C       		.uleb128 0x3c
 1261 0203 06       		.uleb128 0x6
 1262 0204 7A030000 		.4byte	.LASF39
 1263 0208 07       		.byte	0x7
 1264 0209 CE       		.byte	0xce
 1265 020a C7000000 		.4byte	0xc7
 1266 020e 02       		.byte	0x2
 1267 020f 23       		.byte	0x23
 1268 0210 40       		.uleb128 0x40
 1269 0211 06       		.uleb128 0x6
 1270 0212 9F000000 		.4byte	.LASF40
 1271 0216 07       		.byte	0x7
 1272 0217 D4       		.byte	0xd4
 1273 0218 83020000 		.4byte	0x283
 1274 021c 02       		.byte	0x2
 1275 021d 23       		.byte	0x23
 1276 021e 44       		.uleb128 0x44
 1277 021f 00       		.byte	0
 1278 0220 08       		.uleb128 0x8
 1279 0221 08       		.byte	0x8
 1280 0222 06       		.byte	0x6
 1281 0223 61       		.byte	0x61
 1282 0224 45020000 		.4byte	0x245
 1283 0228 06       		.uleb128 0x6
 1284 0229 0D030000 		.4byte	.LASF23
 1285 022d 06       		.byte	0x6
 1286 022e 62       		.byte	0x62
 1287 022f 45020000 		.4byte	0x245
 1288 0233 02       		.byte	0x2
 1289 0234 23       		.byte	0x23
 1290 0235 00       		.uleb128 0
 1291 0236 06       		.uleb128 0x6
 1292 0237 75020000 		.4byte	.LASF24
 1293 023b 06       		.byte	0x6
 1294 023c 64       		.byte	0x64
 1295 023d 45020000 		.4byte	0x245
 1296 0241 02       		.byte	0x2
 1297 0242 23       		.byte	0x23
 1298 0243 04       		.uleb128 0x4
 1299 0244 00       		.byte	0
 1300 0245 09       		.uleb128 0x9
 1301 0246 04       		.byte	0x4
ARM GAS  /tmp/ccsDLGGk.s 			page 24


 1302 0247 FE000000 		.4byte	0xfe
 1303 024b 03       		.uleb128 0x3
 1304 024c 3F020000 		.4byte	.LASF41
 1305 0250 06       		.byte	0x6
 1306 0251 66       		.byte	0x66
 1307 0252 20020000 		.4byte	0x220
 1308 0256 08       		.uleb128 0x8
 1309 0257 04       		.byte	0x4
 1310 0258 06       		.byte	0x6
 1311 0259 6B       		.byte	0x6b
 1312 025a 6D020000 		.4byte	0x26d
 1313 025e 06       		.uleb128 0x6
 1314 025f 0D030000 		.4byte	.LASF23
 1315 0263 06       		.byte	0x6
 1316 0264 6D       		.byte	0x6d
 1317 0265 45020000 		.4byte	0x245
 1318 0269 02       		.byte	0x2
 1319 026a 23       		.byte	0x23
 1320 026b 00       		.uleb128 0
 1321 026c 00       		.byte	0
 1322 026d 03       		.uleb128 0x3
 1323 026e D7010000 		.4byte	.LASF42
 1324 0272 06       		.byte	0x6
 1325 0273 70       		.byte	0x70
 1326 0274 56020000 		.4byte	0x256
 1327 0278 03       		.uleb128 0x3
 1328 0279 F8000000 		.4byte	.LASF43
 1329 027d 08       		.byte	0x8
 1330 027e D7       		.byte	0xd7
 1331 027f 83020000 		.4byte	0x283
 1332 0283 0A       		.uleb128 0xa
 1333 0284 04       		.byte	0x4
 1334 0285 05       		.uleb128 0x5
 1335 0286 97030000 		.4byte	.LASF44
 1336 028a 24       		.byte	0x24
 1337 028b 08       		.byte	0x8
 1338 028c FE       		.byte	0xfe
 1339 028d 12030000 		.4byte	0x312
 1340 0291 0B       		.uleb128 0xb
 1341 0292 723400   		.ascii	"r4\000"
 1342 0295 08       		.byte	0x8
 1343 0296 1101     		.2byte	0x111
 1344 0298 78020000 		.4byte	0x278
 1345 029c 02       		.byte	0x2
 1346 029d 23       		.byte	0x23
 1347 029e 00       		.uleb128 0
 1348 029f 0B       		.uleb128 0xb
 1349 02a0 723500   		.ascii	"r5\000"
 1350 02a3 08       		.byte	0x8
 1351 02a4 1201     		.2byte	0x112
 1352 02a6 78020000 		.4byte	0x278
 1353 02aa 02       		.byte	0x2
 1354 02ab 23       		.byte	0x23
 1355 02ac 04       		.uleb128 0x4
 1356 02ad 0B       		.uleb128 0xb
 1357 02ae 723600   		.ascii	"r6\000"
 1358 02b1 08       		.byte	0x8
ARM GAS  /tmp/ccsDLGGk.s 			page 25


 1359 02b2 1301     		.2byte	0x113
 1360 02b4 78020000 		.4byte	0x278
 1361 02b8 02       		.byte	0x2
 1362 02b9 23       		.byte	0x23
 1363 02ba 08       		.uleb128 0x8
 1364 02bb 0B       		.uleb128 0xb
 1365 02bc 723700   		.ascii	"r7\000"
 1366 02bf 08       		.byte	0x8
 1367 02c0 1401     		.2byte	0x114
 1368 02c2 78020000 		.4byte	0x278
 1369 02c6 02       		.byte	0x2
 1370 02c7 23       		.byte	0x23
 1371 02c8 0C       		.uleb128 0xc
 1372 02c9 0B       		.uleb128 0xb
 1373 02ca 723800   		.ascii	"r8\000"
 1374 02cd 08       		.byte	0x8
 1375 02ce 1501     		.2byte	0x115
 1376 02d0 78020000 		.4byte	0x278
 1377 02d4 02       		.byte	0x2
 1378 02d5 23       		.byte	0x23
 1379 02d6 10       		.uleb128 0x10
 1380 02d7 0B       		.uleb128 0xb
 1381 02d8 723900   		.ascii	"r9\000"
 1382 02db 08       		.byte	0x8
 1383 02dc 1601     		.2byte	0x116
 1384 02de 78020000 		.4byte	0x278
 1385 02e2 02       		.byte	0x2
 1386 02e3 23       		.byte	0x23
 1387 02e4 14       		.uleb128 0x14
 1388 02e5 0B       		.uleb128 0xb
 1389 02e6 72313000 		.ascii	"r10\000"
 1390 02ea 08       		.byte	0x8
 1391 02eb 1701     		.2byte	0x117
 1392 02ed 78020000 		.4byte	0x278
 1393 02f1 02       		.byte	0x2
 1394 02f2 23       		.byte	0x23
 1395 02f3 18       		.uleb128 0x18
 1396 02f4 0B       		.uleb128 0xb
 1397 02f5 72313100 		.ascii	"r11\000"
 1398 02f9 08       		.byte	0x8
 1399 02fa 1801     		.2byte	0x118
 1400 02fc 78020000 		.4byte	0x278
 1401 0300 02       		.byte	0x2
 1402 0301 23       		.byte	0x23
 1403 0302 1C       		.uleb128 0x1c
 1404 0303 0B       		.uleb128 0xb
 1405 0304 6C7200   		.ascii	"lr\000"
 1406 0307 08       		.byte	0x8
 1407 0308 1901     		.2byte	0x119
 1408 030a 78020000 		.4byte	0x278
 1409 030e 02       		.byte	0x2
 1410 030f 23       		.byte	0x23
 1411 0310 20       		.uleb128 0x20
 1412 0311 00       		.byte	0
 1413 0312 0C       		.uleb128 0xc
 1414 0313 7C010000 		.4byte	.LASF45
 1415 0317 04       		.byte	0x4
ARM GAS  /tmp/ccsDLGGk.s 			page 26


 1416 0318 08       		.byte	0x8
 1417 0319 2301     		.2byte	0x123
 1418 031b 2F030000 		.4byte	0x32f
 1419 031f 0B       		.uleb128 0xb
 1420 0320 72313300 		.ascii	"r13\000"
 1421 0324 08       		.byte	0x8
 1422 0325 2401     		.2byte	0x124
 1423 0327 2F030000 		.4byte	0x32f
 1424 032b 02       		.byte	0x2
 1425 032c 23       		.byte	0x23
 1426 032d 00       		.uleb128 0
 1427 032e 00       		.byte	0
 1428 032f 09       		.uleb128 0x9
 1429 0330 04       		.byte	0x4
 1430 0331 85020000 		.4byte	0x285
 1431 0335 04       		.uleb128 0x4
 1432 0336 04       		.byte	0x4
 1433 0337 07       		.byte	0x7
 1434 0338 1E020000 		.4byte	.LASF46
 1435 033c 0D       		.uleb128 0xd
 1436 033d E8000000 		.4byte	0xe8
 1437 0341 08       		.uleb128 0x8
 1438 0342 20       		.byte	0x20
 1439 0343 09       		.byte	0x9
 1440 0344 5E       		.byte	0x5e
 1441 0345 AC030000 		.4byte	0x3ac
 1442 0349 06       		.uleb128 0x6
 1443 034a 44030000 		.4byte	.LASF47
 1444 034e 09       		.byte	0x9
 1445 034f 5F       		.byte	0x5f
 1446 0350 4B020000 		.4byte	0x24b
 1447 0354 02       		.byte	0x2
 1448 0355 23       		.byte	0x23
 1449 0356 00       		.uleb128 0
 1450 0357 06       		.uleb128 0x6
 1451 0358 FF020000 		.4byte	.LASF48
 1452 035c 09       		.byte	0x9
 1453 035d 60       		.byte	0x60
 1454 035e C7000000 		.4byte	0xc7
 1455 0362 02       		.byte	0x2
 1456 0363 23       		.byte	0x23
 1457 0364 08       		.uleb128 0x8
 1458 0365 06       		.uleb128 0x6
 1459 0366 39020000 		.4byte	.LASF49
 1460 036a 09       		.byte	0x9
 1461 036b 62       		.byte	0x62
 1462 036c 12030000 		.4byte	0x312
 1463 0370 02       		.byte	0x2
 1464 0371 23       		.byte	0x23
 1465 0372 0C       		.uleb128 0xc
 1466 0373 06       		.uleb128 0x6
 1467 0374 F0000000 		.4byte	.LASF50
 1468 0378 09       		.byte	0x9
 1469 0379 65       		.byte	0x65
 1470 037a 45020000 		.4byte	0x245
 1471 037e 02       		.byte	0x2
 1472 037f 23       		.byte	0x23
ARM GAS  /tmp/ccsDLGGk.s 			page 27


 1473 0380 10       		.uleb128 0x10
 1474 0381 06       		.uleb128 0x6
 1475 0382 5B020000 		.4byte	.LASF51
 1476 0386 09       		.byte	0x9
 1477 0387 66       		.byte	0x66
 1478 0388 45020000 		.4byte	0x245
 1479 038c 02       		.byte	0x2
 1480 038d 23       		.byte	0x23
 1481 038e 14       		.uleb128 0x14
 1482 038f 06       		.uleb128 0x6
 1483 0390 FA030000 		.4byte	.LASF52
 1484 0394 09       		.byte	0x9
 1485 0395 6A       		.byte	0x6a
 1486 0396 F3000000 		.4byte	0xf3
 1487 039a 02       		.byte	0x2
 1488 039b 23       		.byte	0x23
 1489 039c 18       		.uleb128 0x18
 1490 039d 06       		.uleb128 0x6
 1491 039e 51020000 		.4byte	.LASF53
 1492 03a2 09       		.byte	0x9
 1493 03a3 6C       		.byte	0x6c
 1494 03a4 45020000 		.4byte	0x245
 1495 03a8 02       		.byte	0x2
 1496 03a9 23       		.byte	0x23
 1497 03aa 1C       		.uleb128 0x1c
 1498 03ab 00       		.byte	0
 1499 03ac 03       		.uleb128 0x3
 1500 03ad B6030000 		.4byte	.LASF54
 1501 03b1 09       		.byte	0x9
 1502 03b2 6E       		.byte	0x6e
 1503 03b3 41030000 		.4byte	0x341
 1504 03b7 05       		.uleb128 0x5
 1505 03b8 FA010000 		.4byte	.LASF55
 1506 03bc 10       		.byte	0x10
 1507 03bd 0A       		.byte	0xa
 1508 03be 2C       		.byte	0x2c
 1509 03bf EE030000 		.4byte	0x3ee
 1510 03c3 06       		.uleb128 0x6
 1511 03c4 AE000000 		.4byte	.LASF56
 1512 03c8 0A       		.byte	0xa
 1513 03c9 2D       		.byte	0x2d
 1514 03ca 4B020000 		.4byte	0x24b
 1515 03ce 02       		.byte	0x2
 1516 03cf 23       		.byte	0x23
 1517 03d0 00       		.uleb128 0
 1518 03d1 06       		.uleb128 0x6
 1519 03d2 04040000 		.4byte	.LASF57
 1520 03d6 0A       		.byte	0xa
 1521 03d7 2F       		.byte	0x2f
 1522 03d8 45020000 		.4byte	0x245
 1523 03dc 02       		.byte	0x2
 1524 03dd 23       		.byte	0x23
 1525 03de 08       		.uleb128 0x8
 1526 03df 06       		.uleb128 0x6
 1527 03e0 69030000 		.4byte	.LASF58
 1528 03e4 0A       		.byte	0xa
 1529 03e5 31       		.byte	0x31
ARM GAS  /tmp/ccsDLGGk.s 			page 28


 1530 03e6 EE030000 		.4byte	0x3ee
 1531 03ea 02       		.byte	0x2
 1532 03eb 23       		.byte	0x23
 1533 03ec 0C       		.uleb128 0xc
 1534 03ed 00       		.byte	0
 1535 03ee 09       		.uleb128 0x9
 1536 03ef 04       		.byte	0x4
 1537 03f0 B7030000 		.4byte	0x3b7
 1538 03f4 03       		.uleb128 0x3
 1539 03f5 FA010000 		.4byte	.LASF55
 1540 03f9 0A       		.byte	0xa
 1541 03fa 33       		.byte	0x33
 1542 03fb B7030000 		.4byte	0x3b7
 1543 03ff 0E       		.uleb128 0xe
 1544 0400 04       		.byte	0x4
 1545 0401 07       		.byte	0x7
 1546 0402 90       		.byte	0x90
 1547 0403 34040000 		.4byte	0x434
 1548 0407 0F       		.uleb128 0xf
 1549 0408 28000000 		.4byte	.LASF59
 1550 040c 07       		.byte	0x7
 1551 040d 97       		.byte	0x97
 1552 040e D2000000 		.4byte	0xd2
 1553 0412 0F       		.uleb128 0xf
 1554 0413 6B000000 		.4byte	.LASF60
 1555 0417 07       		.byte	0x7
 1556 0418 9E       		.byte	0x9e
 1557 0419 D2000000 		.4byte	0xd2
 1558 041d 0F       		.uleb128 0xf
 1559 041e D7030000 		.4byte	.LASF61
 1560 0422 07       		.byte	0x7
 1561 0423 A5       		.byte	0xa5
 1562 0424 83020000 		.4byte	0x283
 1563 0428 0F       		.uleb128 0xf
 1564 0429 06030000 		.4byte	.LASF62
 1565 042d 07       		.byte	0x7
 1566 042e AC       		.byte	0xac
 1567 042f DD000000 		.4byte	0xdd
 1568 0433 00       		.byte	0
 1569 0434 09       		.uleb128 0x9
 1570 0435 04       		.byte	0x4
 1571 0436 3A040000 		.4byte	0x43a
 1572 043a 10       		.uleb128 0x10
 1573 043b 3F040000 		.4byte	0x43f
 1574 043f 04       		.uleb128 0x4
 1575 0440 01       		.byte	0x1
 1576 0441 08       		.byte	0x8
 1577 0442 58030000 		.4byte	.LASF63
 1578 0446 09       		.uleb128 0x9
 1579 0447 04       		.byte	0x4
 1580 0448 F4030000 		.4byte	0x3f4
 1581 044c 03       		.uleb128 0x3
 1582 044d 00020000 		.4byte	.LASF64
 1583 0451 0B       		.byte	0xb
 1584 0452 37       		.byte	0x37
 1585 0453 57040000 		.4byte	0x457
 1586 0457 05       		.uleb128 0x5
ARM GAS  /tmp/ccsDLGGk.s 			page 29


 1587 0458 00020000 		.4byte	.LASF64
 1588 045c 20       		.byte	0x20
 1589 045d 0B       		.byte	0xb
 1590 045e 45       		.byte	0x45
 1591 045f C6040000 		.4byte	0x4c6
 1592 0463 06       		.uleb128 0x6
 1593 0464 7B000000 		.4byte	.LASF65
 1594 0468 0B       		.byte	0xb
 1595 0469 46       		.byte	0x46
 1596 046a 4B020000 		.4byte	0x24b
 1597 046e 02       		.byte	0x2
 1598 046f 23       		.byte	0x23
 1599 0470 00       		.uleb128 0
 1600 0471 06       		.uleb128 0x6
 1601 0472 27020000 		.4byte	.LASF66
 1602 0476 0B       		.byte	0xb
 1603 0477 47       		.byte	0x47
 1604 0478 30000000 		.4byte	0x30
 1605 047c 02       		.byte	0x2
 1606 047d 23       		.byte	0x23
 1607 047e 08       		.uleb128 0x8
 1608 047f 06       		.uleb128 0x6
 1609 0480 D7000000 		.4byte	.LASF67
 1610 0484 0B       		.byte	0xb
 1611 0485 48       		.byte	0x48
 1612 0486 E9040000 		.4byte	0x4e9
 1613 048a 02       		.byte	0x2
 1614 048b 23       		.byte	0x23
 1615 048c 0C       		.uleb128 0xc
 1616 048d 06       		.uleb128 0x6
 1617 048e A9030000 		.4byte	.LASF68
 1618 0492 0B       		.byte	0xb
 1619 0493 49       		.byte	0x49
 1620 0494 E9040000 		.4byte	0x4e9
 1621 0498 02       		.byte	0x2
 1622 0499 23       		.byte	0x23
 1623 049a 10       		.uleb128 0x10
 1624 049b 06       		.uleb128 0x6
 1625 049c E0000000 		.4byte	.LASF69
 1626 04a0 0B       		.byte	0xb
 1627 04a1 4B       		.byte	0x4b
 1628 04a2 E9040000 		.4byte	0x4e9
 1629 04a6 02       		.byte	0x2
 1630 04a7 23       		.byte	0x23
 1631 04a8 14       		.uleb128 0x14
 1632 04a9 06       		.uleb128 0x6
 1633 04aa 19030000 		.4byte	.LASF70
 1634 04ae 0B       		.byte	0xb
 1635 04af 4C       		.byte	0x4c
 1636 04b0 E9040000 		.4byte	0x4e9
 1637 04b4 02       		.byte	0x2
 1638 04b5 23       		.byte	0x23
 1639 04b6 18       		.uleb128 0x18
 1640 04b7 06       		.uleb128 0x6
 1641 04b8 C0030000 		.4byte	.LASF71
 1642 04bc 0B       		.byte	0xb
 1643 04bd 4D       		.byte	0x4d
ARM GAS  /tmp/ccsDLGGk.s 			page 30


 1644 04be C6040000 		.4byte	0x4c6
 1645 04c2 02       		.byte	0x2
 1646 04c3 23       		.byte	0x23
 1647 04c4 1C       		.uleb128 0x1c
 1648 04c5 00       		.byte	0
 1649 04c6 03       		.uleb128 0x3
 1650 04c7 6B020000 		.4byte	.LASF72
 1651 04cb 0B       		.byte	0xb
 1652 04cc 3A       		.byte	0x3a
 1653 04cd D1040000 		.4byte	0x4d1
 1654 04d1 09       		.uleb128 0x9
 1655 04d2 04       		.byte	0x4
 1656 04d3 D7040000 		.4byte	0x4d7
 1657 04d7 11       		.uleb128 0x11
 1658 04d8 01       		.byte	0x1
 1659 04d9 E3040000 		.4byte	0x4e3
 1660 04dd 12       		.uleb128 0x12
 1661 04de E3040000 		.4byte	0x4e3
 1662 04e2 00       		.byte	0
 1663 04e3 09       		.uleb128 0x9
 1664 04e4 04       		.byte	0x4
 1665 04e5 4C040000 		.4byte	0x44c
 1666 04e9 09       		.uleb128 0x9
 1667 04ea 04       		.byte	0x4
 1668 04eb 49000000 		.4byte	0x49
 1669 04ef 03       		.uleb128 0x3
 1670 04f0 EF010000 		.4byte	.LASF73
 1671 04f4 0B       		.byte	0xb
 1672 04f5 76       		.byte	0x76
 1673 04f6 4C040000 		.4byte	0x44c
 1674 04fa 03       		.uleb128 0x3
 1675 04fb 38000000 		.4byte	.LASF74
 1676 04ff 0B       		.byte	0xb
 1677 0500 E6       		.byte	0xe6
 1678 0501 4C040000 		.4byte	0x44c
 1679 0505 09       		.uleb128 0x9
 1680 0506 04       		.byte	0x4
 1681 0507 0B050000 		.4byte	0x50b
 1682 050b 10       		.uleb128 0x10
 1683 050c 49000000 		.4byte	0x49
 1684 0510 13       		.uleb128 0x13
 1685 0511 0F000000 		.4byte	.LASF92
 1686 0515 02       		.byte	0x2
 1687 0516 34       		.byte	0x34
 1688 0517 01       		.byte	0x1
 1689 0518 03       		.byte	0x3
 1690 0519 33050000 		.4byte	0x533
 1691 051d 14       		.uleb128 0x14
 1692 051e 747000   		.ascii	"tp\000"
 1693 0521 02       		.byte	0x2
 1694 0522 34       		.byte	0x34
 1695 0523 45020000 		.4byte	0x245
 1696 0527 14       		.uleb128 0x14
 1697 0528 74717000 		.ascii	"tqp\000"
 1698 052c 02       		.byte	0x2
 1699 052d 34       		.byte	0x34
 1700 052e 33050000 		.4byte	0x533
ARM GAS  /tmp/ccsDLGGk.s 			page 31


 1701 0532 00       		.byte	0
 1702 0533 09       		.uleb128 0x9
 1703 0534 04       		.byte	0x4
 1704 0535 4B020000 		.4byte	0x24b
 1705 0539 15       		.uleb128 0x15
 1706 053a 5D030000 		.4byte	.LASF93
 1707 053e 02       		.byte	0x2
 1708 053f 3B       		.byte	0x3b
 1709 0540 01       		.byte	0x1
 1710 0541 45020000 		.4byte	0x245
 1711 0545 03       		.byte	0x3
 1712 0546 60050000 		.4byte	0x560
 1713 054a 14       		.uleb128 0x14
 1714 054b 74717000 		.ascii	"tqp\000"
 1715 054f 02       		.byte	0x2
 1716 0550 3B       		.byte	0x3b
 1717 0551 33050000 		.4byte	0x533
 1718 0555 16       		.uleb128 0x16
 1719 0556 747000   		.ascii	"tp\000"
 1720 0559 02       		.byte	0x2
 1721 055a 3C       		.byte	0x3c
 1722 055b 45020000 		.4byte	0x245
 1723 055f 00       		.byte	0
 1724 0560 17       		.uleb128 0x17
 1725 0561 B6000000 		.4byte	.LASF94
 1726 0565 01       		.byte	0x1
 1727 0566 48       		.byte	0x48
 1728 0567 01       		.byte	0x1
 1729 0568 D2000000 		.4byte	0xd2
 1730 056c 00000000 		.4byte	.LFB7
 1731 0570 2C000000 		.4byte	.LFE7
 1732 0574 00000000 		.4byte	.LLST0
 1733 0578 01       		.byte	0x1
 1734 0579 D8050000 		.4byte	0x5d8
 1735 057d 18       		.uleb128 0x18
 1736 057e 717000   		.ascii	"qp\000"
 1737 0581 01       		.byte	0x1
 1738 0582 48       		.byte	0x48
 1739 0583 E3040000 		.4byte	0x4e3
 1740 0587 20000000 		.4byte	.LLST1
 1741 058b 19       		.uleb128 0x19
 1742 058c 4C020000 		.4byte	.LASF75
 1743 0590 01       		.byte	0x1
 1744 0591 48       		.byte	0x48
 1745 0592 E8000000 		.4byte	0xe8
 1746 0596 62000000 		.4byte	.LLST2
 1747 059a 1A       		.uleb128 0x1a
 1748 059b 10050000 		.4byte	0x510
 1749 059f 0C000000 		.4byte	.LBB12
 1750 05a3 00000000 		.4byte	.Ldebug_ranges0+0
 1751 05a7 01       		.byte	0x1
 1752 05a8 4D       		.byte	0x4d
 1753 05a9 C0050000 		.4byte	0x5c0
 1754 05ad 1B       		.uleb128 0x1b
 1755 05ae 27050000 		.4byte	0x527
 1756 05b2 8E000000 		.4byte	.LLST3
 1757 05b6 1B       		.uleb128 0x1b
ARM GAS  /tmp/ccsDLGGk.s 			page 32


 1758 05b7 1D050000 		.4byte	0x51d
 1759 05bb BA000000 		.4byte	.LLST4
 1760 05bf 00       		.byte	0
 1761 05c0 1C       		.uleb128 0x1c
 1762 05c1 1E000000 		.4byte	.LVL3
 1763 05c5 01       		.byte	0x1
 1764 05c6 140C0000 		.4byte	0xc14
 1765 05ca 1D       		.uleb128 0x1d
 1766 05cb 01       		.byte	0x1
 1767 05cc 51       		.byte	0x51
 1768 05cd 03       		.byte	0x3
 1769 05ce F3       		.byte	0xf3
 1770 05cf 01       		.uleb128 0x1
 1771 05d0 51       		.byte	0x51
 1772 05d1 1D       		.uleb128 0x1d
 1773 05d2 01       		.byte	0x1
 1774 05d3 50       		.byte	0x50
 1775 05d4 01       		.byte	0x1
 1776 05d5 3D       		.byte	0x3d
 1777 05d6 00       		.byte	0
 1778 05d7 00       		.byte	0
 1779 05d8 1E       		.uleb128 0x1e
 1780 05d9 01       		.byte	0x1
 1781 05da 2F000000 		.4byte	.LASF78
 1782 05de 01       		.byte	0x1
 1783 05df 60       		.byte	0x60
 1784 05e0 01       		.byte	0x1
 1785 05e1 00000000 		.4byte	.LFB8
 1786 05e5 1A000000 		.4byte	.LFE8
 1787 05e9 CD000000 		.4byte	.LLST5
 1788 05ed 01       		.byte	0x1
 1789 05ee 28060000 		.4byte	0x628
 1790 05f2 1F       		.uleb128 0x1f
 1791 05f3 69717000 		.ascii	"iqp\000"
 1792 05f7 01       		.byte	0x1
 1793 05f8 60       		.byte	0x60
 1794 05f9 28060000 		.4byte	0x628
 1795 05fd 01       		.byte	0x1
 1796 05fe 50       		.byte	0x50
 1797 05ff 1F       		.uleb128 0x1f
 1798 0600 627000   		.ascii	"bp\000"
 1799 0603 01       		.byte	0x1
 1800 0604 60       		.byte	0x60
 1801 0605 E9040000 		.4byte	0x4e9
 1802 0609 01       		.byte	0x1
 1803 060a 51       		.byte	0x51
 1804 060b 19       		.uleb128 0x19
 1805 060c 84010000 		.4byte	.LASF76
 1806 0610 01       		.byte	0x1
 1807 0611 60       		.byte	0x60
 1808 0612 30000000 		.4byte	0x30
 1809 0616 ED000000 		.4byte	.LLST6
 1810 061a 20       		.uleb128 0x20
 1811 061b 14030000 		.4byte	.LASF77
 1812 061f 01       		.byte	0x1
 1813 0620 60       		.byte	0x60
 1814 0621 C6040000 		.4byte	0x4c6
ARM GAS  /tmp/ccsDLGGk.s 			page 33


 1815 0625 01       		.byte	0x1
 1816 0626 53       		.byte	0x53
 1817 0627 00       		.byte	0
 1818 0628 09       		.uleb128 0x9
 1819 0629 04       		.byte	0x4
 1820 062a EF040000 		.4byte	0x4ef
 1821 062e 1E       		.uleb128 0x1e
 1822 062f 01       		.byte	0x1
 1823 0630 2C010000 		.4byte	.LASF79
 1824 0634 01       		.byte	0x1
 1825 0635 74       		.byte	0x74
 1826 0636 01       		.byte	0x1
 1827 0637 00000000 		.4byte	.LFB9
 1828 063b 2C000000 		.4byte	.LFE9
 1829 063f 0E010000 		.4byte	.LLST7
 1830 0643 01       		.byte	0x1
 1831 0644 91060000 		.4byte	0x691
 1832 0648 18       		.uleb128 0x18
 1833 0649 69717000 		.ascii	"iqp\000"
 1834 064d 01       		.byte	0x1
 1835 064e 74       		.byte	0x74
 1836 064f 28060000 		.4byte	0x628
 1837 0653 2E010000 		.4byte	.LLST8
 1838 0657 21       		.uleb128 0x21
 1839 0658 39050000 		.4byte	0x539
 1840 065c 18000000 		.4byte	.LBB16
 1841 0660 1E000000 		.4byte	.LBE16
 1842 0664 01       		.byte	0x1
 1843 0665 7B       		.byte	0x7b
 1844 0666 87060000 		.4byte	0x687
 1845 066a 1B       		.uleb128 0x1b
 1846 066b 4A050000 		.4byte	0x54a
 1847 066f 4C010000 		.4byte	.LLST9
 1848 0673 22       		.uleb128 0x22
 1849 0674 18000000 		.4byte	.LBB17
 1850 0678 1E000000 		.4byte	.LBE17
 1851 067c 23       		.uleb128 0x23
 1852 067d 55050000 		.4byte	0x555
 1853 0681 5F010000 		.4byte	.LLST10
 1854 0685 00       		.byte	0
 1855 0686 00       		.byte	0
 1856 0687 24       		.uleb128 0x24
 1857 0688 22000000 		.4byte	.LVL10
 1858 068c 310C0000 		.4byte	0xc31
 1859 0690 00       		.byte	0
 1860 0691 25       		.uleb128 0x25
 1861 0692 01       		.byte	0x1
 1862 0693 10010000 		.4byte	.LASF80
 1863 0697 01       		.byte	0x1
 1864 0698 8B       		.byte	0x8b
 1865 0699 01       		.byte	0x1
 1866 069a D2000000 		.4byte	0xd2
 1867 069e 00000000 		.4byte	.LFB10
 1868 06a2 4A000000 		.4byte	.LFE10
 1869 06a6 72010000 		.4byte	.LLST11
 1870 06aa 01       		.byte	0x1
 1871 06ab 05070000 		.4byte	0x705
ARM GAS  /tmp/ccsDLGGk.s 			page 34


 1872 06af 18       		.uleb128 0x18
 1873 06b0 69717000 		.ascii	"iqp\000"
 1874 06b4 01       		.byte	0x1
 1875 06b5 8B       		.byte	0x8b
 1876 06b6 28060000 		.4byte	0x628
 1877 06ba 92010000 		.4byte	.LLST12
 1878 06be 18       		.uleb128 0x18
 1879 06bf 6200     		.ascii	"b\000"
 1880 06c1 01       		.byte	0x1
 1881 06c2 8B       		.byte	0x8b
 1882 06c3 49000000 		.4byte	0x49
 1883 06c7 C9010000 		.4byte	.LLST13
 1884 06cb 21       		.uleb128 0x21
 1885 06cc 39050000 		.4byte	0x539
 1886 06d0 2A000000 		.4byte	.LBB18
 1887 06d4 30000000 		.4byte	.LBE18
 1888 06d8 01       		.byte	0x1
 1889 06d9 98       		.byte	0x98
 1890 06da FB060000 		.4byte	0x6fb
 1891 06de 1B       		.uleb128 0x1b
 1892 06df 4A050000 		.4byte	0x54a
 1893 06e3 0F020000 		.4byte	.LLST14
 1894 06e7 22       		.uleb128 0x22
 1895 06e8 2A000000 		.4byte	.LBB19
 1896 06ec 30000000 		.4byte	.LBE19
 1897 06f0 23       		.uleb128 0x23
 1898 06f1 55050000 		.4byte	0x555
 1899 06f5 30020000 		.4byte	.LLST15
 1900 06f9 00       		.byte	0
 1901 06fa 00       		.byte	0
 1902 06fb 24       		.uleb128 0x24
 1903 06fc 34000000 		.4byte	.LVL16
 1904 0700 310C0000 		.4byte	0xc31
 1905 0704 00       		.byte	0
 1906 0705 25       		.uleb128 0x25
 1907 0706 01       		.byte	0x1
 1908 0707 1C040000 		.4byte	.LASF81
 1909 070b 01       		.byte	0x1
 1910 070c B1       		.byte	0xb1
 1911 070d 01       		.byte	0x1
 1912 070e D2000000 		.4byte	0xd2
 1913 0712 00000000 		.4byte	.LFB11
 1914 0716 48000000 		.4byte	.LFE11
 1915 071a 43020000 		.4byte	.LLST16
 1916 071e 01       		.byte	0x1
 1917 071f DD070000 		.4byte	0x7dd
 1918 0723 18       		.uleb128 0x18
 1919 0724 69717000 		.ascii	"iqp\000"
 1920 0728 01       		.byte	0x1
 1921 0729 B1       		.byte	0xb1
 1922 072a 28060000 		.4byte	0x628
 1923 072e 63020000 		.4byte	.LLST17
 1924 0732 19       		.uleb128 0x19
 1925 0733 4C020000 		.4byte	.LASF75
 1926 0737 01       		.byte	0x1
 1927 0738 B1       		.byte	0xb1
 1928 0739 E8000000 		.4byte	0xe8
ARM GAS  /tmp/ccsDLGGk.s 			page 35


 1929 073d AD020000 		.4byte	.LLST18
 1930 0741 26       		.uleb128 0x26
 1931 0742 6200     		.ascii	"b\000"
 1932 0744 01       		.byte	0x1
 1933 0745 B2       		.byte	0xb2
 1934 0746 49000000 		.4byte	0x49
 1935 074a 03       		.byte	0x3
 1936 074b 74       		.byte	0x74
 1937 074c 18       		.sleb128 24
 1938 074d 06       		.byte	0x6
 1939 074e 27       		.uleb128 0x27
 1940 074f 18000000 		.4byte	.Ldebug_ranges0+0x18
 1941 0753 67070000 		.4byte	0x767
 1942 0757 28       		.uleb128 0x28
 1943 0758 746D7000 		.ascii	"tmp\000"
 1944 075c 01       		.byte	0x1
 1945 075d B4       		.byte	0xb4
 1946 075e 7B000000 		.4byte	0x7b
 1947 0762 F7020000 		.4byte	.LLST19
 1948 0766 00       		.byte	0
 1949 0767 27       		.uleb128 0x27
 1950 0768 30000000 		.4byte	.Ldebug_ranges0+0x30
 1951 076c B3070000 		.4byte	0x7b3
 1952 0770 28       		.uleb128 0x28
 1953 0771 6D736700 		.ascii	"msg\000"
 1954 0775 01       		.byte	0x1
 1955 0776 B9       		.byte	0xb9
 1956 0777 D2000000 		.4byte	0xd2
 1957 077b 0A030000 		.4byte	.LLST20
 1958 077f 29       		.uleb128 0x29
 1959 0780 22000000 		.4byte	.LBB23
 1960 0784 28000000 		.4byte	.LBE23
 1961 0788 9C070000 		.4byte	0x79c
 1962 078c 28       		.uleb128 0x28
 1963 078d 746D7000 		.ascii	"tmp\000"
 1964 0791 01       		.byte	0x1
 1965 0792 BB       		.byte	0xbb
 1966 0793 7B000000 		.4byte	0x7b
 1967 0797 1D030000 		.4byte	.LLST21
 1968 079b 00       		.byte	0
 1969 079c 2A       		.uleb128 0x2a
 1970 079d 1E000000 		.4byte	.LVL25
 1971 07a1 60050000 		.4byte	0x560
 1972 07a5 1D       		.uleb128 0x1d
 1973 07a6 01       		.byte	0x1
 1974 07a7 51       		.byte	0x51
 1975 07a8 02       		.byte	0x2
 1976 07a9 76       		.byte	0x76
 1977 07aa 00       		.sleb128 0
 1978 07ab 1D       		.uleb128 0x1d
 1979 07ac 01       		.byte	0x1
 1980 07ad 50       		.byte	0x50
 1981 07ae 02       		.byte	0x2
 1982 07af 74       		.byte	0x74
 1983 07b0 00       		.sleb128 0
 1984 07b1 00       		.byte	0
 1985 07b2 00       		.byte	0
ARM GAS  /tmp/ccsDLGGk.s 			page 36


 1986 07b3 29       		.uleb128 0x29
 1987 07b4 40000000 		.4byte	.LBB25
 1988 07b8 46000000 		.4byte	.LBE25
 1989 07bc D0070000 		.4byte	0x7d0
 1990 07c0 28       		.uleb128 0x28
 1991 07c1 746D7000 		.ascii	"tmp\000"
 1992 07c5 01       		.byte	0x1
 1993 07c6 C5       		.byte	0xc5
 1994 07c7 7B000000 		.4byte	0x7b
 1995 07cb 30030000 		.4byte	.LLST22
 1996 07cf 00       		.byte	0
 1997 07d0 2B       		.uleb128 0x2b
 1998 07d1 12000000 		.4byte	.LVL23
 1999 07d5 1D       		.uleb128 0x1d
 2000 07d6 01       		.byte	0x1
 2001 07d7 50       		.byte	0x50
 2002 07d8 02       		.byte	0x2
 2003 07d9 74       		.byte	0x74
 2004 07da 00       		.sleb128 0
 2005 07db 00       		.byte	0
 2006 07dc 00       		.byte	0
 2007 07dd 25       		.uleb128 0x25
 2008 07de 01       		.byte	0x1
 2009 07df 44000000 		.4byte	.LASF82
 2010 07e3 01       		.byte	0x1
 2011 07e4 E1       		.byte	0xe1
 2012 07e5 01       		.byte	0x1
 2013 07e6 30000000 		.4byte	0x30
 2014 07ea 00000000 		.4byte	.LFB12
 2015 07ee 72000000 		.4byte	.LFE12
 2016 07f2 43030000 		.4byte	.LLST23
 2017 07f6 01       		.byte	0x1
 2018 07f7 E5080000 		.4byte	0x8e5
 2019 07fb 18       		.uleb128 0x18
 2020 07fc 69717000 		.ascii	"iqp\000"
 2021 0800 01       		.byte	0x1
 2022 0801 E1       		.byte	0xe1
 2023 0802 28060000 		.4byte	0x628
 2024 0806 63030000 		.4byte	.LLST24
 2025 080a 18       		.uleb128 0x18
 2026 080b 627000   		.ascii	"bp\000"
 2027 080e 01       		.byte	0x1
 2028 080f E1       		.byte	0xe1
 2029 0810 E9040000 		.4byte	0x4e9
 2030 0814 AD030000 		.4byte	.LLST25
 2031 0818 18       		.uleb128 0x18
 2032 0819 6E00     		.ascii	"n\000"
 2033 081b 01       		.byte	0x1
 2034 081c E2       		.byte	0xe2
 2035 081d 30000000 		.4byte	0x30
 2036 0821 C0030000 		.4byte	.LLST26
 2037 0825 19       		.uleb128 0x19
 2038 0826 4C020000 		.4byte	.LASF75
 2039 082a 01       		.byte	0x1
 2040 082b E2       		.byte	0xe2
 2041 082c E8000000 		.4byte	0xe8
 2042 0830 D3030000 		.4byte	.LLST27
ARM GAS  /tmp/ccsDLGGk.s 			page 37


 2043 0834 26       		.uleb128 0x26
 2044 0835 6E667900 		.ascii	"nfy\000"
 2045 0839 01       		.byte	0x1
 2046 083a E3       		.byte	0xe3
 2047 083b C6040000 		.4byte	0x4c6
 2048 083f 01       		.byte	0x1
 2049 0840 57       		.byte	0x57
 2050 0841 28       		.uleb128 0x28
 2051 0842 7200     		.ascii	"r\000"
 2052 0844 01       		.byte	0x1
 2053 0845 E4       		.byte	0xe4
 2054 0846 30000000 		.4byte	0x30
 2055 084a 12040000 		.4byte	.LLST28
 2056 084e 27       		.uleb128 0x27
 2057 084f 48000000 		.4byte	.Ldebug_ranges0+0x48
 2058 0853 67080000 		.4byte	0x867
 2059 0857 28       		.uleb128 0x28
 2060 0858 746D7000 		.ascii	"tmp\000"
 2061 085c 01       		.byte	0x1
 2062 085d E8       		.byte	0xe8
 2063 085e 7B000000 		.4byte	0x7b
 2064 0862 31040000 		.4byte	.LLST29
 2065 0866 00       		.byte	0
 2066 0867 29       		.uleb128 0x29
 2067 0868 32000000 		.4byte	.LBB28
 2068 086c 38000000 		.4byte	.LBE28
 2069 0870 84080000 		.4byte	0x884
 2070 0874 28       		.uleb128 0x28
 2071 0875 746D7000 		.ascii	"tmp\000"
 2072 0879 01       		.byte	0x1
 2073 087a EF       		.byte	0xef
 2074 087b 7B000000 		.4byte	0x7b
 2075 087f 5A040000 		.4byte	.LLST30
 2076 0883 00       		.byte	0
 2077 0884 29       		.uleb128 0x29
 2078 0885 58000000 		.4byte	.LBB29
 2079 0889 5E000000 		.4byte	.LBE29
 2080 088d A1080000 		.4byte	0x8a1
 2081 0891 28       		.uleb128 0x28
 2082 0892 746D7000 		.ascii	"tmp\000"
 2083 0896 01       		.byte	0x1
 2084 0897 F9       		.byte	0xf9
 2085 0898 7B000000 		.4byte	0x7b
 2086 089c 6D040000 		.4byte	.LLST31
 2087 08a0 00       		.byte	0
 2088 08a1 29       		.uleb128 0x29
 2089 08a2 66000000 		.4byte	.LBB30
 2090 08a6 70000000 		.4byte	.LBE30
 2091 08aa BE080000 		.4byte	0x8be
 2092 08ae 28       		.uleb128 0x28
 2093 08af 746D7000 		.ascii	"tmp\000"
 2094 08b3 01       		.byte	0x1
 2095 08b4 FE       		.byte	0xfe
 2096 08b5 7B000000 		.4byte	0x7b
 2097 08b9 8B040000 		.4byte	.LLST32
 2098 08bd 00       		.byte	0
 2099 08be 2C       		.uleb128 0x2c
ARM GAS  /tmp/ccsDLGGk.s 			page 38


 2100 08bf 22000000 		.4byte	.LVL38
 2101 08c3 CE080000 		.4byte	0x8ce
 2102 08c7 1D       		.uleb128 0x1d
 2103 08c8 01       		.byte	0x1
 2104 08c9 50       		.byte	0x50
 2105 08ca 02       		.byte	0x2
 2106 08cb 74       		.byte	0x74
 2107 08cc 00       		.sleb128 0
 2108 08cd 00       		.byte	0
 2109 08ce 2A       		.uleb128 0x2a
 2110 08cf 2E000000 		.4byte	.LVL40
 2111 08d3 60050000 		.4byte	0x560
 2112 08d7 1D       		.uleb128 0x1d
 2113 08d8 01       		.byte	0x1
 2114 08d9 51       		.byte	0x51
 2115 08da 02       		.byte	0x2
 2116 08db 76       		.byte	0x76
 2117 08dc 00       		.sleb128 0
 2118 08dd 1D       		.uleb128 0x1d
 2119 08de 01       		.byte	0x1
 2120 08df 50       		.byte	0x50
 2121 08e0 02       		.byte	0x2
 2122 08e1 74       		.byte	0x74
 2123 08e2 00       		.sleb128 0
 2124 08e3 00       		.byte	0
 2125 08e4 00       		.byte	0
 2126 08e5 2D       		.uleb128 0x2d
 2127 08e6 01       		.byte	0x1
 2128 08e7 00000000 		.4byte	.LASF83
 2129 08eb 01       		.byte	0x1
 2130 08ec 1101     		.2byte	0x111
 2131 08ee 01       		.byte	0x1
 2132 08ef 00000000 		.4byte	.LFB13
 2133 08f3 18000000 		.4byte	.LFE13
 2134 08f7 BF040000 		.4byte	.LLST33
 2135 08fb 01       		.byte	0x1
 2136 08fc 38090000 		.4byte	0x938
 2137 0900 2E       		.uleb128 0x2e
 2138 0901 6F717000 		.ascii	"oqp\000"
 2139 0905 01       		.byte	0x1
 2140 0906 1101     		.2byte	0x111
 2141 0908 38090000 		.4byte	0x938
 2142 090c 01       		.byte	0x1
 2143 090d 50       		.byte	0x50
 2144 090e 2E       		.uleb128 0x2e
 2145 090f 627000   		.ascii	"bp\000"
 2146 0912 01       		.byte	0x1
 2147 0913 1101     		.2byte	0x111
 2148 0915 E9040000 		.4byte	0x4e9
 2149 0919 01       		.byte	0x1
 2150 091a 51       		.byte	0x51
 2151 091b 2F       		.uleb128 0x2f
 2152 091c 84010000 		.4byte	.LASF76
 2153 0920 01       		.byte	0x1
 2154 0921 1101     		.2byte	0x111
 2155 0923 30000000 		.4byte	0x30
 2156 0927 01       		.byte	0x1
ARM GAS  /tmp/ccsDLGGk.s 			page 39


 2157 0928 52       		.byte	0x52
 2158 0929 2F       		.uleb128 0x2f
 2159 092a 1C000000 		.4byte	.LASF84
 2160 092e 01       		.byte	0x1
 2161 092f 1101     		.2byte	0x111
 2162 0931 C6040000 		.4byte	0x4c6
 2163 0935 01       		.byte	0x1
 2164 0936 53       		.byte	0x53
 2165 0937 00       		.byte	0
 2166 0938 09       		.uleb128 0x9
 2167 0939 04       		.byte	0x4
 2168 093a FA040000 		.4byte	0x4fa
 2169 093e 2D       		.uleb128 0x2d
 2170 093f 01       		.byte	0x1
 2171 0940 85030000 		.4byte	.LASF85
 2172 0944 01       		.byte	0x1
 2173 0945 2501     		.2byte	0x125
 2174 0947 01       		.byte	0x1
 2175 0948 00000000 		.4byte	.LFB14
 2176 094c 2E000000 		.4byte	.LFE14
 2177 0950 DF040000 		.4byte	.LLST34
 2178 0954 01       		.byte	0x1
 2179 0955 A4090000 		.4byte	0x9a4
 2180 0959 30       		.uleb128 0x30
 2181 095a 6F717000 		.ascii	"oqp\000"
 2182 095e 01       		.byte	0x1
 2183 095f 2501     		.2byte	0x125
 2184 0961 38090000 		.4byte	0x938
 2185 0965 FF040000 		.4byte	.LLST35
 2186 0969 31       		.uleb128 0x31
 2187 096a 39050000 		.4byte	0x539
 2188 096e 1A000000 		.4byte	.LBB31
 2189 0972 20000000 		.4byte	.LBE31
 2190 0976 01       		.byte	0x1
 2191 0977 2C01     		.2byte	0x12c
 2192 0979 9A090000 		.4byte	0x99a
 2193 097d 1B       		.uleb128 0x1b
 2194 097e 4A050000 		.4byte	0x54a
 2195 0982 1D050000 		.4byte	.LLST36
 2196 0986 22       		.uleb128 0x22
 2197 0987 1A000000 		.4byte	.LBB32
 2198 098b 20000000 		.4byte	.LBE32
 2199 098f 23       		.uleb128 0x23
 2200 0990 55050000 		.4byte	0x555
 2201 0994 30050000 		.4byte	.LLST37
 2202 0998 00       		.byte	0
 2203 0999 00       		.byte	0
 2204 099a 24       		.uleb128 0x24
 2205 099b 24000000 		.4byte	.LVL54
 2206 099f 310C0000 		.4byte	0xc31
 2207 09a3 00       		.byte	0
 2208 09a4 32       		.uleb128 0x32
 2209 09a5 01       		.byte	0x1
 2210 09a6 01010000 		.4byte	.LASF86
 2211 09aa 01       		.byte	0x1
 2212 09ab 4501     		.2byte	0x145
 2213 09ad 01       		.byte	0x1
ARM GAS  /tmp/ccsDLGGk.s 			page 40


 2214 09ae D2000000 		.4byte	0xd2
 2215 09b2 00000000 		.4byte	.LFB15
 2216 09b6 50000000 		.4byte	.LFE15
 2217 09ba 43050000 		.4byte	.LLST38
 2218 09be 01       		.byte	0x1
 2219 09bf 880A0000 		.4byte	0xa88
 2220 09c3 30       		.uleb128 0x30
 2221 09c4 6F717000 		.ascii	"oqp\000"
 2222 09c8 01       		.byte	0x1
 2223 09c9 4501     		.2byte	0x145
 2224 09cb 38090000 		.4byte	0x938
 2225 09cf 63050000 		.4byte	.LLST39
 2226 09d3 30       		.uleb128 0x30
 2227 09d4 6200     		.ascii	"b\000"
 2228 09d6 01       		.byte	0x1
 2229 09d7 4501     		.2byte	0x145
 2230 09d9 49000000 		.4byte	0x49
 2231 09dd AD050000 		.4byte	.LLST40
 2232 09e1 33       		.uleb128 0x33
 2233 09e2 4C020000 		.4byte	.LASF75
 2234 09e6 01       		.byte	0x1
 2235 09e7 4501     		.2byte	0x145
 2236 09e9 E8000000 		.4byte	0xe8
 2237 09ed CE050000 		.4byte	.LLST41
 2238 09f1 29       		.uleb128 0x29
 2239 09f2 08000000 		.4byte	.LBB33
 2240 09f6 0E000000 		.4byte	.LBE33
 2241 09fa 0F0A0000 		.4byte	0xa0f
 2242 09fe 34       		.uleb128 0x34
 2243 09ff 746D7000 		.ascii	"tmp\000"
 2244 0a03 01       		.byte	0x1
 2245 0a04 4701     		.2byte	0x147
 2246 0a06 7B000000 		.4byte	0x7b
 2247 0a0a 18060000 		.4byte	.LLST42
 2248 0a0e 00       		.byte	0
 2249 0a0f 27       		.uleb128 0x27
 2250 0a10 60000000 		.4byte	.Ldebug_ranges0+0x60
 2251 0a14 5D0A0000 		.4byte	0xa5d
 2252 0a18 34       		.uleb128 0x34
 2253 0a19 6D736700 		.ascii	"msg\000"
 2254 0a1d 01       		.byte	0x1
 2255 0a1e 4901     		.2byte	0x149
 2256 0a20 D2000000 		.4byte	0xd2
 2257 0a24 36060000 		.4byte	.LLST43
 2258 0a28 29       		.uleb128 0x29
 2259 0a29 1E000000 		.4byte	.LBB35
 2260 0a2d 24000000 		.4byte	.LBE35
 2261 0a31 460A0000 		.4byte	0xa46
 2262 0a35 34       		.uleb128 0x34
 2263 0a36 746D7000 		.ascii	"tmp\000"
 2264 0a3a 01       		.byte	0x1
 2265 0a3b 4C01     		.2byte	0x14c
 2266 0a3d 7B000000 		.4byte	0x7b
 2267 0a41 49060000 		.4byte	.LLST44
 2268 0a45 00       		.byte	0
 2269 0a46 2A       		.uleb128 0x2a
 2270 0a47 1A000000 		.4byte	.LVL60
ARM GAS  /tmp/ccsDLGGk.s 			page 41


 2271 0a4b 60050000 		.4byte	0x560
 2272 0a4f 1D       		.uleb128 0x1d
 2273 0a50 01       		.byte	0x1
 2274 0a51 51       		.byte	0x51
 2275 0a52 02       		.byte	0x2
 2276 0a53 76       		.byte	0x76
 2277 0a54 00       		.sleb128 0
 2278 0a55 1D       		.uleb128 0x1d
 2279 0a56 01       		.byte	0x1
 2280 0a57 50       		.byte	0x50
 2281 0a58 02       		.byte	0x2
 2282 0a59 74       		.byte	0x74
 2283 0a5a 00       		.sleb128 0
 2284 0a5b 00       		.byte	0
 2285 0a5c 00       		.byte	0
 2286 0a5d 29       		.uleb128 0x29
 2287 0a5e 46000000 		.4byte	.LBB37
 2288 0a62 4C000000 		.4byte	.LBE37
 2289 0a66 7B0A0000 		.4byte	0xa7b
 2290 0a6a 34       		.uleb128 0x34
 2291 0a6b 746D7000 		.ascii	"tmp\000"
 2292 0a6f 01       		.byte	0x1
 2293 0a70 5901     		.2byte	0x159
 2294 0a72 7B000000 		.4byte	0x7b
 2295 0a76 5C060000 		.4byte	.LLST45
 2296 0a7a 00       		.byte	0
 2297 0a7b 2B       		.uleb128 0x2b
 2298 0a7c 46000000 		.4byte	.LVL67
 2299 0a80 1D       		.uleb128 0x1d
 2300 0a81 01       		.byte	0x1
 2301 0a82 50       		.byte	0x50
 2302 0a83 02       		.byte	0x2
 2303 0a84 74       		.byte	0x74
 2304 0a85 00       		.sleb128 0
 2305 0a86 00       		.byte	0
 2306 0a87 00       		.byte	0
 2307 0a88 32       		.uleb128 0x32
 2308 0a89 01       		.byte	0x1
 2309 0a8a CE000000 		.4byte	.LASF87
 2310 0a8e 01       		.byte	0x1
 2311 0a8f 6701     		.2byte	0x167
 2312 0a91 01       		.byte	0x1
 2313 0a92 D2000000 		.4byte	0xd2
 2314 0a96 00000000 		.4byte	.LFB16
 2315 0a9a 46000000 		.4byte	.LFE16
 2316 0a9e 6F060000 		.4byte	.LLST46
 2317 0aa2 01       		.byte	0x1
 2318 0aa3 000B0000 		.4byte	0xb00
 2319 0aa7 30       		.uleb128 0x30
 2320 0aa8 6F717000 		.ascii	"oqp\000"
 2321 0aac 01       		.byte	0x1
 2322 0aad 6701     		.2byte	0x167
 2323 0aaf 38090000 		.4byte	0x938
 2324 0ab3 8F060000 		.4byte	.LLST47
 2325 0ab7 34       		.uleb128 0x34
 2326 0ab8 6200     		.ascii	"b\000"
 2327 0aba 01       		.byte	0x1
ARM GAS  /tmp/ccsDLGGk.s 			page 42


 2328 0abb 6801     		.2byte	0x168
 2329 0abd 49000000 		.4byte	0x49
 2330 0ac1 C6060000 		.4byte	.LLST48
 2331 0ac5 31       		.uleb128 0x31
 2332 0ac6 39050000 		.4byte	0x539
 2333 0aca 2A000000 		.4byte	.LBB38
 2334 0ace 30000000 		.4byte	.LBE38
 2335 0ad2 01       		.byte	0x1
 2336 0ad3 7501     		.2byte	0x175
 2337 0ad5 F60A0000 		.4byte	0xaf6
 2338 0ad9 1B       		.uleb128 0x1b
 2339 0ada 4A050000 		.4byte	0x54a
 2340 0ade E6060000 		.4byte	.LLST49
 2341 0ae2 22       		.uleb128 0x22
 2342 0ae3 2A000000 		.4byte	.LBB39
 2343 0ae7 30000000 		.4byte	.LBE39
 2344 0aeb 23       		.uleb128 0x23
 2345 0aec 55050000 		.4byte	0x555
 2346 0af0 07070000 		.4byte	.LLST50
 2347 0af4 00       		.byte	0
 2348 0af5 00       		.byte	0
 2349 0af6 24       		.uleb128 0x24
 2350 0af7 34000000 		.4byte	.LVL74
 2351 0afb 310C0000 		.4byte	0xc31
 2352 0aff 00       		.byte	0
 2353 0b00 35       		.uleb128 0x35
 2354 0b01 01       		.byte	0x1
 2355 0b02 0D020000 		.4byte	.LASF88
 2356 0b06 01       		.byte	0x1
 2357 0b07 9201     		.2byte	0x192
 2358 0b09 01       		.byte	0x1
 2359 0b0a 30000000 		.4byte	0x30
 2360 0b0e 00000000 		.4byte	.LFB17
 2361 0b12 74000000 		.4byte	.LFE17
 2362 0b16 1A070000 		.4byte	.LLST51
 2363 0b1a 01       		.byte	0x1
 2364 0b1b 070C0000 		.4byte	0xc07
 2365 0b1f 30       		.uleb128 0x30
 2366 0b20 6F717000 		.ascii	"oqp\000"
 2367 0b24 01       		.byte	0x1
 2368 0b25 9201     		.2byte	0x192
 2369 0b27 38090000 		.4byte	0x938
 2370 0b2b 3A070000 		.4byte	.LLST52
 2371 0b2f 30       		.uleb128 0x30
 2372 0b30 627000   		.ascii	"bp\000"
 2373 0b33 01       		.byte	0x1
 2374 0b34 9201     		.2byte	0x192
 2375 0b36 05050000 		.4byte	0x505
 2376 0b3a 84070000 		.4byte	.LLST53
 2377 0b3e 30       		.uleb128 0x30
 2378 0b3f 6E00     		.ascii	"n\000"
 2379 0b41 01       		.byte	0x1
 2380 0b42 9301     		.2byte	0x193
 2381 0b44 30000000 		.4byte	0x30
 2382 0b48 BA070000 		.4byte	.LLST54
 2383 0b4c 33       		.uleb128 0x33
 2384 0b4d 4C020000 		.4byte	.LASF75
ARM GAS  /tmp/ccsDLGGk.s 			page 43


 2385 0b51 01       		.byte	0x1
 2386 0b52 9301     		.2byte	0x193
 2387 0b54 E8000000 		.4byte	0xe8
 2388 0b58 F0070000 		.4byte	.LLST55
 2389 0b5c 36       		.uleb128 0x36
 2390 0b5d 6E667900 		.ascii	"nfy\000"
 2391 0b61 01       		.byte	0x1
 2392 0b62 9401     		.2byte	0x194
 2393 0b64 C6040000 		.4byte	0x4c6
 2394 0b68 01       		.byte	0x1
 2395 0b69 59       		.byte	0x59
 2396 0b6a 34       		.uleb128 0x34
 2397 0b6b 7700     		.ascii	"w\000"
 2398 0b6d 01       		.byte	0x1
 2399 0b6e 9501     		.2byte	0x195
 2400 0b70 30000000 		.4byte	0x30
 2401 0b74 0E080000 		.4byte	.LLST56
 2402 0b78 29       		.uleb128 0x29
 2403 0b79 10000000 		.4byte	.LBB40
 2404 0b7d 18000000 		.4byte	.LBE40
 2405 0b81 960B0000 		.4byte	0xb96
 2406 0b85 34       		.uleb128 0x34
 2407 0b86 746D7000 		.ascii	"tmp\000"
 2408 0b8a 01       		.byte	0x1
 2409 0b8b 9901     		.2byte	0x199
 2410 0b8d 7B000000 		.4byte	0x7b
 2411 0b91 2D080000 		.4byte	.LLST57
 2412 0b95 00       		.byte	0
 2413 0b96 29       		.uleb128 0x29
 2414 0b97 40000000 		.4byte	.LBB41
 2415 0b9b 46000000 		.4byte	.LBE41
 2416 0b9f B40B0000 		.4byte	0xbb4
 2417 0ba3 34       		.uleb128 0x34
 2418 0ba4 746D7000 		.ascii	"tmp\000"
 2419 0ba8 01       		.byte	0x1
 2420 0ba9 A901     		.2byte	0x1a9
 2421 0bab 7B000000 		.4byte	0x7b
 2422 0baf 40080000 		.4byte	.LLST58
 2423 0bb3 00       		.byte	0
 2424 0bb4 29       		.uleb128 0x29
 2425 0bb5 4C000000 		.4byte	.LBB42
 2426 0bb9 52000000 		.4byte	.LBE42
 2427 0bbd D20B0000 		.4byte	0xbd2
 2428 0bc1 34       		.uleb128 0x34
 2429 0bc2 746D7000 		.ascii	"tmp\000"
 2430 0bc6 01       		.byte	0x1
 2431 0bc7 AD01     		.2byte	0x1ad
 2432 0bc9 7B000000 		.4byte	0x7b
 2433 0bcd 5E080000 		.4byte	.LLST59
 2434 0bd1 00       		.byte	0
 2435 0bd2 29       		.uleb128 0x29
 2436 0bd3 68000000 		.4byte	.LBB43
 2437 0bd7 6E000000 		.4byte	.LBE43
 2438 0bdb F00B0000 		.4byte	0xbf0
 2439 0bdf 34       		.uleb128 0x34
 2440 0be0 746D7000 		.ascii	"tmp\000"
 2441 0be4 01       		.byte	0x1
ARM GAS  /tmp/ccsDLGGk.s 			page 44


 2442 0be5 9D01     		.2byte	0x19d
 2443 0be7 7B000000 		.4byte	0x7b
 2444 0beb 71080000 		.4byte	.LLST60
 2445 0bef 00       		.byte	0
 2446 0bf0 2A       		.uleb128 0x2a
 2447 0bf1 64000000 		.4byte	.LVL96
 2448 0bf5 60050000 		.4byte	0x560
 2449 0bf9 1D       		.uleb128 0x1d
 2450 0bfa 01       		.byte	0x1
 2451 0bfb 51       		.byte	0x51
 2452 0bfc 02       		.byte	0x2
 2453 0bfd 7A       		.byte	0x7a
 2454 0bfe 00       		.sleb128 0
 2455 0bff 1D       		.uleb128 0x1d
 2456 0c00 01       		.byte	0x1
 2457 0c01 50       		.byte	0x50
 2458 0c02 02       		.byte	0x2
 2459 0c03 74       		.byte	0x74
 2460 0c04 00       		.sleb128 0
 2461 0c05 00       		.byte	0
 2462 0c06 00       		.byte	0
 2463 0c07 37       		.uleb128 0x37
 2464 0c08 C9030000 		.4byte	.LASF95
 2465 0c0c 09       		.byte	0x9
 2466 0c0d 72       		.byte	0x72
 2467 0c0e AC030000 		.4byte	0x3ac
 2468 0c12 01       		.byte	0x1
 2469 0c13 01       		.byte	0x1
 2470 0c14 38       		.uleb128 0x38
 2471 0c15 01       		.byte	0x1
 2472 0c16 E5030000 		.4byte	.LASF96
 2473 0c1a 09       		.byte	0x9
 2474 0c1b 99       		.byte	0x99
 2475 0c1c 01       		.byte	0x1
 2476 0c1d D2000000 		.4byte	0xd2
 2477 0c21 01       		.byte	0x1
 2478 0c22 310C0000 		.4byte	0xc31
 2479 0c26 12       		.uleb128 0x12
 2480 0c27 B1000000 		.4byte	0xb1
 2481 0c2b 12       		.uleb128 0x12
 2482 0c2c E8000000 		.4byte	0xe8
 2483 0c30 00       		.byte	0
 2484 0c31 39       		.uleb128 0x39
 2485 0c32 01       		.byte	0x1
 2486 0c33 4C030000 		.4byte	.LASF97
 2487 0c37 09       		.byte	0x9
 2488 0c38 93       		.byte	0x93
 2489 0c39 01       		.byte	0x1
 2490 0c3a 45020000 		.4byte	0x245
 2491 0c3e 01       		.byte	0x1
 2492 0c3f 12       		.uleb128 0x12
 2493 0c40 45020000 		.4byte	0x245
 2494 0c44 00       		.byte	0
 2495 0c45 00       		.byte	0
 2496              		.section	.debug_abbrev,"",%progbits
 2497              	.Ldebug_abbrev0:
 2498 0000 01       		.uleb128 0x1
ARM GAS  /tmp/ccsDLGGk.s 			page 45


 2499 0001 11       		.uleb128 0x11
 2500 0002 01       		.byte	0x1
 2501 0003 25       		.uleb128 0x25
 2502 0004 0E       		.uleb128 0xe
 2503 0005 13       		.uleb128 0x13
 2504 0006 0B       		.uleb128 0xb
 2505 0007 03       		.uleb128 0x3
 2506 0008 0E       		.uleb128 0xe
 2507 0009 1B       		.uleb128 0x1b
 2508 000a 0E       		.uleb128 0xe
 2509 000b 55       		.uleb128 0x55
 2510 000c 06       		.uleb128 0x6
 2511 000d 11       		.uleb128 0x11
 2512 000e 01       		.uleb128 0x1
 2513 000f 52       		.uleb128 0x52
 2514 0010 01       		.uleb128 0x1
 2515 0011 10       		.uleb128 0x10
 2516 0012 06       		.uleb128 0x6
 2517 0013 00       		.byte	0
 2518 0014 00       		.byte	0
 2519 0015 02       		.uleb128 0x2
 2520 0016 24       		.uleb128 0x24
 2521 0017 00       		.byte	0
 2522 0018 0B       		.uleb128 0xb
 2523 0019 0B       		.uleb128 0xb
 2524 001a 3E       		.uleb128 0x3e
 2525 001b 0B       		.uleb128 0xb
 2526 001c 03       		.uleb128 0x3
 2527 001d 08       		.uleb128 0x8
 2528 001e 00       		.byte	0
 2529 001f 00       		.byte	0
 2530 0020 03       		.uleb128 0x3
 2531 0021 16       		.uleb128 0x16
 2532 0022 00       		.byte	0
 2533 0023 03       		.uleb128 0x3
 2534 0024 0E       		.uleb128 0xe
 2535 0025 3A       		.uleb128 0x3a
 2536 0026 0B       		.uleb128 0xb
 2537 0027 3B       		.uleb128 0x3b
 2538 0028 0B       		.uleb128 0xb
 2539 0029 49       		.uleb128 0x49
 2540 002a 13       		.uleb128 0x13
 2541 002b 00       		.byte	0
 2542 002c 00       		.byte	0
 2543 002d 04       		.uleb128 0x4
 2544 002e 24       		.uleb128 0x24
 2545 002f 00       		.byte	0
 2546 0030 0B       		.uleb128 0xb
 2547 0031 0B       		.uleb128 0xb
 2548 0032 3E       		.uleb128 0x3e
 2549 0033 0B       		.uleb128 0xb
 2550 0034 03       		.uleb128 0x3
 2551 0035 0E       		.uleb128 0xe
 2552 0036 00       		.byte	0
 2553 0037 00       		.byte	0
 2554 0038 05       		.uleb128 0x5
 2555 0039 13       		.uleb128 0x13
ARM GAS  /tmp/ccsDLGGk.s 			page 46


 2556 003a 01       		.byte	0x1
 2557 003b 03       		.uleb128 0x3
 2558 003c 0E       		.uleb128 0xe
 2559 003d 0B       		.uleb128 0xb
 2560 003e 0B       		.uleb128 0xb
 2561 003f 3A       		.uleb128 0x3a
 2562 0040 0B       		.uleb128 0xb
 2563 0041 3B       		.uleb128 0x3b
 2564 0042 0B       		.uleb128 0xb
 2565 0043 01       		.uleb128 0x1
 2566 0044 13       		.uleb128 0x13
 2567 0045 00       		.byte	0
 2568 0046 00       		.byte	0
 2569 0047 06       		.uleb128 0x6
 2570 0048 0D       		.uleb128 0xd
 2571 0049 00       		.byte	0
 2572 004a 03       		.uleb128 0x3
 2573 004b 0E       		.uleb128 0xe
 2574 004c 3A       		.uleb128 0x3a
 2575 004d 0B       		.uleb128 0xb
 2576 004e 3B       		.uleb128 0x3b
 2577 004f 0B       		.uleb128 0xb
 2578 0050 49       		.uleb128 0x49
 2579 0051 13       		.uleb128 0x13
 2580 0052 38       		.uleb128 0x38
 2581 0053 0A       		.uleb128 0xa
 2582 0054 00       		.byte	0
 2583 0055 00       		.byte	0
 2584 0056 07       		.uleb128 0x7
 2585 0057 0D       		.uleb128 0xd
 2586 0058 00       		.byte	0
 2587 0059 03       		.uleb128 0x3
 2588 005a 08       		.uleb128 0x8
 2589 005b 3A       		.uleb128 0x3a
 2590 005c 0B       		.uleb128 0xb
 2591 005d 3B       		.uleb128 0x3b
 2592 005e 0B       		.uleb128 0xb
 2593 005f 49       		.uleb128 0x49
 2594 0060 13       		.uleb128 0x13
 2595 0061 38       		.uleb128 0x38
 2596 0062 0A       		.uleb128 0xa
 2597 0063 00       		.byte	0
 2598 0064 00       		.byte	0
 2599 0065 08       		.uleb128 0x8
 2600 0066 13       		.uleb128 0x13
 2601 0067 01       		.byte	0x1
 2602 0068 0B       		.uleb128 0xb
 2603 0069 0B       		.uleb128 0xb
 2604 006a 3A       		.uleb128 0x3a
 2605 006b 0B       		.uleb128 0xb
 2606 006c 3B       		.uleb128 0x3b
 2607 006d 0B       		.uleb128 0xb
 2608 006e 01       		.uleb128 0x1
 2609 006f 13       		.uleb128 0x13
 2610 0070 00       		.byte	0
 2611 0071 00       		.byte	0
 2612 0072 09       		.uleb128 0x9
ARM GAS  /tmp/ccsDLGGk.s 			page 47


 2613 0073 0F       		.uleb128 0xf
 2614 0074 00       		.byte	0
 2615 0075 0B       		.uleb128 0xb
 2616 0076 0B       		.uleb128 0xb
 2617 0077 49       		.uleb128 0x49
 2618 0078 13       		.uleb128 0x13
 2619 0079 00       		.byte	0
 2620 007a 00       		.byte	0
 2621 007b 0A       		.uleb128 0xa
 2622 007c 0F       		.uleb128 0xf
 2623 007d 00       		.byte	0
 2624 007e 0B       		.uleb128 0xb
 2625 007f 0B       		.uleb128 0xb
 2626 0080 00       		.byte	0
 2627 0081 00       		.byte	0
 2628 0082 0B       		.uleb128 0xb
 2629 0083 0D       		.uleb128 0xd
 2630 0084 00       		.byte	0
 2631 0085 03       		.uleb128 0x3
 2632 0086 08       		.uleb128 0x8
 2633 0087 3A       		.uleb128 0x3a
 2634 0088 0B       		.uleb128 0xb
 2635 0089 3B       		.uleb128 0x3b
 2636 008a 05       		.uleb128 0x5
 2637 008b 49       		.uleb128 0x49
 2638 008c 13       		.uleb128 0x13
 2639 008d 38       		.uleb128 0x38
 2640 008e 0A       		.uleb128 0xa
 2641 008f 00       		.byte	0
 2642 0090 00       		.byte	0
 2643 0091 0C       		.uleb128 0xc
 2644 0092 13       		.uleb128 0x13
 2645 0093 01       		.byte	0x1
 2646 0094 03       		.uleb128 0x3
 2647 0095 0E       		.uleb128 0xe
 2648 0096 0B       		.uleb128 0xb
 2649 0097 0B       		.uleb128 0xb
 2650 0098 3A       		.uleb128 0x3a
 2651 0099 0B       		.uleb128 0xb
 2652 009a 3B       		.uleb128 0x3b
 2653 009b 05       		.uleb128 0x5
 2654 009c 01       		.uleb128 0x1
 2655 009d 13       		.uleb128 0x13
 2656 009e 00       		.byte	0
 2657 009f 00       		.byte	0
 2658 00a0 0D       		.uleb128 0xd
 2659 00a1 35       		.uleb128 0x35
 2660 00a2 00       		.byte	0
 2661 00a3 49       		.uleb128 0x49
 2662 00a4 13       		.uleb128 0x13
 2663 00a5 00       		.byte	0
 2664 00a6 00       		.byte	0
 2665 00a7 0E       		.uleb128 0xe
 2666 00a8 17       		.uleb128 0x17
 2667 00a9 01       		.byte	0x1
 2668 00aa 0B       		.uleb128 0xb
 2669 00ab 0B       		.uleb128 0xb
ARM GAS  /tmp/ccsDLGGk.s 			page 48


 2670 00ac 3A       		.uleb128 0x3a
 2671 00ad 0B       		.uleb128 0xb
 2672 00ae 3B       		.uleb128 0x3b
 2673 00af 0B       		.uleb128 0xb
 2674 00b0 01       		.uleb128 0x1
 2675 00b1 13       		.uleb128 0x13
 2676 00b2 00       		.byte	0
 2677 00b3 00       		.byte	0
 2678 00b4 0F       		.uleb128 0xf
 2679 00b5 0D       		.uleb128 0xd
 2680 00b6 00       		.byte	0
 2681 00b7 03       		.uleb128 0x3
 2682 00b8 0E       		.uleb128 0xe
 2683 00b9 3A       		.uleb128 0x3a
 2684 00ba 0B       		.uleb128 0xb
 2685 00bb 3B       		.uleb128 0x3b
 2686 00bc 0B       		.uleb128 0xb
 2687 00bd 49       		.uleb128 0x49
 2688 00be 13       		.uleb128 0x13
 2689 00bf 00       		.byte	0
 2690 00c0 00       		.byte	0
 2691 00c1 10       		.uleb128 0x10
 2692 00c2 26       		.uleb128 0x26
 2693 00c3 00       		.byte	0
 2694 00c4 49       		.uleb128 0x49
 2695 00c5 13       		.uleb128 0x13
 2696 00c6 00       		.byte	0
 2697 00c7 00       		.byte	0
 2698 00c8 11       		.uleb128 0x11
 2699 00c9 15       		.uleb128 0x15
 2700 00ca 01       		.byte	0x1
 2701 00cb 27       		.uleb128 0x27
 2702 00cc 0C       		.uleb128 0xc
 2703 00cd 01       		.uleb128 0x1
 2704 00ce 13       		.uleb128 0x13
 2705 00cf 00       		.byte	0
 2706 00d0 00       		.byte	0
 2707 00d1 12       		.uleb128 0x12
 2708 00d2 05       		.uleb128 0x5
 2709 00d3 00       		.byte	0
 2710 00d4 49       		.uleb128 0x49
 2711 00d5 13       		.uleb128 0x13
 2712 00d6 00       		.byte	0
 2713 00d7 00       		.byte	0
 2714 00d8 13       		.uleb128 0x13
 2715 00d9 2E       		.uleb128 0x2e
 2716 00da 01       		.byte	0x1
 2717 00db 03       		.uleb128 0x3
 2718 00dc 0E       		.uleb128 0xe
 2719 00dd 3A       		.uleb128 0x3a
 2720 00de 0B       		.uleb128 0xb
 2721 00df 3B       		.uleb128 0x3b
 2722 00e0 0B       		.uleb128 0xb
 2723 00e1 27       		.uleb128 0x27
 2724 00e2 0C       		.uleb128 0xc
 2725 00e3 20       		.uleb128 0x20
 2726 00e4 0B       		.uleb128 0xb
ARM GAS  /tmp/ccsDLGGk.s 			page 49


 2727 00e5 01       		.uleb128 0x1
 2728 00e6 13       		.uleb128 0x13
 2729 00e7 00       		.byte	0
 2730 00e8 00       		.byte	0
 2731 00e9 14       		.uleb128 0x14
 2732 00ea 05       		.uleb128 0x5
 2733 00eb 00       		.byte	0
 2734 00ec 03       		.uleb128 0x3
 2735 00ed 08       		.uleb128 0x8
 2736 00ee 3A       		.uleb128 0x3a
 2737 00ef 0B       		.uleb128 0xb
 2738 00f0 3B       		.uleb128 0x3b
 2739 00f1 0B       		.uleb128 0xb
 2740 00f2 49       		.uleb128 0x49
 2741 00f3 13       		.uleb128 0x13
 2742 00f4 00       		.byte	0
 2743 00f5 00       		.byte	0
 2744 00f6 15       		.uleb128 0x15
 2745 00f7 2E       		.uleb128 0x2e
 2746 00f8 01       		.byte	0x1
 2747 00f9 03       		.uleb128 0x3
 2748 00fa 0E       		.uleb128 0xe
 2749 00fb 3A       		.uleb128 0x3a
 2750 00fc 0B       		.uleb128 0xb
 2751 00fd 3B       		.uleb128 0x3b
 2752 00fe 0B       		.uleb128 0xb
 2753 00ff 27       		.uleb128 0x27
 2754 0100 0C       		.uleb128 0xc
 2755 0101 49       		.uleb128 0x49
 2756 0102 13       		.uleb128 0x13
 2757 0103 20       		.uleb128 0x20
 2758 0104 0B       		.uleb128 0xb
 2759 0105 01       		.uleb128 0x1
 2760 0106 13       		.uleb128 0x13
 2761 0107 00       		.byte	0
 2762 0108 00       		.byte	0
 2763 0109 16       		.uleb128 0x16
 2764 010a 34       		.uleb128 0x34
 2765 010b 00       		.byte	0
 2766 010c 03       		.uleb128 0x3
 2767 010d 08       		.uleb128 0x8
 2768 010e 3A       		.uleb128 0x3a
 2769 010f 0B       		.uleb128 0xb
 2770 0110 3B       		.uleb128 0x3b
 2771 0111 0B       		.uleb128 0xb
 2772 0112 49       		.uleb128 0x49
 2773 0113 13       		.uleb128 0x13
 2774 0114 00       		.byte	0
 2775 0115 00       		.byte	0
 2776 0116 17       		.uleb128 0x17
 2777 0117 2E       		.uleb128 0x2e
 2778 0118 01       		.byte	0x1
 2779 0119 03       		.uleb128 0x3
 2780 011a 0E       		.uleb128 0xe
 2781 011b 3A       		.uleb128 0x3a
 2782 011c 0B       		.uleb128 0xb
 2783 011d 3B       		.uleb128 0x3b
ARM GAS  /tmp/ccsDLGGk.s 			page 50


 2784 011e 0B       		.uleb128 0xb
 2785 011f 27       		.uleb128 0x27
 2786 0120 0C       		.uleb128 0xc
 2787 0121 49       		.uleb128 0x49
 2788 0122 13       		.uleb128 0x13
 2789 0123 11       		.uleb128 0x11
 2790 0124 01       		.uleb128 0x1
 2791 0125 12       		.uleb128 0x12
 2792 0126 01       		.uleb128 0x1
 2793 0127 40       		.uleb128 0x40
 2794 0128 06       		.uleb128 0x6
 2795 0129 9742     		.uleb128 0x2117
 2796 012b 0C       		.uleb128 0xc
 2797 012c 01       		.uleb128 0x1
 2798 012d 13       		.uleb128 0x13
 2799 012e 00       		.byte	0
 2800 012f 00       		.byte	0
 2801 0130 18       		.uleb128 0x18
 2802 0131 05       		.uleb128 0x5
 2803 0132 00       		.byte	0
 2804 0133 03       		.uleb128 0x3
 2805 0134 08       		.uleb128 0x8
 2806 0135 3A       		.uleb128 0x3a
 2807 0136 0B       		.uleb128 0xb
 2808 0137 3B       		.uleb128 0x3b
 2809 0138 0B       		.uleb128 0xb
 2810 0139 49       		.uleb128 0x49
 2811 013a 13       		.uleb128 0x13
 2812 013b 02       		.uleb128 0x2
 2813 013c 06       		.uleb128 0x6
 2814 013d 00       		.byte	0
 2815 013e 00       		.byte	0
 2816 013f 19       		.uleb128 0x19
 2817 0140 05       		.uleb128 0x5
 2818 0141 00       		.byte	0
 2819 0142 03       		.uleb128 0x3
 2820 0143 0E       		.uleb128 0xe
 2821 0144 3A       		.uleb128 0x3a
 2822 0145 0B       		.uleb128 0xb
 2823 0146 3B       		.uleb128 0x3b
 2824 0147 0B       		.uleb128 0xb
 2825 0148 49       		.uleb128 0x49
 2826 0149 13       		.uleb128 0x13
 2827 014a 02       		.uleb128 0x2
 2828 014b 06       		.uleb128 0x6
 2829 014c 00       		.byte	0
 2830 014d 00       		.byte	0
 2831 014e 1A       		.uleb128 0x1a
 2832 014f 1D       		.uleb128 0x1d
 2833 0150 01       		.byte	0x1
 2834 0151 31       		.uleb128 0x31
 2835 0152 13       		.uleb128 0x13
 2836 0153 52       		.uleb128 0x52
 2837 0154 01       		.uleb128 0x1
 2838 0155 55       		.uleb128 0x55
 2839 0156 06       		.uleb128 0x6
 2840 0157 58       		.uleb128 0x58
ARM GAS  /tmp/ccsDLGGk.s 			page 51


 2841 0158 0B       		.uleb128 0xb
 2842 0159 59       		.uleb128 0x59
 2843 015a 0B       		.uleb128 0xb
 2844 015b 01       		.uleb128 0x1
 2845 015c 13       		.uleb128 0x13
 2846 015d 00       		.byte	0
 2847 015e 00       		.byte	0
 2848 015f 1B       		.uleb128 0x1b
 2849 0160 05       		.uleb128 0x5
 2850 0161 00       		.byte	0
 2851 0162 31       		.uleb128 0x31
 2852 0163 13       		.uleb128 0x13
 2853 0164 02       		.uleb128 0x2
 2854 0165 06       		.uleb128 0x6
 2855 0166 00       		.byte	0
 2856 0167 00       		.byte	0
 2857 0168 1C       		.uleb128 0x1c
 2858 0169 898201   		.uleb128 0x4109
 2859 016c 01       		.byte	0x1
 2860 016d 11       		.uleb128 0x11
 2861 016e 01       		.uleb128 0x1
 2862 016f 9542     		.uleb128 0x2115
 2863 0171 0C       		.uleb128 0xc
 2864 0172 31       		.uleb128 0x31
 2865 0173 13       		.uleb128 0x13
 2866 0174 00       		.byte	0
 2867 0175 00       		.byte	0
 2868 0176 1D       		.uleb128 0x1d
 2869 0177 8A8201   		.uleb128 0x410a
 2870 017a 00       		.byte	0
 2871 017b 02       		.uleb128 0x2
 2872 017c 0A       		.uleb128 0xa
 2873 017d 9142     		.uleb128 0x2111
 2874 017f 0A       		.uleb128 0xa
 2875 0180 00       		.byte	0
 2876 0181 00       		.byte	0
 2877 0182 1E       		.uleb128 0x1e
 2878 0183 2E       		.uleb128 0x2e
 2879 0184 01       		.byte	0x1
 2880 0185 3F       		.uleb128 0x3f
 2881 0186 0C       		.uleb128 0xc
 2882 0187 03       		.uleb128 0x3
 2883 0188 0E       		.uleb128 0xe
 2884 0189 3A       		.uleb128 0x3a
 2885 018a 0B       		.uleb128 0xb
 2886 018b 3B       		.uleb128 0x3b
 2887 018c 0B       		.uleb128 0xb
 2888 018d 27       		.uleb128 0x27
 2889 018e 0C       		.uleb128 0xc
 2890 018f 11       		.uleb128 0x11
 2891 0190 01       		.uleb128 0x1
 2892 0191 12       		.uleb128 0x12
 2893 0192 01       		.uleb128 0x1
 2894 0193 40       		.uleb128 0x40
 2895 0194 06       		.uleb128 0x6
 2896 0195 9742     		.uleb128 0x2117
 2897 0197 0C       		.uleb128 0xc
ARM GAS  /tmp/ccsDLGGk.s 			page 52


 2898 0198 01       		.uleb128 0x1
 2899 0199 13       		.uleb128 0x13
 2900 019a 00       		.byte	0
 2901 019b 00       		.byte	0
 2902 019c 1F       		.uleb128 0x1f
 2903 019d 05       		.uleb128 0x5
 2904 019e 00       		.byte	0
 2905 019f 03       		.uleb128 0x3
 2906 01a0 08       		.uleb128 0x8
 2907 01a1 3A       		.uleb128 0x3a
 2908 01a2 0B       		.uleb128 0xb
 2909 01a3 3B       		.uleb128 0x3b
 2910 01a4 0B       		.uleb128 0xb
 2911 01a5 49       		.uleb128 0x49
 2912 01a6 13       		.uleb128 0x13
 2913 01a7 02       		.uleb128 0x2
 2914 01a8 0A       		.uleb128 0xa
 2915 01a9 00       		.byte	0
 2916 01aa 00       		.byte	0
 2917 01ab 20       		.uleb128 0x20
 2918 01ac 05       		.uleb128 0x5
 2919 01ad 00       		.byte	0
 2920 01ae 03       		.uleb128 0x3
 2921 01af 0E       		.uleb128 0xe
 2922 01b0 3A       		.uleb128 0x3a
 2923 01b1 0B       		.uleb128 0xb
 2924 01b2 3B       		.uleb128 0x3b
 2925 01b3 0B       		.uleb128 0xb
 2926 01b4 49       		.uleb128 0x49
 2927 01b5 13       		.uleb128 0x13
 2928 01b6 02       		.uleb128 0x2
 2929 01b7 0A       		.uleb128 0xa
 2930 01b8 00       		.byte	0
 2931 01b9 00       		.byte	0
 2932 01ba 21       		.uleb128 0x21
 2933 01bb 1D       		.uleb128 0x1d
 2934 01bc 01       		.byte	0x1
 2935 01bd 31       		.uleb128 0x31
 2936 01be 13       		.uleb128 0x13
 2937 01bf 11       		.uleb128 0x11
 2938 01c0 01       		.uleb128 0x1
 2939 01c1 12       		.uleb128 0x12
 2940 01c2 01       		.uleb128 0x1
 2941 01c3 58       		.uleb128 0x58
 2942 01c4 0B       		.uleb128 0xb
 2943 01c5 59       		.uleb128 0x59
 2944 01c6 0B       		.uleb128 0xb
 2945 01c7 01       		.uleb128 0x1
 2946 01c8 13       		.uleb128 0x13
 2947 01c9 00       		.byte	0
 2948 01ca 00       		.byte	0
 2949 01cb 22       		.uleb128 0x22
 2950 01cc 0B       		.uleb128 0xb
 2951 01cd 01       		.byte	0x1
 2952 01ce 11       		.uleb128 0x11
 2953 01cf 01       		.uleb128 0x1
 2954 01d0 12       		.uleb128 0x12
ARM GAS  /tmp/ccsDLGGk.s 			page 53


 2955 01d1 01       		.uleb128 0x1
 2956 01d2 00       		.byte	0
 2957 01d3 00       		.byte	0
 2958 01d4 23       		.uleb128 0x23
 2959 01d5 34       		.uleb128 0x34
 2960 01d6 00       		.byte	0
 2961 01d7 31       		.uleb128 0x31
 2962 01d8 13       		.uleb128 0x13
 2963 01d9 02       		.uleb128 0x2
 2964 01da 06       		.uleb128 0x6
 2965 01db 00       		.byte	0
 2966 01dc 00       		.byte	0
 2967 01dd 24       		.uleb128 0x24
 2968 01de 898201   		.uleb128 0x4109
 2969 01e1 00       		.byte	0
 2970 01e2 11       		.uleb128 0x11
 2971 01e3 01       		.uleb128 0x1
 2972 01e4 31       		.uleb128 0x31
 2973 01e5 13       		.uleb128 0x13
 2974 01e6 00       		.byte	0
 2975 01e7 00       		.byte	0
 2976 01e8 25       		.uleb128 0x25
 2977 01e9 2E       		.uleb128 0x2e
 2978 01ea 01       		.byte	0x1
 2979 01eb 3F       		.uleb128 0x3f
 2980 01ec 0C       		.uleb128 0xc
 2981 01ed 03       		.uleb128 0x3
 2982 01ee 0E       		.uleb128 0xe
 2983 01ef 3A       		.uleb128 0x3a
 2984 01f0 0B       		.uleb128 0xb
 2985 01f1 3B       		.uleb128 0x3b
 2986 01f2 0B       		.uleb128 0xb
 2987 01f3 27       		.uleb128 0x27
 2988 01f4 0C       		.uleb128 0xc
 2989 01f5 49       		.uleb128 0x49
 2990 01f6 13       		.uleb128 0x13
 2991 01f7 11       		.uleb128 0x11
 2992 01f8 01       		.uleb128 0x1
 2993 01f9 12       		.uleb128 0x12
 2994 01fa 01       		.uleb128 0x1
 2995 01fb 40       		.uleb128 0x40
 2996 01fc 06       		.uleb128 0x6
 2997 01fd 9742     		.uleb128 0x2117
 2998 01ff 0C       		.uleb128 0xc
 2999 0200 01       		.uleb128 0x1
 3000 0201 13       		.uleb128 0x13
 3001 0202 00       		.byte	0
 3002 0203 00       		.byte	0
 3003 0204 26       		.uleb128 0x26
 3004 0205 34       		.uleb128 0x34
 3005 0206 00       		.byte	0
 3006 0207 03       		.uleb128 0x3
 3007 0208 08       		.uleb128 0x8
 3008 0209 3A       		.uleb128 0x3a
 3009 020a 0B       		.uleb128 0xb
 3010 020b 3B       		.uleb128 0x3b
 3011 020c 0B       		.uleb128 0xb
ARM GAS  /tmp/ccsDLGGk.s 			page 54


 3012 020d 49       		.uleb128 0x49
 3013 020e 13       		.uleb128 0x13
 3014 020f 02       		.uleb128 0x2
 3015 0210 0A       		.uleb128 0xa
 3016 0211 00       		.byte	0
 3017 0212 00       		.byte	0
 3018 0213 27       		.uleb128 0x27
 3019 0214 0B       		.uleb128 0xb
 3020 0215 01       		.byte	0x1
 3021 0216 55       		.uleb128 0x55
 3022 0217 06       		.uleb128 0x6
 3023 0218 01       		.uleb128 0x1
 3024 0219 13       		.uleb128 0x13
 3025 021a 00       		.byte	0
 3026 021b 00       		.byte	0
 3027 021c 28       		.uleb128 0x28
 3028 021d 34       		.uleb128 0x34
 3029 021e 00       		.byte	0
 3030 021f 03       		.uleb128 0x3
 3031 0220 08       		.uleb128 0x8
 3032 0221 3A       		.uleb128 0x3a
 3033 0222 0B       		.uleb128 0xb
 3034 0223 3B       		.uleb128 0x3b
 3035 0224 0B       		.uleb128 0xb
 3036 0225 49       		.uleb128 0x49
 3037 0226 13       		.uleb128 0x13
 3038 0227 02       		.uleb128 0x2
 3039 0228 06       		.uleb128 0x6
 3040 0229 00       		.byte	0
 3041 022a 00       		.byte	0
 3042 022b 29       		.uleb128 0x29
 3043 022c 0B       		.uleb128 0xb
 3044 022d 01       		.byte	0x1
 3045 022e 11       		.uleb128 0x11
 3046 022f 01       		.uleb128 0x1
 3047 0230 12       		.uleb128 0x12
 3048 0231 01       		.uleb128 0x1
 3049 0232 01       		.uleb128 0x1
 3050 0233 13       		.uleb128 0x13
 3051 0234 00       		.byte	0
 3052 0235 00       		.byte	0
 3053 0236 2A       		.uleb128 0x2a
 3054 0237 898201   		.uleb128 0x4109
 3055 023a 01       		.byte	0x1
 3056 023b 11       		.uleb128 0x11
 3057 023c 01       		.uleb128 0x1
 3058 023d 31       		.uleb128 0x31
 3059 023e 13       		.uleb128 0x13
 3060 023f 00       		.byte	0
 3061 0240 00       		.byte	0
 3062 0241 2B       		.uleb128 0x2b
 3063 0242 898201   		.uleb128 0x4109
 3064 0245 01       		.byte	0x1
 3065 0246 11       		.uleb128 0x11
 3066 0247 01       		.uleb128 0x1
 3067 0248 00       		.byte	0
 3068 0249 00       		.byte	0
ARM GAS  /tmp/ccsDLGGk.s 			page 55


 3069 024a 2C       		.uleb128 0x2c
 3070 024b 898201   		.uleb128 0x4109
 3071 024e 01       		.byte	0x1
 3072 024f 11       		.uleb128 0x11
 3073 0250 01       		.uleb128 0x1
 3074 0251 01       		.uleb128 0x1
 3075 0252 13       		.uleb128 0x13
 3076 0253 00       		.byte	0
 3077 0254 00       		.byte	0
 3078 0255 2D       		.uleb128 0x2d
 3079 0256 2E       		.uleb128 0x2e
 3080 0257 01       		.byte	0x1
 3081 0258 3F       		.uleb128 0x3f
 3082 0259 0C       		.uleb128 0xc
 3083 025a 03       		.uleb128 0x3
 3084 025b 0E       		.uleb128 0xe
 3085 025c 3A       		.uleb128 0x3a
 3086 025d 0B       		.uleb128 0xb
 3087 025e 3B       		.uleb128 0x3b
 3088 025f 05       		.uleb128 0x5
 3089 0260 27       		.uleb128 0x27
 3090 0261 0C       		.uleb128 0xc
 3091 0262 11       		.uleb128 0x11
 3092 0263 01       		.uleb128 0x1
 3093 0264 12       		.uleb128 0x12
 3094 0265 01       		.uleb128 0x1
 3095 0266 40       		.uleb128 0x40
 3096 0267 06       		.uleb128 0x6
 3097 0268 9742     		.uleb128 0x2117
 3098 026a 0C       		.uleb128 0xc
 3099 026b 01       		.uleb128 0x1
 3100 026c 13       		.uleb128 0x13
 3101 026d 00       		.byte	0
 3102 026e 00       		.byte	0
 3103 026f 2E       		.uleb128 0x2e
 3104 0270 05       		.uleb128 0x5
 3105 0271 00       		.byte	0
 3106 0272 03       		.uleb128 0x3
 3107 0273 08       		.uleb128 0x8
 3108 0274 3A       		.uleb128 0x3a
 3109 0275 0B       		.uleb128 0xb
 3110 0276 3B       		.uleb128 0x3b
 3111 0277 05       		.uleb128 0x5
 3112 0278 49       		.uleb128 0x49
 3113 0279 13       		.uleb128 0x13
 3114 027a 02       		.uleb128 0x2
 3115 027b 0A       		.uleb128 0xa
 3116 027c 00       		.byte	0
 3117 027d 00       		.byte	0
 3118 027e 2F       		.uleb128 0x2f
 3119 027f 05       		.uleb128 0x5
 3120 0280 00       		.byte	0
 3121 0281 03       		.uleb128 0x3
 3122 0282 0E       		.uleb128 0xe
 3123 0283 3A       		.uleb128 0x3a
 3124 0284 0B       		.uleb128 0xb
 3125 0285 3B       		.uleb128 0x3b
ARM GAS  /tmp/ccsDLGGk.s 			page 56


 3126 0286 05       		.uleb128 0x5
 3127 0287 49       		.uleb128 0x49
 3128 0288 13       		.uleb128 0x13
 3129 0289 02       		.uleb128 0x2
 3130 028a 0A       		.uleb128 0xa
 3131 028b 00       		.byte	0
 3132 028c 00       		.byte	0
 3133 028d 30       		.uleb128 0x30
 3134 028e 05       		.uleb128 0x5
 3135 028f 00       		.byte	0
 3136 0290 03       		.uleb128 0x3
 3137 0291 08       		.uleb128 0x8
 3138 0292 3A       		.uleb128 0x3a
 3139 0293 0B       		.uleb128 0xb
 3140 0294 3B       		.uleb128 0x3b
 3141 0295 05       		.uleb128 0x5
 3142 0296 49       		.uleb128 0x49
 3143 0297 13       		.uleb128 0x13
 3144 0298 02       		.uleb128 0x2
 3145 0299 06       		.uleb128 0x6
 3146 029a 00       		.byte	0
 3147 029b 00       		.byte	0
 3148 029c 31       		.uleb128 0x31
 3149 029d 1D       		.uleb128 0x1d
 3150 029e 01       		.byte	0x1
 3151 029f 31       		.uleb128 0x31
 3152 02a0 13       		.uleb128 0x13
 3153 02a1 11       		.uleb128 0x11
 3154 02a2 01       		.uleb128 0x1
 3155 02a3 12       		.uleb128 0x12
 3156 02a4 01       		.uleb128 0x1
 3157 02a5 58       		.uleb128 0x58
 3158 02a6 0B       		.uleb128 0xb
 3159 02a7 59       		.uleb128 0x59
 3160 02a8 05       		.uleb128 0x5
 3161 02a9 01       		.uleb128 0x1
 3162 02aa 13       		.uleb128 0x13
 3163 02ab 00       		.byte	0
 3164 02ac 00       		.byte	0
 3165 02ad 32       		.uleb128 0x32
 3166 02ae 2E       		.uleb128 0x2e
 3167 02af 01       		.byte	0x1
 3168 02b0 3F       		.uleb128 0x3f
 3169 02b1 0C       		.uleb128 0xc
 3170 02b2 03       		.uleb128 0x3
 3171 02b3 0E       		.uleb128 0xe
 3172 02b4 3A       		.uleb128 0x3a
 3173 02b5 0B       		.uleb128 0xb
 3174 02b6 3B       		.uleb128 0x3b
 3175 02b7 05       		.uleb128 0x5
 3176 02b8 27       		.uleb128 0x27
 3177 02b9 0C       		.uleb128 0xc
 3178 02ba 49       		.uleb128 0x49
 3179 02bb 13       		.uleb128 0x13
 3180 02bc 11       		.uleb128 0x11
 3181 02bd 01       		.uleb128 0x1
 3182 02be 12       		.uleb128 0x12
ARM GAS  /tmp/ccsDLGGk.s 			page 57


 3183 02bf 01       		.uleb128 0x1
 3184 02c0 40       		.uleb128 0x40
 3185 02c1 06       		.uleb128 0x6
 3186 02c2 9742     		.uleb128 0x2117
 3187 02c4 0C       		.uleb128 0xc
 3188 02c5 01       		.uleb128 0x1
 3189 02c6 13       		.uleb128 0x13
 3190 02c7 00       		.byte	0
 3191 02c8 00       		.byte	0
 3192 02c9 33       		.uleb128 0x33
 3193 02ca 05       		.uleb128 0x5
 3194 02cb 00       		.byte	0
 3195 02cc 03       		.uleb128 0x3
 3196 02cd 0E       		.uleb128 0xe
 3197 02ce 3A       		.uleb128 0x3a
 3198 02cf 0B       		.uleb128 0xb
 3199 02d0 3B       		.uleb128 0x3b
 3200 02d1 05       		.uleb128 0x5
 3201 02d2 49       		.uleb128 0x49
 3202 02d3 13       		.uleb128 0x13
 3203 02d4 02       		.uleb128 0x2
 3204 02d5 06       		.uleb128 0x6
 3205 02d6 00       		.byte	0
 3206 02d7 00       		.byte	0
 3207 02d8 34       		.uleb128 0x34
 3208 02d9 34       		.uleb128 0x34
 3209 02da 00       		.byte	0
 3210 02db 03       		.uleb128 0x3
 3211 02dc 08       		.uleb128 0x8
 3212 02dd 3A       		.uleb128 0x3a
 3213 02de 0B       		.uleb128 0xb
 3214 02df 3B       		.uleb128 0x3b
 3215 02e0 05       		.uleb128 0x5
 3216 02e1 49       		.uleb128 0x49
 3217 02e2 13       		.uleb128 0x13
 3218 02e3 02       		.uleb128 0x2
 3219 02e4 06       		.uleb128 0x6
 3220 02e5 00       		.byte	0
 3221 02e6 00       		.byte	0
 3222 02e7 35       		.uleb128 0x35
 3223 02e8 2E       		.uleb128 0x2e
 3224 02e9 01       		.byte	0x1
 3225 02ea 3F       		.uleb128 0x3f
 3226 02eb 0C       		.uleb128 0xc
 3227 02ec 03       		.uleb128 0x3
 3228 02ed 0E       		.uleb128 0xe
 3229 02ee 3A       		.uleb128 0x3a
 3230 02ef 0B       		.uleb128 0xb
 3231 02f0 3B       		.uleb128 0x3b
 3232 02f1 05       		.uleb128 0x5
 3233 02f2 27       		.uleb128 0x27
 3234 02f3 0C       		.uleb128 0xc
 3235 02f4 49       		.uleb128 0x49
 3236 02f5 13       		.uleb128 0x13
 3237 02f6 11       		.uleb128 0x11
 3238 02f7 01       		.uleb128 0x1
 3239 02f8 12       		.uleb128 0x12
ARM GAS  /tmp/ccsDLGGk.s 			page 58


 3240 02f9 01       		.uleb128 0x1
 3241 02fa 40       		.uleb128 0x40
 3242 02fb 06       		.uleb128 0x6
 3243 02fc 9642     		.uleb128 0x2116
 3244 02fe 0C       		.uleb128 0xc
 3245 02ff 01       		.uleb128 0x1
 3246 0300 13       		.uleb128 0x13
 3247 0301 00       		.byte	0
 3248 0302 00       		.byte	0
 3249 0303 36       		.uleb128 0x36
 3250 0304 34       		.uleb128 0x34
 3251 0305 00       		.byte	0
 3252 0306 03       		.uleb128 0x3
 3253 0307 08       		.uleb128 0x8
 3254 0308 3A       		.uleb128 0x3a
 3255 0309 0B       		.uleb128 0xb
 3256 030a 3B       		.uleb128 0x3b
 3257 030b 05       		.uleb128 0x5
 3258 030c 49       		.uleb128 0x49
 3259 030d 13       		.uleb128 0x13
 3260 030e 02       		.uleb128 0x2
 3261 030f 0A       		.uleb128 0xa
 3262 0310 00       		.byte	0
 3263 0311 00       		.byte	0
 3264 0312 37       		.uleb128 0x37
 3265 0313 34       		.uleb128 0x34
 3266 0314 00       		.byte	0
 3267 0315 03       		.uleb128 0x3
 3268 0316 0E       		.uleb128 0xe
 3269 0317 3A       		.uleb128 0x3a
 3270 0318 0B       		.uleb128 0xb
 3271 0319 3B       		.uleb128 0x3b
 3272 031a 0B       		.uleb128 0xb
 3273 031b 49       		.uleb128 0x49
 3274 031c 13       		.uleb128 0x13
 3275 031d 3F       		.uleb128 0x3f
 3276 031e 0C       		.uleb128 0xc
 3277 031f 3C       		.uleb128 0x3c
 3278 0320 0C       		.uleb128 0xc
 3279 0321 00       		.byte	0
 3280 0322 00       		.byte	0
 3281 0323 38       		.uleb128 0x38
 3282 0324 2E       		.uleb128 0x2e
 3283 0325 01       		.byte	0x1
 3284 0326 3F       		.uleb128 0x3f
 3285 0327 0C       		.uleb128 0xc
 3286 0328 03       		.uleb128 0x3
 3287 0329 0E       		.uleb128 0xe
 3288 032a 3A       		.uleb128 0x3a
 3289 032b 0B       		.uleb128 0xb
 3290 032c 3B       		.uleb128 0x3b
 3291 032d 0B       		.uleb128 0xb
 3292 032e 27       		.uleb128 0x27
 3293 032f 0C       		.uleb128 0xc
 3294 0330 49       		.uleb128 0x49
 3295 0331 13       		.uleb128 0x13
 3296 0332 3C       		.uleb128 0x3c
ARM GAS  /tmp/ccsDLGGk.s 			page 59


 3297 0333 0C       		.uleb128 0xc
 3298 0334 01       		.uleb128 0x1
 3299 0335 13       		.uleb128 0x13
 3300 0336 00       		.byte	0
 3301 0337 00       		.byte	0
 3302 0338 39       		.uleb128 0x39
 3303 0339 2E       		.uleb128 0x2e
 3304 033a 01       		.byte	0x1
 3305 033b 3F       		.uleb128 0x3f
 3306 033c 0C       		.uleb128 0xc
 3307 033d 03       		.uleb128 0x3
 3308 033e 0E       		.uleb128 0xe
 3309 033f 3A       		.uleb128 0x3a
 3310 0340 0B       		.uleb128 0xb
 3311 0341 3B       		.uleb128 0x3b
 3312 0342 0B       		.uleb128 0xb
 3313 0343 27       		.uleb128 0x27
 3314 0344 0C       		.uleb128 0xc
 3315 0345 49       		.uleb128 0x49
 3316 0346 13       		.uleb128 0x13
 3317 0347 3C       		.uleb128 0x3c
 3318 0348 0C       		.uleb128 0xc
 3319 0349 00       		.byte	0
 3320 034a 00       		.byte	0
 3321 034b 00       		.byte	0
 3322              		.section	.debug_loc,"",%progbits
 3323              	.Ldebug_loc0:
 3324              	.LLST0:
 3325 0000 00000000 		.4byte	.LFB7
 3326 0004 02000000 		.4byte	.LCFI0
 3327 0008 0200     		.2byte	0x2
 3328 000a 7D       		.byte	0x7d
 3329 000b 00       		.sleb128 0
 3330 000c 02000000 		.4byte	.LCFI0
 3331 0010 2C000000 		.4byte	.LFE7
 3332 0014 0200     		.2byte	0x2
 3333 0016 7D       		.byte	0x7d
 3334 0017 04       		.sleb128 4
 3335 0018 00000000 		.4byte	0
 3336 001c 00000000 		.4byte	0
 3337              	.LLST1:
 3338 0020 00000000 		.4byte	.LVL0
 3339 0024 10000000 		.4byte	.LVL2
 3340 0028 0100     		.2byte	0x1
 3341 002a 50       		.byte	0x50
 3342 002b 10000000 		.4byte	.LVL2
 3343 002f 1D000000 		.4byte	.LVL3-1
 3344 0033 0100     		.2byte	0x1
 3345 0035 52       		.byte	0x52
 3346 0036 1D000000 		.4byte	.LVL3-1
 3347 003a 1E000000 		.4byte	.LVL3
 3348 003e 0400     		.2byte	0x4
 3349 0040 F3       		.byte	0xf3
 3350 0041 01       		.uleb128 0x1
 3351 0042 50       		.byte	0x50
 3352 0043 9F       		.byte	0x9f
 3353 0044 1E000000 		.4byte	.LVL3
ARM GAS  /tmp/ccsDLGGk.s 			page 60


 3354 0048 22000000 		.4byte	.LVL4
 3355 004c 0100     		.2byte	0x1
 3356 004e 50       		.byte	0x50
 3357 004f 22000000 		.4byte	.LVL4
 3358 0053 2C000000 		.4byte	.LFE7
 3359 0057 0100     		.2byte	0x1
 3360 0059 52       		.byte	0x52
 3361 005a 00000000 		.4byte	0
 3362 005e 00000000 		.4byte	0
 3363              	.LLST2:
 3364 0062 00000000 		.4byte	.LVL0
 3365 0066 1D000000 		.4byte	.LVL3-1
 3366 006a 0100     		.2byte	0x1
 3367 006c 51       		.byte	0x51
 3368 006d 1D000000 		.4byte	.LVL3-1
 3369 0071 1E000000 		.4byte	.LVL3
 3370 0075 0400     		.2byte	0x4
 3371 0077 F3       		.byte	0xf3
 3372 0078 01       		.uleb128 0x1
 3373 0079 51       		.byte	0x51
 3374 007a 9F       		.byte	0x9f
 3375 007b 1E000000 		.4byte	.LVL3
 3376 007f 2C000000 		.4byte	.LFE7
 3377 0083 0100     		.2byte	0x1
 3378 0085 51       		.byte	0x51
 3379 0086 00000000 		.4byte	0
 3380 008a 00000000 		.4byte	0
 3381              	.LLST3:
 3382 008e 0C000000 		.4byte	.LVL1
 3383 0092 10000000 		.4byte	.LVL2
 3384 0096 0100     		.2byte	0x1
 3385 0098 50       		.byte	0x50
 3386 0099 10000000 		.4byte	.LVL2
 3387 009d 1D000000 		.4byte	.LVL3-1
 3388 00a1 0100     		.2byte	0x1
 3389 00a3 52       		.byte	0x52
 3390 00a4 1D000000 		.4byte	.LVL3-1
 3391 00a8 1E000000 		.4byte	.LVL3
 3392 00ac 0400     		.2byte	0x4
 3393 00ae F3       		.byte	0xf3
 3394 00af 01       		.uleb128 0x1
 3395 00b0 50       		.byte	0x50
 3396 00b1 9F       		.byte	0x9f
 3397 00b2 00000000 		.4byte	0
 3398 00b6 00000000 		.4byte	0
 3399              	.LLST4:
 3400 00ba 0C000000 		.4byte	.LVL1
 3401 00be 1D000000 		.4byte	.LVL3-1
 3402 00c2 0100     		.2byte	0x1
 3403 00c4 53       		.byte	0x53
 3404 00c5 00000000 		.4byte	0
 3405 00c9 00000000 		.4byte	0
 3406              	.LLST5:
 3407 00cd 00000000 		.4byte	.LFB8
 3408 00d1 02000000 		.4byte	.LCFI1
 3409 00d5 0200     		.2byte	0x2
 3410 00d7 7D       		.byte	0x7d
ARM GAS  /tmp/ccsDLGGk.s 			page 61


 3411 00d8 00       		.sleb128 0
 3412 00d9 02000000 		.4byte	.LCFI1
 3413 00dd 1A000000 		.4byte	.LFE8
 3414 00e1 0200     		.2byte	0x2
 3415 00e3 7D       		.byte	0x7d
 3416 00e4 04       		.sleb128 4
 3417 00e5 00000000 		.4byte	0
 3418 00e9 00000000 		.4byte	0
 3419              	.LLST6:
 3420 00ed 00000000 		.4byte	.LVL5
 3421 00f1 04000000 		.4byte	.LVL6
 3422 00f5 0100     		.2byte	0x1
 3423 00f7 52       		.byte	0x52
 3424 00f8 04000000 		.4byte	.LVL6
 3425 00fc 1A000000 		.4byte	.LFE8
 3426 0100 0400     		.2byte	0x4
 3427 0102 F3       		.byte	0xf3
 3428 0103 01       		.uleb128 0x1
 3429 0104 52       		.byte	0x52
 3430 0105 9F       		.byte	0x9f
 3431 0106 00000000 		.4byte	0
 3432 010a 00000000 		.4byte	0
 3433              	.LLST7:
 3434 010e 00000000 		.4byte	.LFB9
 3435 0112 02000000 		.4byte	.LCFI2
 3436 0116 0200     		.2byte	0x2
 3437 0118 7D       		.byte	0x7d
 3438 0119 00       		.sleb128 0
 3439 011a 02000000 		.4byte	.LCFI2
 3440 011e 2C000000 		.4byte	.LFE9
 3441 0122 0200     		.2byte	0x2
 3442 0124 7D       		.byte	0x7d
 3443 0125 10       		.sleb128 16
 3444 0126 00000000 		.4byte	0
 3445 012a 00000000 		.4byte	0
 3446              	.LLST8:
 3447 012e 00000000 		.4byte	.LVL7
 3448 0132 08000000 		.4byte	.LVL8
 3449 0136 0100     		.2byte	0x1
 3450 0138 50       		.byte	0x50
 3451 0139 08000000 		.4byte	.LVL8
 3452 013d 2C000000 		.4byte	.LFE9
 3453 0141 0100     		.2byte	0x1
 3454 0143 54       		.byte	0x54
 3455 0144 00000000 		.4byte	0
 3456 0148 00000000 		.4byte	0
 3457              	.LLST9:
 3458 014c 18000000 		.4byte	.LVL9
 3459 0150 2A000000 		.4byte	.LVL11
 3460 0154 0100     		.2byte	0x1
 3461 0156 54       		.byte	0x54
 3462 0157 00000000 		.4byte	0
 3463 015b 00000000 		.4byte	0
 3464              	.LLST10:
 3465 015f 18000000 		.4byte	.LVL9
 3466 0163 21000000 		.4byte	.LVL10-1
 3467 0167 0100     		.2byte	0x1
ARM GAS  /tmp/ccsDLGGk.s 			page 62


 3468 0169 50       		.byte	0x50
 3469 016a 00000000 		.4byte	0
 3470 016e 00000000 		.4byte	0
 3471              	.LLST11:
 3472 0172 00000000 		.4byte	.LFB10
 3473 0176 04000000 		.4byte	.LCFI3
 3474 017a 0200     		.2byte	0x2
 3475 017c 7D       		.byte	0x7d
 3476 017d 00       		.sleb128 0
 3477 017e 04000000 		.4byte	.LCFI3
 3478 0182 4A000000 		.4byte	.LFE10
 3479 0186 0200     		.2byte	0x2
 3480 0188 7D       		.byte	0x7d
 3481 0189 08       		.sleb128 8
 3482 018a 00000000 		.4byte	0
 3483 018e 00000000 		.4byte	0
 3484              	.LLST12:
 3485 0192 00000000 		.4byte	.LVL12
 3486 0196 08000000 		.4byte	.LVL13
 3487 019a 0100     		.2byte	0x1
 3488 019c 50       		.byte	0x50
 3489 019d 08000000 		.4byte	.LVL13
 3490 01a1 33000000 		.4byte	.LVL16-1
 3491 01a5 0100     		.2byte	0x1
 3492 01a7 53       		.byte	0x53
 3493 01a8 33000000 		.4byte	.LVL16-1
 3494 01ac 3C000000 		.4byte	.LVL17
 3495 01b0 0400     		.2byte	0x4
 3496 01b2 F3       		.byte	0xf3
 3497 01b3 01       		.uleb128 0x1
 3498 01b4 50       		.byte	0x50
 3499 01b5 9F       		.byte	0x9f
 3500 01b6 3C000000 		.4byte	.LVL17
 3501 01ba 4A000000 		.4byte	.LFE10
 3502 01be 0100     		.2byte	0x1
 3503 01c0 53       		.byte	0x53
 3504 01c1 00000000 		.4byte	0
 3505 01c5 00000000 		.4byte	0
 3506              	.LLST13:
 3507 01c9 00000000 		.4byte	.LVL12
 3508 01cd 18000000 		.4byte	.LVL14
 3509 01d1 0100     		.2byte	0x1
 3510 01d3 51       		.byte	0x51
 3511 01d4 18000000 		.4byte	.LVL14
 3512 01d8 33000000 		.4byte	.LVL16-1
 3513 01dc 0300     		.2byte	0x3
 3514 01de 73       		.byte	0x73
 3515 01df 14       		.sleb128 20
 3516 01e0 06       		.byte	0x6
 3517 01e1 33000000 		.4byte	.LVL16-1
 3518 01e5 3C000000 		.4byte	.LVL17
 3519 01e9 0400     		.2byte	0x4
 3520 01eb F3       		.byte	0xf3
 3521 01ec 01       		.uleb128 0x1
 3522 01ed 51       		.byte	0x51
 3523 01ee 9F       		.byte	0x9f
 3524 01ef 3C000000 		.4byte	.LVL17
ARM GAS  /tmp/ccsDLGGk.s 			page 63


 3525 01f3 40000000 		.4byte	.LVL18
 3526 01f7 0300     		.2byte	0x3
 3527 01f9 73       		.byte	0x73
 3528 01fa 14       		.sleb128 20
 3529 01fb 06       		.byte	0x6
 3530 01fc 40000000 		.4byte	.LVL18
 3531 0200 4A000000 		.4byte	.LFE10
 3532 0204 0100     		.2byte	0x1
 3533 0206 51       		.byte	0x51
 3534 0207 00000000 		.4byte	0
 3535 020b 00000000 		.4byte	0
 3536              	.LLST14:
 3537 020f 2A000000 		.4byte	.LVL15
 3538 0213 33000000 		.4byte	.LVL16-1
 3539 0217 0100     		.2byte	0x1
 3540 0219 53       		.byte	0x53
 3541 021a 33000000 		.4byte	.LVL16-1
 3542 021e 3C000000 		.4byte	.LVL17
 3543 0222 0400     		.2byte	0x4
 3544 0224 F3       		.byte	0xf3
 3545 0225 01       		.uleb128 0x1
 3546 0226 50       		.byte	0x50
 3547 0227 9F       		.byte	0x9f
 3548 0228 00000000 		.4byte	0
 3549 022c 00000000 		.4byte	0
 3550              	.LLST15:
 3551 0230 2A000000 		.4byte	.LVL15
 3552 0234 33000000 		.4byte	.LVL16-1
 3553 0238 0100     		.2byte	0x1
 3554 023a 50       		.byte	0x50
 3555 023b 00000000 		.4byte	0
 3556 023f 00000000 		.4byte	0
 3557              	.LLST16:
 3558 0243 00000000 		.4byte	.LFB11
 3559 0247 02000000 		.4byte	.LCFI4
 3560 024b 0200     		.2byte	0x2
 3561 024d 7D       		.byte	0x7d
 3562 024e 00       		.sleb128 0
 3563 024f 02000000 		.4byte	.LCFI4
 3564 0253 48000000 		.4byte	.LFE11
 3565 0257 0200     		.2byte	0x2
 3566 0259 7D       		.byte	0x7d
 3567 025a 10       		.sleb128 16
 3568 025b 00000000 		.4byte	0
 3569 025f 00000000 		.4byte	0
 3570              	.LLST17:
 3571 0263 00000000 		.4byte	.LVL19
 3572 0267 11000000 		.4byte	.LVL23-1
 3573 026b 0100     		.2byte	0x1
 3574 026d 50       		.byte	0x50
 3575 026e 11000000 		.4byte	.LVL23-1
 3576 0272 1A000000 		.4byte	.LVL24
 3577 0276 0100     		.2byte	0x1
 3578 0278 54       		.byte	0x54
 3579 0279 1A000000 		.4byte	.LVL24
 3580 027d 1D000000 		.4byte	.LVL25-1
 3581 0281 0100     		.2byte	0x1
ARM GAS  /tmp/ccsDLGGk.s 			page 64


 3582 0283 50       		.byte	0x50
 3583 0284 1D000000 		.4byte	.LVL25-1
 3584 0288 2A000000 		.4byte	.LVL28
 3585 028c 0100     		.2byte	0x1
 3586 028e 54       		.byte	0x54
 3587 028f 2A000000 		.4byte	.LVL28
 3588 0293 36000000 		.4byte	.LVL30
 3589 0297 0100     		.2byte	0x1
 3590 0299 50       		.byte	0x50
 3591 029a 36000000 		.4byte	.LVL30
 3592 029e 48000000 		.4byte	.LFE11
 3593 02a2 0100     		.2byte	0x1
 3594 02a4 54       		.byte	0x54
 3595 02a5 00000000 		.4byte	0
 3596 02a9 00000000 		.4byte	0
 3597              	.LLST18:
 3598 02ad 00000000 		.4byte	.LVL19
 3599 02b1 11000000 		.4byte	.LVL23-1
 3600 02b5 0100     		.2byte	0x1
 3601 02b7 51       		.byte	0x51
 3602 02b8 11000000 		.4byte	.LVL23-1
 3603 02bc 1A000000 		.4byte	.LVL24
 3604 02c0 0100     		.2byte	0x1
 3605 02c2 56       		.byte	0x56
 3606 02c3 1A000000 		.4byte	.LVL24
 3607 02c7 1D000000 		.4byte	.LVL25-1
 3608 02cb 0100     		.2byte	0x1
 3609 02cd 51       		.byte	0x51
 3610 02ce 1D000000 		.4byte	.LVL25-1
 3611 02d2 2A000000 		.4byte	.LVL28
 3612 02d6 0100     		.2byte	0x1
 3613 02d8 56       		.byte	0x56
 3614 02d9 2A000000 		.4byte	.LVL28
 3615 02dd 2C000000 		.4byte	.LVL29
 3616 02e1 0100     		.2byte	0x1
 3617 02e3 51       		.byte	0x51
 3618 02e4 2C000000 		.4byte	.LVL29
 3619 02e8 48000000 		.4byte	.LFE11
 3620 02ec 0100     		.2byte	0x1
 3621 02ee 56       		.byte	0x56
 3622 02ef 00000000 		.4byte	0
 3623 02f3 00000000 		.4byte	0
 3624              	.LLST19:
 3625 02f7 0C000000 		.4byte	.LVL21
 3626 02fb 0E000000 		.4byte	.LVL22
 3627 02ff 0100     		.2byte	0x1
 3628 0301 53       		.byte	0x53
 3629 0302 00000000 		.4byte	0
 3630 0306 00000000 		.4byte	0
 3631              	.LLST20:
 3632 030a 1E000000 		.4byte	.LVL25
 3633 030e 2A000000 		.4byte	.LVL28
 3634 0312 0100     		.2byte	0x1
 3635 0314 50       		.byte	0x50
 3636 0315 00000000 		.4byte	0
 3637 0319 00000000 		.4byte	0
 3638              	.LLST21:
ARM GAS  /tmp/ccsDLGGk.s 			page 65


 3639 031d 28000000 		.4byte	.LVL27
 3640 0321 2A000000 		.4byte	.LVL28
 3641 0325 0100     		.2byte	0x1
 3642 0327 53       		.byte	0x53
 3643 0328 00000000 		.4byte	0
 3644 032c 00000000 		.4byte	0
 3645              	.LLST22:
 3646 0330 46000000 		.4byte	.LVL32
 3647 0334 48000000 		.4byte	.LFE11
 3648 0338 0100     		.2byte	0x1
 3649 033a 53       		.byte	0x53
 3650 033b 00000000 		.4byte	0
 3651 033f 00000000 		.4byte	0
 3652              	.LLST23:
 3653 0343 00000000 		.4byte	.LFB12
 3654 0347 04000000 		.4byte	.LCFI5
 3655 034b 0200     		.2byte	0x2
 3656 034d 7D       		.byte	0x7d
 3657 034e 00       		.sleb128 0
 3658 034f 04000000 		.4byte	.LCFI5
 3659 0353 72000000 		.4byte	.LFE12
 3660 0357 0200     		.2byte	0x2
 3661 0359 7D       		.byte	0x7d
 3662 035a 20       		.sleb128 32
 3663 035b 00000000 		.4byte	0
 3664 035f 00000000 		.4byte	0
 3665              	.LLST24:
 3666 0363 00000000 		.4byte	.LVL33
 3667 0367 1C000000 		.4byte	.LVL37
 3668 036b 0100     		.2byte	0x1
 3669 036d 50       		.byte	0x50
 3670 036e 1C000000 		.4byte	.LVL37
 3671 0372 2A000000 		.4byte	.LVL39
 3672 0376 0100     		.2byte	0x1
 3673 0378 54       		.byte	0x54
 3674 0379 2A000000 		.4byte	.LVL39
 3675 037d 2D000000 		.4byte	.LVL40-1
 3676 0381 0100     		.2byte	0x1
 3677 0383 50       		.byte	0x50
 3678 0384 2D000000 		.4byte	.LVL40-1
 3679 0388 3E000000 		.4byte	.LVL43
 3680 038c 0100     		.2byte	0x1
 3681 038e 54       		.byte	0x54
 3682 038f 3E000000 		.4byte	.LVL43
 3683 0393 4E000000 		.4byte	.LVL45
 3684 0397 0100     		.2byte	0x1
 3685 0399 50       		.byte	0x50
 3686 039a 4E000000 		.4byte	.LVL45
 3687 039e 72000000 		.4byte	.LFE12
 3688 03a2 0100     		.2byte	0x1
 3689 03a4 54       		.byte	0x54
 3690 03a5 00000000 		.4byte	0
 3691 03a9 00000000 		.4byte	0
 3692              	.LLST25:
 3693 03ad 00000000 		.4byte	.LVL33
 3694 03b1 1C000000 		.4byte	.LVL37
 3695 03b5 0100     		.2byte	0x1
ARM GAS  /tmp/ccsDLGGk.s 			page 66


 3696 03b7 51       		.byte	0x51
 3697 03b8 00000000 		.4byte	0
 3698 03bc 00000000 		.4byte	0
 3699              	.LLST26:
 3700 03c0 00000000 		.4byte	.LVL33
 3701 03c4 1C000000 		.4byte	.LVL37
 3702 03c8 0100     		.2byte	0x1
 3703 03ca 52       		.byte	0x52
 3704 03cb 00000000 		.4byte	0
 3705 03cf 00000000 		.4byte	0
 3706              	.LLST27:
 3707 03d3 00000000 		.4byte	.LVL33
 3708 03d7 0C000000 		.4byte	.LVL35
 3709 03db 0100     		.2byte	0x1
 3710 03dd 53       		.byte	0x53
 3711 03de 0C000000 		.4byte	.LVL35
 3712 03e2 2A000000 		.4byte	.LVL39
 3713 03e6 0100     		.2byte	0x1
 3714 03e8 56       		.byte	0x56
 3715 03e9 2A000000 		.4byte	.LVL39
 3716 03ed 2D000000 		.4byte	.LVL40-1
 3717 03f1 0100     		.2byte	0x1
 3718 03f3 51       		.byte	0x51
 3719 03f4 2D000000 		.4byte	.LVL40-1
 3720 03f8 3E000000 		.4byte	.LVL43
 3721 03fc 0100     		.2byte	0x1
 3722 03fe 56       		.byte	0x56
 3723 03ff 3E000000 		.4byte	.LVL43
 3724 0403 72000000 		.4byte	.LFE12
 3725 0407 0100     		.2byte	0x1
 3726 0409 51       		.byte	0x51
 3727 040a 00000000 		.4byte	0
 3728 040e 00000000 		.4byte	0
 3729              	.LLST28:
 3730 0412 0A000000 		.4byte	.LVL34
 3731 0416 1C000000 		.4byte	.LVL37
 3732 041a 0200     		.2byte	0x2
 3733 041c 30       		.byte	0x30
 3734 041d 9F       		.byte	0x9f
 3735 041e 1C000000 		.4byte	.LVL37
 3736 0422 72000000 		.4byte	.LFE12
 3737 0426 0100     		.2byte	0x1
 3738 0428 58       		.byte	0x58
 3739 0429 00000000 		.4byte	0
 3740 042d 00000000 		.4byte	0
 3741              	.LLST29:
 3742 0431 10000000 		.4byte	.LVL36
 3743 0435 21000000 		.4byte	.LVL38-1
 3744 0439 0100     		.2byte	0x1
 3745 043b 53       		.byte	0x53
 3746 043c 22000000 		.4byte	.LVL38
 3747 0440 2D000000 		.4byte	.LVL40-1
 3748 0444 0100     		.2byte	0x1
 3749 0446 53       		.byte	0x53
 3750 0447 3E000000 		.4byte	.LVL43
 3751 044b 40000000 		.4byte	.LVL44
 3752 044f 0100     		.2byte	0x1
ARM GAS  /tmp/ccsDLGGk.s 			page 67


 3753 0451 53       		.byte	0x53
 3754 0452 00000000 		.4byte	0
 3755 0456 00000000 		.4byte	0
 3756              	.LLST30:
 3757 045a 38000000 		.4byte	.LVL42
 3758 045e 3E000000 		.4byte	.LVL43
 3759 0462 0100     		.2byte	0x1
 3760 0464 53       		.byte	0x53
 3761 0465 00000000 		.4byte	0
 3762 0469 00000000 		.4byte	0
 3763              	.LLST31:
 3764 046d 38000000 		.4byte	.LVL42
 3765 0471 3E000000 		.4byte	.LVL43
 3766 0475 0100     		.2byte	0x1
 3767 0477 53       		.byte	0x53
 3768 0478 5E000000 		.4byte	.LVL46
 3769 047c 68000000 		.4byte	.LVL48
 3770 0480 0100     		.2byte	0x1
 3771 0482 53       		.byte	0x53
 3772 0483 00000000 		.4byte	0
 3773 0487 00000000 		.4byte	0
 3774              	.LLST32:
 3775 048b 1C000000 		.4byte	.LVL37
 3776 048f 21000000 		.4byte	.LVL38-1
 3777 0493 0100     		.2byte	0x1
 3778 0495 53       		.byte	0x53
 3779 0496 22000000 		.4byte	.LVL38
 3780 049a 2D000000 		.4byte	.LVL40-1
 3781 049e 0100     		.2byte	0x1
 3782 04a0 53       		.byte	0x53
 3783 04a1 3E000000 		.4byte	.LVL43
 3784 04a5 40000000 		.4byte	.LVL44
 3785 04a9 0100     		.2byte	0x1
 3786 04ab 53       		.byte	0x53
 3787 04ac 6C000000 		.4byte	.LVL49
 3788 04b0 72000000 		.4byte	.LFE12
 3789 04b4 0100     		.2byte	0x1
 3790 04b6 53       		.byte	0x53
 3791 04b7 00000000 		.4byte	0
 3792 04bb 00000000 		.4byte	0
 3793              	.LLST33:
 3794 04bf 00000000 		.4byte	.LFB13
 3795 04c3 02000000 		.4byte	.LCFI6
 3796 04c7 0200     		.2byte	0x2
 3797 04c9 7D       		.byte	0x7d
 3798 04ca 00       		.sleb128 0
 3799 04cb 02000000 		.4byte	.LCFI6
 3800 04cf 18000000 		.4byte	.LFE13
 3801 04d3 0200     		.2byte	0x2
 3802 04d5 7D       		.byte	0x7d
 3803 04d6 04       		.sleb128 4
 3804 04d7 00000000 		.4byte	0
 3805 04db 00000000 		.4byte	0
 3806              	.LLST34:
 3807 04df 00000000 		.4byte	.LFB14
 3808 04e3 02000000 		.4byte	.LCFI7
 3809 04e7 0200     		.2byte	0x2
ARM GAS  /tmp/ccsDLGGk.s 			page 68


 3810 04e9 7D       		.byte	0x7d
 3811 04ea 00       		.sleb128 0
 3812 04eb 02000000 		.4byte	.LCFI7
 3813 04ef 2E000000 		.4byte	.LFE14
 3814 04f3 0200     		.2byte	0x2
 3815 04f5 7D       		.byte	0x7d
 3816 04f6 10       		.sleb128 16
 3817 04f7 00000000 		.4byte	0
 3818 04fb 00000000 		.4byte	0
 3819              	.LLST35:
 3820 04ff 00000000 		.4byte	.LVL51
 3821 0503 0A000000 		.4byte	.LVL52
 3822 0507 0100     		.2byte	0x1
 3823 0509 50       		.byte	0x50
 3824 050a 0A000000 		.4byte	.LVL52
 3825 050e 2E000000 		.4byte	.LFE14
 3826 0512 0100     		.2byte	0x1
 3827 0514 54       		.byte	0x54
 3828 0515 00000000 		.4byte	0
 3829 0519 00000000 		.4byte	0
 3830              	.LLST36:
 3831 051d 1A000000 		.4byte	.LVL53
 3832 0521 2C000000 		.4byte	.LVL55
 3833 0525 0100     		.2byte	0x1
 3834 0527 54       		.byte	0x54
 3835 0528 00000000 		.4byte	0
 3836 052c 00000000 		.4byte	0
 3837              	.LLST37:
 3838 0530 1A000000 		.4byte	.LVL53
 3839 0534 23000000 		.4byte	.LVL54-1
 3840 0538 0100     		.2byte	0x1
 3841 053a 50       		.byte	0x50
 3842 053b 00000000 		.4byte	0
 3843 053f 00000000 		.4byte	0
 3844              	.LLST38:
 3845 0543 00000000 		.4byte	.LFB15
 3846 0547 02000000 		.4byte	.LCFI8
 3847 054b 0200     		.2byte	0x2
 3848 054d 7D       		.byte	0x7d
 3849 054e 00       		.sleb128 0
 3850 054f 02000000 		.4byte	.LCFI8
 3851 0553 50000000 		.4byte	.LFE15
 3852 0557 0200     		.2byte	0x2
 3853 0559 7D       		.byte	0x7d
 3854 055a 18       		.sleb128 24
 3855 055b 00000000 		.4byte	0
 3856 055f 00000000 		.4byte	0
 3857              	.LLST39:
 3858 0563 00000000 		.4byte	.LVL56
 3859 0567 0E000000 		.4byte	.LVL58
 3860 056b 0100     		.2byte	0x1
 3861 056d 50       		.byte	0x50
 3862 056e 0E000000 		.4byte	.LVL58
 3863 0572 16000000 		.4byte	.LVL59
 3864 0576 0100     		.2byte	0x1
 3865 0578 54       		.byte	0x54
 3866 0579 16000000 		.4byte	.LVL59
ARM GAS  /tmp/ccsDLGGk.s 			page 69


 3867 057d 19000000 		.4byte	.LVL60-1
 3868 0581 0100     		.2byte	0x1
 3869 0583 50       		.byte	0x50
 3870 0584 19000000 		.4byte	.LVL60-1
 3871 0588 26000000 		.4byte	.LVL63
 3872 058c 0100     		.2byte	0x1
 3873 058e 54       		.byte	0x54
 3874 058f 26000000 		.4byte	.LVL63
 3875 0593 44000000 		.4byte	.LVL66
 3876 0597 0100     		.2byte	0x1
 3877 0599 50       		.byte	0x50
 3878 059a 44000000 		.4byte	.LVL66
 3879 059e 50000000 		.4byte	.LFE15
 3880 05a2 0100     		.2byte	0x1
 3881 05a4 54       		.byte	0x54
 3882 05a5 00000000 		.4byte	0
 3883 05a9 00000000 		.4byte	0
 3884              	.LLST40:
 3885 05ad 00000000 		.4byte	.LVL56
 3886 05b1 0E000000 		.4byte	.LVL58
 3887 05b5 0100     		.2byte	0x1
 3888 05b7 51       		.byte	0x51
 3889 05b8 0E000000 		.4byte	.LVL58
 3890 05bc 50000000 		.4byte	.LFE15
 3891 05c0 0400     		.2byte	0x4
 3892 05c2 F3       		.byte	0xf3
 3893 05c3 01       		.uleb128 0x1
 3894 05c4 51       		.byte	0x51
 3895 05c5 9F       		.byte	0x9f
 3896 05c6 00000000 		.4byte	0
 3897 05ca 00000000 		.4byte	0
 3898              	.LLST41:
 3899 05ce 00000000 		.4byte	.LVL56
 3900 05d2 0E000000 		.4byte	.LVL58
 3901 05d6 0100     		.2byte	0x1
 3902 05d8 52       		.byte	0x52
 3903 05d9 0E000000 		.4byte	.LVL58
 3904 05dd 16000000 		.4byte	.LVL59
 3905 05e1 0100     		.2byte	0x1
 3906 05e3 56       		.byte	0x56
 3907 05e4 16000000 		.4byte	.LVL59
 3908 05e8 19000000 		.4byte	.LVL60-1
 3909 05ec 0100     		.2byte	0x1
 3910 05ee 51       		.byte	0x51
 3911 05ef 19000000 		.4byte	.LVL60-1
 3912 05f3 26000000 		.4byte	.LVL63
 3913 05f7 0100     		.2byte	0x1
 3914 05f9 56       		.byte	0x56
 3915 05fa 26000000 		.4byte	.LVL63
 3916 05fe 3C000000 		.4byte	.LVL65
 3917 0602 0100     		.2byte	0x1
 3918 0604 51       		.byte	0x51
 3919 0605 3C000000 		.4byte	.LVL65
 3920 0609 50000000 		.4byte	.LFE15
 3921 060d 0100     		.2byte	0x1
 3922 060f 56       		.byte	0x56
 3923 0610 00000000 		.4byte	0
ARM GAS  /tmp/ccsDLGGk.s 			page 70


 3924 0614 00000000 		.4byte	0
 3925              	.LLST42:
 3926 0618 0E000000 		.4byte	.LVL58
 3927 061c 19000000 		.4byte	.LVL60-1
 3928 0620 0100     		.2byte	0x1
 3929 0622 53       		.byte	0x53
 3930 0623 26000000 		.4byte	.LVL63
 3931 0627 28000000 		.4byte	.LVL64
 3932 062b 0100     		.2byte	0x1
 3933 062d 53       		.byte	0x53
 3934 062e 00000000 		.4byte	0
 3935 0632 00000000 		.4byte	0
 3936              	.LLST43:
 3937 0636 1A000000 		.4byte	.LVL60
 3938 063a 26000000 		.4byte	.LVL63
 3939 063e 0100     		.2byte	0x1
 3940 0640 50       		.byte	0x50
 3941 0641 00000000 		.4byte	0
 3942 0645 00000000 		.4byte	0
 3943              	.LLST44:
 3944 0649 24000000 		.4byte	.LVL62
 3945 064d 26000000 		.4byte	.LVL63
 3946 0651 0100     		.2byte	0x1
 3947 0653 53       		.byte	0x53
 3948 0654 00000000 		.4byte	0
 3949 0658 00000000 		.4byte	0
 3950              	.LLST45:
 3951 065c 4C000000 		.4byte	.LVL69
 3952 0660 50000000 		.4byte	.LFE15
 3953 0664 0100     		.2byte	0x1
 3954 0666 53       		.byte	0x53
 3955 0667 00000000 		.4byte	0
 3956 066b 00000000 		.4byte	0
 3957              	.LLST46:
 3958 066f 00000000 		.4byte	.LFB16
 3959 0673 0A000000 		.4byte	.LCFI9
 3960 0677 0200     		.2byte	0x2
 3961 0679 7D       		.byte	0x7d
 3962 067a 00       		.sleb128 0
 3963 067b 0A000000 		.4byte	.LCFI9
 3964 067f 46000000 		.4byte	.LFE16
 3965 0683 0200     		.2byte	0x2
 3966 0685 7D       		.byte	0x7d
 3967 0686 08       		.sleb128 8
 3968 0687 00000000 		.4byte	0
 3969 068b 00000000 		.4byte	0
 3970              	.LLST47:
 3971 068f 00000000 		.4byte	.LVL70
 3972 0693 0C000000 		.4byte	.LVL71
 3973 0697 0100     		.2byte	0x1
 3974 0699 50       		.byte	0x50
 3975 069a 0C000000 		.4byte	.LVL71
 3976 069e 33000000 		.4byte	.LVL74-1
 3977 06a2 0100     		.2byte	0x1
 3978 06a4 53       		.byte	0x53
 3979 06a5 33000000 		.4byte	.LVL74-1
 3980 06a9 3C000000 		.4byte	.LVL76
ARM GAS  /tmp/ccsDLGGk.s 			page 71


 3981 06ad 0400     		.2byte	0x4
 3982 06af F3       		.byte	0xf3
 3983 06b0 01       		.uleb128 0x1
 3984 06b1 50       		.byte	0x50
 3985 06b2 9F       		.byte	0x9f
 3986 06b3 3C000000 		.4byte	.LVL76
 3987 06b7 46000000 		.4byte	.LFE16
 3988 06bb 0100     		.2byte	0x1
 3989 06bd 53       		.byte	0x53
 3990 06be 00000000 		.4byte	0
 3991 06c2 00000000 		.4byte	0
 3992              	.LLST48:
 3993 06c6 16000000 		.4byte	.LVL72
 3994 06ca 33000000 		.4byte	.LVL74-1
 3995 06ce 0300     		.2byte	0x3
 3996 06d0 73       		.byte	0x73
 3997 06d1 18       		.sleb128 24
 3998 06d2 06       		.byte	0x6
 3999 06d3 33000000 		.4byte	.LVL74-1
 4000 06d7 3C000000 		.4byte	.LVL76
 4001 06db 0100     		.2byte	0x1
 4002 06dd 54       		.byte	0x54
 4003 06de 00000000 		.4byte	0
 4004 06e2 00000000 		.4byte	0
 4005              	.LLST49:
 4006 06e6 2A000000 		.4byte	.LVL73
 4007 06ea 33000000 		.4byte	.LVL74-1
 4008 06ee 0100     		.2byte	0x1
 4009 06f0 53       		.byte	0x53
 4010 06f1 33000000 		.4byte	.LVL74-1
 4011 06f5 38000000 		.4byte	.LVL75
 4012 06f9 0400     		.2byte	0x4
 4013 06fb F3       		.byte	0xf3
 4014 06fc 01       		.uleb128 0x1
 4015 06fd 50       		.byte	0x50
 4016 06fe 9F       		.byte	0x9f
 4017 06ff 00000000 		.4byte	0
 4018 0703 00000000 		.4byte	0
 4019              	.LLST50:
 4020 0707 2A000000 		.4byte	.LVL73
 4021 070b 33000000 		.4byte	.LVL74-1
 4022 070f 0100     		.2byte	0x1
 4023 0711 50       		.byte	0x50
 4024 0712 00000000 		.4byte	0
 4025 0716 00000000 		.4byte	0
 4026              	.LLST51:
 4027 071a 00000000 		.4byte	.LFB17
 4028 071e 04000000 		.4byte	.LCFI10
 4029 0722 0200     		.2byte	0x2
 4030 0724 7D       		.byte	0x7d
 4031 0725 00       		.sleb128 0
 4032 0726 04000000 		.4byte	.LCFI10
 4033 072a 74000000 		.4byte	.LFE17
 4034 072e 0200     		.2byte	0x2
 4035 0730 7D       		.byte	0x7d
 4036 0731 20       		.sleb128 32
 4037 0732 00000000 		.4byte	0
ARM GAS  /tmp/ccsDLGGk.s 			page 72


 4038 0736 00000000 		.4byte	0
 4039              	.LLST52:
 4040 073a 00000000 		.4byte	.LVL77
 4041 073e 18000000 		.4byte	.LVL81
 4042 0742 0100     		.2byte	0x1
 4043 0744 50       		.byte	0x50
 4044 0745 18000000 		.4byte	.LVL81
 4045 0749 20000000 		.4byte	.LVL83
 4046 074d 0100     		.2byte	0x1
 4047 074f 54       		.byte	0x54
 4048 0750 20000000 		.4byte	.LVL83
 4049 0754 3F000000 		.4byte	.LVL86-1
 4050 0758 0100     		.2byte	0x1
 4051 075a 50       		.byte	0x50
 4052 075b 3F000000 		.4byte	.LVL86-1
 4053 075f 5C000000 		.4byte	.LVL94
 4054 0763 0100     		.2byte	0x1
 4055 0765 54       		.byte	0x54
 4056 0766 5C000000 		.4byte	.LVL94
 4057 076a 5E000000 		.4byte	.LVL95
 4058 076e 0100     		.2byte	0x1
 4059 0770 50       		.byte	0x50
 4060 0771 5E000000 		.4byte	.LVL95
 4061 0775 74000000 		.4byte	.LFE17
 4062 0779 0100     		.2byte	0x1
 4063 077b 54       		.byte	0x54
 4064 077c 00000000 		.4byte	0
 4065 0780 00000000 		.4byte	0
 4066              	.LLST53:
 4067 0784 00000000 		.4byte	.LVL77
 4068 0788 18000000 		.4byte	.LVL81
 4069 078c 0100     		.2byte	0x1
 4070 078e 51       		.byte	0x51
 4071 078f 18000000 		.4byte	.LVL81
 4072 0793 28000000 		.4byte	.LVL84
 4073 0797 0100     		.2byte	0x1
 4074 0799 58       		.byte	0x58
 4075 079a 28000000 		.4byte	.LVL84
 4076 079e 30000000 		.4byte	.LVL85
 4077 07a2 0300     		.2byte	0x3
 4078 07a4 78       		.byte	0x78
 4079 07a5 7F       		.sleb128 -1
 4080 07a6 9F       		.byte	0x9f
 4081 07a7 30000000 		.4byte	.LVL85
 4082 07ab 74000000 		.4byte	.LFE17
 4083 07af 0100     		.2byte	0x1
 4084 07b1 58       		.byte	0x58
 4085 07b2 00000000 		.4byte	0
 4086 07b6 00000000 		.4byte	0
 4087              	.LLST54:
 4088 07ba 00000000 		.4byte	.LVL77
 4089 07be 18000000 		.4byte	.LVL81
 4090 07c2 0100     		.2byte	0x1
 4091 07c4 52       		.byte	0x52
 4092 07c5 18000000 		.4byte	.LVL81
 4093 07c9 48000000 		.4byte	.LVL89
 4094 07cd 0100     		.2byte	0x1
ARM GAS  /tmp/ccsDLGGk.s 			page 73


 4095 07cf 56       		.byte	0x56
 4096 07d0 48000000 		.4byte	.LVL89
 4097 07d4 4A000000 		.4byte	.LVL90
 4098 07d8 0300     		.2byte	0x3
 4099 07da 76       		.byte	0x76
 4100 07db 7F       		.sleb128 -1
 4101 07dc 9F       		.byte	0x9f
 4102 07dd 4A000000 		.4byte	.LVL90
 4103 07e1 74000000 		.4byte	.LFE17
 4104 07e5 0100     		.2byte	0x1
 4105 07e7 56       		.byte	0x56
 4106 07e8 00000000 		.4byte	0
 4107 07ec 00000000 		.4byte	0
 4108              	.LLST55:
 4109 07f0 00000000 		.4byte	.LVL77
 4110 07f4 12000000 		.4byte	.LVL79
 4111 07f8 0100     		.2byte	0x1
 4112 07fa 53       		.byte	0x53
 4113 07fb 12000000 		.4byte	.LVL79
 4114 07ff 74000000 		.4byte	.LFE17
 4115 0803 0100     		.2byte	0x1
 4116 0805 5A       		.byte	0x5a
 4117 0806 00000000 		.4byte	0
 4118 080a 00000000 		.4byte	0
 4119              	.LLST56:
 4120 080e 10000000 		.4byte	.LVL78
 4121 0812 18000000 		.4byte	.LVL81
 4122 0816 0200     		.2byte	0x2
 4123 0818 30       		.byte	0x30
 4124 0819 9F       		.byte	0x9f
 4125 081a 18000000 		.4byte	.LVL81
 4126 081e 74000000 		.4byte	.LFE17
 4127 0822 0100     		.2byte	0x1
 4128 0824 57       		.byte	0x57
 4129 0825 00000000 		.4byte	0
 4130 0829 00000000 		.4byte	0
 4131              	.LLST57:
 4132 082d 16000000 		.4byte	.LVL80
 4133 0831 1E000000 		.4byte	.LVL82
 4134 0835 0100     		.2byte	0x1
 4135 0837 53       		.byte	0x53
 4136 0838 00000000 		.4byte	0
 4137 083c 00000000 		.4byte	0
 4138              	.LLST58:
 4139 0840 46000000 		.4byte	.LVL88
 4140 0844 4E000000 		.4byte	.LVL91
 4141 0848 0100     		.2byte	0x1
 4142 084a 53       		.byte	0x53
 4143 084b 6E000000 		.4byte	.LVL98
 4144 084f 74000000 		.4byte	.LFE17
 4145 0853 0100     		.2byte	0x1
 4146 0855 53       		.byte	0x53
 4147 0856 00000000 		.4byte	0
 4148 085a 00000000 		.4byte	0
 4149              	.LLST59:
 4150 085e 52000000 		.4byte	.LVL92
 4151 0862 58000000 		.4byte	.LVL93
ARM GAS  /tmp/ccsDLGGk.s 			page 74


 4152 0866 0100     		.2byte	0x1
 4153 0868 53       		.byte	0x53
 4154 0869 00000000 		.4byte	0
 4155 086d 00000000 		.4byte	0
 4156              	.LLST60:
 4157 0871 6E000000 		.4byte	.LVL98
 4158 0875 74000000 		.4byte	.LFE17
 4159 0879 0100     		.2byte	0x1
 4160 087b 53       		.byte	0x53
 4161 087c 00000000 		.4byte	0
 4162 0880 00000000 		.4byte	0
 4163              		.section	.debug_aranges,"",%progbits
 4164 0000 6C000000 		.4byte	0x6c
 4165 0004 0200     		.2byte	0x2
 4166 0006 00000000 		.4byte	.Ldebug_info0
 4167 000a 04       		.byte	0x4
 4168 000b 00       		.byte	0
 4169 000c 0000     		.2byte	0
 4170 000e 0000     		.2byte	0
 4171 0010 00000000 		.4byte	.LFB7
 4172 0014 2C000000 		.4byte	.LFE7-.LFB7
 4173 0018 00000000 		.4byte	.LFB8
 4174 001c 1A000000 		.4byte	.LFE8-.LFB8
 4175 0020 00000000 		.4byte	.LFB9
 4176 0024 2C000000 		.4byte	.LFE9-.LFB9
 4177 0028 00000000 		.4byte	.LFB10
 4178 002c 4A000000 		.4byte	.LFE10-.LFB10
 4179 0030 00000000 		.4byte	.LFB11
 4180 0034 48000000 		.4byte	.LFE11-.LFB11
 4181 0038 00000000 		.4byte	.LFB12
 4182 003c 72000000 		.4byte	.LFE12-.LFB12
 4183 0040 00000000 		.4byte	.LFB13
 4184 0044 18000000 		.4byte	.LFE13-.LFB13
 4185 0048 00000000 		.4byte	.LFB14
 4186 004c 2E000000 		.4byte	.LFE14-.LFB14
 4187 0050 00000000 		.4byte	.LFB15
 4188 0054 50000000 		.4byte	.LFE15-.LFB15
 4189 0058 00000000 		.4byte	.LFB16
 4190 005c 46000000 		.4byte	.LFE16-.LFB16
 4191 0060 00000000 		.4byte	.LFB17
 4192 0064 74000000 		.4byte	.LFE17-.LFB17
 4193 0068 00000000 		.4byte	0
 4194 006c 00000000 		.4byte	0
 4195              		.section	.debug_ranges,"",%progbits
 4196              	.Ldebug_ranges0:
 4197 0000 0C000000 		.4byte	.LBB12
 4198 0004 0E000000 		.4byte	.LBE12
 4199 0008 10000000 		.4byte	.LBB15
 4200 000c 18000000 		.4byte	.LBE15
 4201 0010 00000000 		.4byte	0
 4202 0014 00000000 		.4byte	0
 4203 0018 02000000 		.4byte	.LBB20
 4204 001c 04000000 		.4byte	.LBE20
 4205 0020 08000000 		.4byte	.LBB21
 4206 0024 0C000000 		.4byte	.LBE21
 4207 0028 00000000 		.4byte	0
 4208 002c 00000000 		.4byte	0
ARM GAS  /tmp/ccsDLGGk.s 			page 75


 4209 0030 14000000 		.4byte	.LBB22
 4210 0034 18000000 		.4byte	.LBE22
 4211 0038 1A000000 		.4byte	.LBB24
 4212 003c 2A000000 		.4byte	.LBE24
 4213 0040 00000000 		.4byte	0
 4214 0044 00000000 		.4byte	0
 4215 0048 0A000000 		.4byte	.LBB26
 4216 004c 10000000 		.4byte	.LBE26
 4217 0050 14000000 		.4byte	.LBB27
 4218 0054 1C000000 		.4byte	.LBE27
 4219 0058 00000000 		.4byte	0
 4220 005c 00000000 		.4byte	0
 4221 0060 10000000 		.4byte	.LBB34
 4222 0064 14000000 		.4byte	.LBE34
 4223 0068 16000000 		.4byte	.LBB36
 4224 006c 26000000 		.4byte	.LBE36
 4225 0070 00000000 		.4byte	0
 4226 0074 00000000 		.4byte	0
 4227 0078 00000000 		.4byte	.LFB7
 4228 007c 2C000000 		.4byte	.LFE7
 4229 0080 00000000 		.4byte	.LFB8
 4230 0084 1A000000 		.4byte	.LFE8
 4231 0088 00000000 		.4byte	.LFB9
 4232 008c 2C000000 		.4byte	.LFE9
 4233 0090 00000000 		.4byte	.LFB10
 4234 0094 4A000000 		.4byte	.LFE10
 4235 0098 00000000 		.4byte	.LFB11
 4236 009c 48000000 		.4byte	.LFE11
 4237 00a0 00000000 		.4byte	.LFB12
 4238 00a4 72000000 		.4byte	.LFE12
 4239 00a8 00000000 		.4byte	.LFB13
 4240 00ac 18000000 		.4byte	.LFE13
 4241 00b0 00000000 		.4byte	.LFB14
 4242 00b4 2E000000 		.4byte	.LFE14
 4243 00b8 00000000 		.4byte	.LFB15
 4244 00bc 50000000 		.4byte	.LFE15
 4245 00c0 00000000 		.4byte	.LFB16
 4246 00c4 46000000 		.4byte	.LFE16
 4247 00c8 00000000 		.4byte	.LFB17
 4248 00cc 74000000 		.4byte	.LFE17
 4249 00d0 00000000 		.4byte	0
 4250 00d4 00000000 		.4byte	0
 4251              		.section	.debug_line,"",%progbits
 4252              	.Ldebug_line0:
 4253 0000 93030000 		.section	.debug_str,"MS",%progbits,1
 4253      02009701 
 4253      00000201 
 4253      FB0E0D00 
 4253      01010101 
 4254              	.LASF83:
 4255 0000 63684F51 		.ascii	"chOQInit\000"
 4255      496E6974 
 4255      00
 4256              	.LASF36:
 4257 0009 705F6D73 		.ascii	"p_msg\000"
 4257      6700
 4258              	.LASF92:
ARM GAS  /tmp/ccsDLGGk.s 			page 76


 4259 000f 71756575 		.ascii	"queue_insert\000"
 4259      655F696E 
 4259      73657274 
 4259      00
 4260              	.LASF84:
 4261 001c 6F6E6679 		.ascii	"onfy\000"
 4261      00
 4262              	.LASF2:
 4263 0021 73697A65 		.ascii	"size_t\000"
 4263      5F7400
 4264              	.LASF59:
 4265 0028 7264796D 		.ascii	"rdymsg\000"
 4265      736700
 4266              	.LASF78:
 4267 002f 63684951 		.ascii	"chIQInit\000"
 4267      496E6974 
 4267      00
 4268              	.LASF74:
 4269 0038 4F757470 		.ascii	"OutputQueue\000"
 4269      75745175 
 4269      65756500 
 4270              	.LASF82:
 4271 0044 63684951 		.ascii	"chIQReadTimeout\000"
 4271      52656164 
 4271      54696D65 
 4271      6F757400 
 4272              	.LASF12:
 4273 0054 6C6F6E67 		.ascii	"long long unsigned int\000"
 4273      206C6F6E 
 4273      6720756E 
 4273      7369676E 
 4273      65642069 
 4274              	.LASF60:
 4275 006b 65786974 		.ascii	"exitcode\000"
 4275      636F6465 
 4275      00
 4276              	.LASF25:
 4277 0074 705F7072 		.ascii	"p_prio\000"
 4277      696F00
 4278              	.LASF65:
 4279 007b 715F7761 		.ascii	"q_waiting\000"
 4279      6974696E 
 4279      6700
 4280              	.LASF11:
 4281 0085 6C6F6E67 		.ascii	"long long int\000"
 4281      206C6F6E 
 4281      6720696E 
 4281      7400
 4282              	.LASF1:
 4283 0093 7369676E 		.ascii	"signed char\000"
 4283      65642063 
 4283      68617200 
 4284              	.LASF40:
 4285 009f 705F6D70 		.ascii	"p_mpool\000"
 4285      6F6F6C00 
 4286              	.LASF13:
 4287 00a7 626F6F6C 		.ascii	"bool_t\000"
ARM GAS  /tmp/ccsDLGGk.s 			page 77


 4287      5F7400
 4288              	.LASF56:
 4289 00ae 6D5F7175 		.ascii	"m_queue\000"
 4289      65756500 
 4290              	.LASF94:
 4291 00b6 71776169 		.ascii	"qwait\000"
 4291      7400
 4292              	.LASF8:
 4293 00bc 6C6F6E67 		.ascii	"long int\000"
 4293      20696E74 
 4293      00
 4294              	.LASF15:
 4295 00c5 74737461 		.ascii	"tstate_t\000"
 4295      74655F74 
 4295      00
 4296              	.LASF87:
 4297 00ce 63684F51 		.ascii	"chOQGetI\000"
 4297      47657449 
 4297      00
 4298              	.LASF67:
 4299 00d7 715F6275 		.ascii	"q_buffer\000"
 4299      66666572 
 4299      00
 4300              	.LASF69:
 4301 00e0 715F7772 		.ascii	"q_wrptr\000"
 4301      70747200 
 4302              	.LASF27:
 4303 00e8 705F6E65 		.ascii	"p_newer\000"
 4303      77657200 
 4304              	.LASF50:
 4305 00f0 725F6E65 		.ascii	"r_newer\000"
 4305      77657200 
 4306              	.LASF43:
 4307 00f8 72656761 		.ascii	"regarm_t\000"
 4307      726D5F74 
 4307      00
 4308              	.LASF86:
 4309 0101 63684F51 		.ascii	"chOQPutTimeout\000"
 4309      50757454 
 4309      696D656F 
 4309      757400
 4310              	.LASF80:
 4311 0110 63684951 		.ascii	"chIQPutI\000"
 4311      50757449 
 4311      00
 4312              	.LASF21:
 4313 0119 636E745F 		.ascii	"cnt_t\000"
 4313      7400
 4314              	.LASF0:
 4315 011f 756E7369 		.ascii	"unsigned int\000"
 4315      676E6564 
 4315      20696E74 
 4315      00
 4316              	.LASF79:
 4317 012c 63684951 		.ascii	"chIQResetI\000"
 4317      52657365 
 4317      744900
ARM GAS  /tmp/ccsDLGGk.s 			page 78


 4318              	.LASF10:
 4319 0137 6C6F6E67 		.ascii	"long unsigned int\000"
 4319      20756E73 
 4319      69676E65 
 4319      6420696E 
 4319      7400
 4320              	.LASF91:
 4321 0149 2F686F6D 		.ascii	"/home/rumman/Documents/ChibiOS_Examples/HelloWorld\000"
 4321      652F7275 
 4321      6D6D616E 
 4321      2F446F63 
 4321      756D656E 
 4322              	.LASF45:
 4323 017c 636F6E74 		.ascii	"context\000"
 4323      65787400 
 4324              	.LASF76:
 4325 0184 73697A65 		.ascii	"size\000"
 4325      00
 4326              	.LASF6:
 4327 0189 73686F72 		.ascii	"short unsigned int\000"
 4327      7420756E 
 4327      7369676E 
 4327      65642069 
 4327      6E7400
 4328              	.LASF90:
 4329 019c 2E2E2F2E 		.ascii	"../../ChibiOS_2.4.3/os/kernel/src/chqueues.c\000"
 4329      2E2F4368 
 4329      6962694F 
 4329      535F322E 
 4329      342E332F 
 4330              	.LASF18:
 4331 01c9 6D73675F 		.ascii	"msg_t\000"
 4331      7400
 4332              	.LASF14:
 4333 01cf 746D6F64 		.ascii	"tmode_t\000"
 4333      655F7400 
 4334              	.LASF42:
 4335 01d7 54687265 		.ascii	"ThreadsList\000"
 4335      6164734C 
 4335      69737400 
 4336              	.LASF19:
 4337 01e3 6576656E 		.ascii	"eventmask_t\000"
 4337      746D6173 
 4337      6B5F7400 
 4338              	.LASF73:
 4339 01ef 496E7075 		.ascii	"InputQueue\000"
 4339      74517565 
 4339      756500
 4340              	.LASF55:
 4341 01fa 4D757465 		.ascii	"Mutex\000"
 4341      7800
 4342              	.LASF64:
 4343 0200 47656E65 		.ascii	"GenericQueue\000"
 4343      72696351 
 4343      75657565 
 4343      00
 4344              	.LASF88:
ARM GAS  /tmp/ccsDLGGk.s 			page 79


 4345 020d 63684F51 		.ascii	"chOQWriteTimeout\000"
 4345      57726974 
 4345      6554696D 
 4345      656F7574 
 4345      00
 4346              	.LASF46:
 4347 021e 73697A65 		.ascii	"sizetype\000"
 4347      74797065 
 4347      00
 4348              	.LASF66:
 4349 0227 715F636F 		.ascii	"q_counter\000"
 4349      756E7465 
 4349      7200
 4350              	.LASF28:
 4351 0231 705F6F6C 		.ascii	"p_older\000"
 4351      64657200 
 4352              	.LASF49:
 4353 0239 725F6374 		.ascii	"r_ctx\000"
 4353      7800
 4354              	.LASF41:
 4355 023f 54687265 		.ascii	"ThreadsQueue\000"
 4355      61647351 
 4355      75657565 
 4355      00
 4356              	.LASF75:
 4357 024c 74696D65 		.ascii	"time\000"
 4357      00
 4358              	.LASF53:
 4359 0251 725F6375 		.ascii	"r_current\000"
 4359      7272656E 
 4359      7400
 4360              	.LASF51:
 4361 025b 725F6F6C 		.ascii	"r_older\000"
 4361      64657200 
 4362              	.LASF16:
 4363 0263 74726566 		.ascii	"trefs_t\000"
 4363      735F7400 
 4364              	.LASF72:
 4365 026b 716E6F74 		.ascii	"qnotify_t\000"
 4365      6966795F 
 4365      7400
 4366              	.LASF24:
 4367 0275 705F7072 		.ascii	"p_prev\000"
 4367      657600
 4368              	.LASF17:
 4369 027c 74707269 		.ascii	"tprio_t\000"
 4369      6F5F7400 
 4370              	.LASF89:
 4371 0284 474E5520 		.ascii	"GNU C 4.7.3 20130312 (release) [ARM/embedded-4_7-br"
 4371      4320342E 
 4371      372E3320 
 4371      32303133 
 4371      30333132 
 4372 02b7 616E6368 		.ascii	"anch revision 196615]\000"
 4372      20726576 
 4372      6973696F 
 4372      6E203139 
ARM GAS  /tmp/ccsDLGGk.s 			page 80


 4372      36363135 
 4373              	.LASF7:
 4374 02cd 696E7433 		.ascii	"int32_t\000"
 4374      325F7400 
 4375              	.LASF4:
 4376 02d5 756E7369 		.ascii	"unsigned char\000"
 4376      676E6564 
 4376      20636861 
 4376      7200
 4377              	.LASF38:
 4378 02e3 705F6D74 		.ascii	"p_mtxlist\000"
 4378      786C6973 
 4378      7400
 4379              	.LASF5:
 4380 02ed 73686F72 		.ascii	"short int\000"
 4380      7420696E 
 4380      7400
 4381              	.LASF30:
 4382 02f7 705F7374 		.ascii	"p_state\000"
 4382      61746500 
 4383              	.LASF48:
 4384 02ff 725F7072 		.ascii	"r_prio\000"
 4384      696F00
 4385              	.LASF62:
 4386 0306 65776D61 		.ascii	"ewmask\000"
 4386      736B00
 4387              	.LASF23:
 4388 030d 705F6E65 		.ascii	"p_next\000"
 4388      787400
 4389              	.LASF77:
 4390 0314 696E6679 		.ascii	"infy\000"
 4390      00
 4391              	.LASF70:
 4392 0319 715F7264 		.ascii	"q_rdptr\000"
 4392      70747200 
 4393              	.LASF31:
 4394 0321 705F666C 		.ascii	"p_flags\000"
 4394      61677300 
 4395              	.LASF22:
 4396 0329 54687265 		.ascii	"Thread\000"
 4396      616400
 4397              	.LASF37:
 4398 0330 705F6570 		.ascii	"p_epending\000"
 4398      656E6469 
 4398      6E6700
 4399              	.LASF9:
 4400 033b 75696E74 		.ascii	"uint32_t\000"
 4400      33325F74 
 4400      00
 4401              	.LASF47:
 4402 0344 725F7175 		.ascii	"r_queue\000"
 4402      65756500 
 4403              	.LASF97:
 4404 034c 63685363 		.ascii	"chSchReadyI\000"
 4404      68526561 
 4404      64794900 
 4405              	.LASF63:
ARM GAS  /tmp/ccsDLGGk.s 			page 81


 4406 0358 63686172 		.ascii	"char\000"
 4406      00
 4407              	.LASF93:
 4408 035d 6669666F 		.ascii	"fifo_remove\000"
 4408      5F72656D 
 4408      6F766500 
 4409              	.LASF58:
 4410 0369 6D5F6E65 		.ascii	"m_next\000"
 4410      787400
 4411              	.LASF20:
 4412 0370 73797374 		.ascii	"systime_t\000"
 4412      696D655F 
 4412      7400
 4413              	.LASF39:
 4414 037a 705F7265 		.ascii	"p_realprio\000"
 4414      616C7072 
 4414      696F00
 4415              	.LASF85:
 4416 0385 63684F51 		.ascii	"chOQResetI\000"
 4416      52657365 
 4416      744900
 4417              	.LASF33:
 4418 0390 705F7469 		.ascii	"p_time\000"
 4418      6D6500
 4419              	.LASF44:
 4420 0397 696E7463 		.ascii	"intctx\000"
 4420      747800
 4421              	.LASF35:
 4422 039e 705F6D73 		.ascii	"p_msgqueue\000"
 4422      67717565 
 4422      756500
 4423              	.LASF68:
 4424 03a9 715F746F 		.ascii	"q_top\000"
 4424      7000
 4425              	.LASF32:
 4426 03af 705F7265 		.ascii	"p_refs\000"
 4426      667300
 4427              	.LASF54:
 4428 03b6 52656164 		.ascii	"ReadyList\000"
 4428      794C6973 
 4428      7400
 4429              	.LASF71:
 4430 03c0 715F6E6F 		.ascii	"q_notify\000"
 4430      74696679 
 4430      00
 4431              	.LASF95:
 4432 03c9 726C6973 		.ascii	"rlist\000"
 4432      7400
 4433              	.LASF3:
 4434 03cf 75696E74 		.ascii	"uint8_t\000"
 4434      385F7400 
 4435              	.LASF61:
 4436 03d7 77746F62 		.ascii	"wtobjp\000"
 4436      6A7000
 4437              	.LASF29:
 4438 03de 705F6E61 		.ascii	"p_name\000"
 4438      6D6500
ARM GAS  /tmp/ccsDLGGk.s 			page 82


 4439              	.LASF96:
 4440 03e5 63685363 		.ascii	"chSchGoSleepTimeoutS\000"
 4440      68476F53 
 4440      6C656570 
 4440      54696D65 
 4440      6F757453 
 4441              	.LASF52:
 4442 03fa 725F7072 		.ascii	"r_preempt\000"
 4442      65656D70 
 4442      7400
 4443              	.LASF57:
 4444 0404 6D5F6F77 		.ascii	"m_owner\000"
 4444      6E657200 
 4445              	.LASF26:
 4446 040c 705F6374 		.ascii	"p_ctx\000"
 4446      7800
 4447              	.LASF34:
 4448 0412 705F7761 		.ascii	"p_waiting\000"
 4448      6974696E 
 4448      6700
 4449              	.LASF81:
 4450 041c 63684951 		.ascii	"chIQGetTimeout\000"
 4450      47657454 
 4450      696D656F 
 4450      757400
 4451              		.ident	"GCC: (GNU Tools for ARM Embedded Processors) 4.7.3 20130312 (release) [ARM/embedded-4_7-br
ARM GAS  /tmp/ccsDLGGk.s 			page 83


DEFINED SYMBOLS
                            *ABS*:00000000 chqueues.c
     /tmp/ccsDLGGk.s:19     .text.qwait:00000000 $t
     /tmp/ccsDLGGk.s:24     .text.qwait:00000000 qwait
     /tmp/ccsDLGGk.s:79     .text.qwait:00000028 $d
     /tmp/ccsDLGGk.s:84     .text.chIQInit:00000000 $t
     /tmp/ccsDLGGk.s:90     .text.chIQInit:00000000 chIQInit
     /tmp/ccsDLGGk.s:127    .text.chIQResetI:00000000 $t
     /tmp/ccsDLGGk.s:133    .text.chIQResetI:00000000 chIQResetI
     /tmp/ccsDLGGk.s:193    .text.chIQPutI:00000000 $t
     /tmp/ccsDLGGk.s:199    .text.chIQPutI:00000000 chIQPutI
     /tmp/ccsDLGGk.s:280    .text.chIQGetTimeout:00000000 $t
     /tmp/ccsDLGGk.s:286    .text.chIQGetTimeout:00000000 chIQGetTimeout
     /tmp/ccsDLGGk.s:390    .text.chIQReadTimeout:00000000 $t
     /tmp/ccsDLGGk.s:396    .text.chIQReadTimeout:00000000 chIQReadTimeout
     /tmp/ccsDLGGk.s:528    .text.chOQInit:00000000 $t
     /tmp/ccsDLGGk.s:534    .text.chOQInit:00000000 chOQInit
     /tmp/ccsDLGGk.s:568    .text.chOQResetI:00000000 $t
     /tmp/ccsDLGGk.s:574    .text.chOQResetI:00000000 chOQResetI
     /tmp/ccsDLGGk.s:636    .text.chOQPutTimeout:00000000 $t
     /tmp/ccsDLGGk.s:642    .text.chOQPutTimeout:00000000 chOQPutTimeout
     /tmp/ccsDLGGk.s:753    .text.chOQGetI:00000000 $t
     /tmp/ccsDLGGk.s:759    .text.chOQGetI:00000000 chOQGetI
     /tmp/ccsDLGGk.s:837    .text.chOQWriteTimeout:00000000 $t
     /tmp/ccsDLGGk.s:843    .text.chOQWriteTimeout:00000000 chOQWriteTimeout
                     .debug_frame:00000010 $d
     /tmp/ccsDLGGk.s:83     .text.qwait:0000002c $t

UNDEFINED SYMBOLS
chSchGoSleepTimeoutS
rlist
chSchReadyI
