ARM GAS  /tmp/ccY8nKIG.s 			page 1


   1              		.syntax unified
   2              		.cpu cortex-m4
   3              		.fpu softvfp
   4              		.eabi_attribute 20, 1
   5              		.eabi_attribute 21, 1
   6              		.eabi_attribute 23, 3
   7              		.eabi_attribute 24, 1
   8              		.eabi_attribute 25, 1
   9              		.eabi_attribute 26, 1
  10              		.eabi_attribute 30, 2
  11              		.eabi_attribute 34, 1
  12              		.eabi_attribute 18, 4
  13              		.thumb
  14              		.file	"hal.c"
  15              		.text
  16              	.Ltext0:
  17              		.cfi_sections	.debug_frame
  18              		.section	.text.halInit,"ax",%progbits
  19              		.align	2
  20              		.p2align 4,,15
  21              		.global	halInit
  22              		.thumb
  23              		.thumb_func
  24              		.type	halInit, %function
  25              	halInit:
  26              	.LFB117:
  27              		.file 1 "../../ChibiOS_2.4.3/os/hal/src/hal.c"
  28              		.loc 1 68 0
  29              		.cfi_startproc
  30              		@ args = 0, pretend = 0, frame = 0
  31              		@ frame_needed = 0, uses_anonymous_args = 0
  32 0000 08B5     		push	{r3, lr}
  33              	.LCFI0:
  34              		.cfi_def_cfa_offset 8
  35              		.cfi_offset 3, -8
  36              		.cfi_offset 14, -4
  37              		.loc 1 70 0
  38 0002 FFF7FEFF 		bl	hal_lld_init
  39              	.LVL0:
  40              		.loc 1 76 0
  41 0006 40F20000 		movw	r0, #:lower16:pal_default_config
  42 000a C0F20000 		movt	r0, #:upper16:pal_default_config
  43 000e FFF7FEFF 		bl	_pal_lld_init
  44              	.LVL1:
  45              		.loc 1 79 0
  46 0012 FFF7FEFF 		bl	adcInit
  47              	.LVL2:
  48              		.loc 1 100 0
  49 0016 FFF7FEFF 		bl	pwmInit
  50              	.LVL3:
  51              		.loc 1 103 0
  52 001a FFF7FEFF 		bl	sdInit
  53              	.LVL4:
  54              		.loc 1 109 0
  55 001e FFF7FEFF 		bl	spiInit
  56              	.LVL5:
  57              		.loc 1 128 0
ARM GAS  /tmp/ccY8nKIG.s 			page 2


  58 0022 BDE80840 		pop	{r3, lr}
  59              		.loc 1 127 0
  60 0026 FFF7FEBF 		b	boardInit
  61              	.LVL6:
  62              		.cfi_endproc
  63              	.LFE117:
  64              		.size	halInit, .-halInit
  65              		.section	.text.halIsCounterWithin,"ax",%progbits
  66              		.align	2
  67              		.p2align 4,,15
  68              		.global	halIsCounterWithin
  69              		.thumb
  70              		.thumb_func
  71              		.type	halIsCounterWithin, %function
  72              	halIsCounterWithin:
  73              	.LFB118:
  74              		.loc 1 174 0
  75              		.cfi_startproc
  76              		@ args = 0, pretend = 0, frame = 0
  77              		@ frame_needed = 0, uses_anonymous_args = 0
  78              		@ link register save eliminated.
  79              	.LVL7:
  80              		.loc 1 175 0
  81 0000 4FF48053 		mov	r3, #4096
  82 0004 CEF20003 		movt	r3, 57344
  83              		.loc 1 177 0
  84 0008 8142     		cmp	r1, r0
  85              		.loc 1 175 0
  86 000a 5A68     		ldr	r2, [r3, #4]
  87              	.LVL8:
  88              		.loc 1 177 0
  89 000c 05D9     		bls	.L3
  90              		.loc 1 177 0 is_stmt 0 discriminator 1
  91 000e 8242     		cmp	r2, r0
  92 0010 01D3     		bcc	.L7
  93              		.loc 1 177 0 discriminator 3
  94 0012 8A42     		cmp	r2, r1
  95 0014 03D3     		bcc	.L5
  96              	.L7:
  97              		.loc 1 177 0
  98 0016 0020     		movs	r0, #0
  99              	.LVL9:
 100              		.loc 1 179 0 is_stmt 1
 101 0018 7047     		bx	lr
 102              	.LVL10:
 103              	.L3:
 104              		.loc 1 177 0 discriminator 2
 105 001a 8242     		cmp	r2, r0
 106 001c 01D3     		bcc	.L9
 107              	.L5:
 108              		.loc 1 177 0 is_stmt 0
 109 001e 0120     		movs	r0, #1
 110              	.LVL11:
 111 0020 7047     		bx	lr
 112              	.LVL12:
 113              	.L9:
 114              		.loc 1 178 0 is_stmt 1
ARM GAS  /tmp/ccY8nKIG.s 			page 3


 115 0022 8A42     		cmp	r2, r1
 116 0024 2CBF     		ite	cs
 117 0026 0020     		movcs	r0, #0
 118              	.LVL13:
 119 0028 0120     		movcc	r0, #1
 120 002a 7047     		bx	lr
 121              		.cfi_endproc
 122              	.LFE118:
 123              		.size	halIsCounterWithin, .-halIsCounterWithin
 124 002c AFF30080 		.section	.text.halPolledDelay,"ax",%progbits
 125              		.align	2
 126              		.p2align 4,,15
 127              		.global	halPolledDelay
 128              		.thumb
 129              		.thumb_func
 130              		.type	halPolledDelay, %function
 131              	halPolledDelay:
 132              	.LFB119:
 133              		.loc 1 193 0
 134              		.cfi_startproc
 135              		@ args = 0, pretend = 0, frame = 0
 136              		@ frame_needed = 0, uses_anonymous_args = 0
 137              		@ link register save eliminated.
 138              	.LVL14:
 139              		.loc 1 194 0
 140 0000 4FF48053 		mov	r3, #4096
 141 0004 CEF20003 		movt	r3, 57344
 142              	.LBB4:
 143              	.LBB5:
 144              		.loc 1 175 0
 145 0008 1946     		mov	r1, r3
 146              	.LBE5:
 147              	.LBE4:
 148              		.loc 1 194 0
 149 000a 5A68     		ldr	r2, [r3, #4]
 150              	.LVL15:
 151              		.loc 1 195 0
 152 000c 8018     		adds	r0, r0, r2
 153              	.LVL16:
 154              	.L16:
 155              	.LBB7:
 156              	.LBB6:
 157              		.loc 1 177 0 discriminator 1
 158 000e 8242     		cmp	r2, r0
 159              		.loc 1 175 0 discriminator 1
 160 0010 4B68     		ldr	r3, [r1, #4]
 161              	.LVL17:
 162              		.loc 1 177 0 discriminator 1
 163 0012 02D2     		bcs	.L11
 164              		.loc 1 177 0 is_stmt 0
 165 0014 9A42     		cmp	r2, r3
 166 0016 05D9     		bls	.L17
 167 0018 7047     		bx	lr
 168              	.L11:
 169 001a 9A42     		cmp	r2, r3
 170 001c F7D9     		bls	.L16
 171              		.loc 1 178 0 is_stmt 1
ARM GAS  /tmp/ccY8nKIG.s 			page 4


 172 001e 9842     		cmp	r0, r3
 173 0020 F5D8     		bhi	.L16
 174 0022 7047     		bx	lr
 175              	.L17:
 176              		.loc 1 177 0
 177 0024 9842     		cmp	r0, r3
 178 0026 F2D8     		bhi	.L16
 179 0028 7047     		bx	lr
 180              	.LBE6:
 181              	.LBE7:
 182              		.cfi_endproc
 183              	.LFE119:
 184              		.size	halPolledDelay, .-halPolledDelay
 185 002a 00BFAFF3 		.text
 185      0080
 186              	.Letext0:
 187              		.file 2 "/opt/ARM/bin/../lib/gcc/arm-none-eabi/4.7.3/../../../../arm-none-eabi/include/stdint.h"
 188              		.file 3 "../../ChibiOS_2.4.3/os/ports/GCC/ARMCMx/chtypes.h"
 189              		.file 4 "../../ChibiOS_2.4.3/os/ports/common/ARMCMx/nvic.h"
 190              		.file 5 "../../ChibiOS_2.4.3/os/hal/platforms/STM32F4xx/hal_lld.h"
 191              		.file 6 "../../ChibiOS_2.4.3/os/hal/platforms/STM32/GPIOv2/pal_lld.h"
 192              		.file 7 "../../ChibiOS_2.4.3/os/ports/common/ARMCMx/CMSIS/include/core_cm4.h"
 193              		.file 8 "../../ChibiOS_2.4.3/os/hal/include/adc.h"
 194              		.file 9 "../../ChibiOS_2.4.3/os/hal/include/pwm.h"
 195              		.file 10 "../../ChibiOS_2.4.3/os/hal/include/serial.h"
 196              		.file 11 "../../ChibiOS_2.4.3/os/hal/include/spi.h"
 197              		.file 12 "../../ChibiOS_2.4.3/boards/ST_STM32F4_DISCOVERY/board.h"