ARM GAS  /tmp/cceM65sa.s 			page 1


   1              		.syntax unified
   2              		.cpu cortex-m4
   3              		.fpu softvfp
   4              		.eabi_attribute 20, 1
   5              		.eabi_attribute 21, 1
   6              		.eabi_attribute 23, 3
   7              		.eabi_attribute 24, 1
   8              		.eabi_attribute 25, 1
   9              		.eabi_attribute 26, 1
  10              		.eabi_attribute 30, 2
  11              		.eabi_attribute 34, 1
  12              		.eabi_attribute 18, 4
  13              		.thumb
  14              		.file	"pwm_lld.c"
  15              		.text
  16              	.Ltext0:
  17              		.cfi_sections	.debug_frame
  18              		.section	.text.VectorB8,"ax",%progbits
  19              		.align	2
  20              		.p2align 4,,15
  21              		.global	VectorB8
  22              		.thumb
  23              		.thumb_func
  24              		.type	VectorB8, %function
  25              	VectorB8:
  26              	.LFB118:
  27              		.file 1 "../../ChibiOS_2.4.3/os/hal/platforms/STM32/pwm_lld.c"
  28              		.loc 1 221 0
  29              		.cfi_startproc
  30              		@ args = 0, pretend = 0, frame = 0
  31              		@ frame_needed = 0, uses_anonymous_args = 0
  32              	.LVL0:
  33 0000 38B5     		push	{r3, r4, r5, lr}
  34              	.LCFI0:
  35              		.cfi_def_cfa_offset 16
  36              		.cfi_offset 3, -16
  37              		.cfi_offset 4, -12
  38              		.cfi_offset 5, -8
  39              		.cfi_offset 14, -4
  40              	.LBB4:
  41              	.LBB5:
  42              		.loc 1 114 0
  43 0002 1C4D     		ldr	r5, .L27
  44 0004 2B69     		ldr	r3, [r5, #16]
  45 0006 1A8A     		ldrh	r2, [r3, #16]
  46              	.LVL1:
  47              		.loc 1 115 0
  48 0008 9C89     		ldrh	r4, [r3, #12]
  49 000a A4B2     		uxth	r4, r4
  50 000c 1440     		ands	r4, r4, r2
  51              	.LVL2:
  52              		.loc 1 118 0
  53 000e 04F00200 		and	r0, r4, #2
  54              		.loc 1 116 0
  55 0012 4FF6E071 		movw	r1, #65504
  56              		.loc 1 118 0
  57 0016 82B2     		uxth	r2, r0
ARM GAS  /tmp/cceM65sa.s 			page 2


  58              		.loc 1 116 0
  59 0018 1982     		strh	r1, [r3, #16]	@ movhi
  60              		.loc 1 118 0
  61 001a 002A     		cmp	r2, #0
  62 001c 24D1     		bne	.L23
  63              	.L2:
  64              		.loc 1 120 0
  65 001e 04F00400 		and	r0, r4, #4
  66 0022 81B2     		uxth	r1, r0
  67 0024 D9B9     		cbnz	r1, .L24
  68              	.L3:
  69              		.loc 1 122 0
  70 0026 04F00800 		and	r0, r4, #8
  71 002a 81B2     		uxth	r1, r0
  72 002c 91B9     		cbnz	r1, .L25
  73              	.L4:
  74              		.loc 1 124 0
  75 002e 04F01000 		and	r0, r4, #16
  76 0032 81B2     		uxth	r1, r0
  77 0034 49B9     		cbnz	r1, .L26
  78              	.L5:
  79              		.loc 1 126 0
  80 0036 E307     		lsls	r3, r4, #31
  81 0038 03D5     		bpl	.L6
  82              		.loc 1 127 0
  83 003a 6968     		ldr	r1, [r5, #4]
  84 003c 0D48     		ldr	r0, .L27
  85 003e 8B68     		ldr	r3, [r1, #8]
  86 0040 9847     		blx	r3
  87              	.LVL3:
  88              	.L6:
  89              	.LBE5:
  90              	.LBE4:
  91              		.loc 1 228 0
  92 0042 BDE83840 		pop	{r3, r4, r5, lr}
  93              		.loc 1 227 0
  94 0046 FFF7FEBF 		b	_port_irq_epilogue
  95              	.LVL4:
  96              	.L26:
  97              	.LBB7:
  98              	.LBB6:
  99              		.loc 1 125 0
 100 004a 6B68     		ldr	r3, [r5, #4]
 101 004c 0948     		ldr	r0, .L27
 102 004e 9A6A     		ldr	r2, [r3, #40]
 103 0050 9047     		blx	r2
 104              	.LVL5:
 105 0052 F0E7     		b	.L5
 106              	.L25:
 107              		.loc 1 123 0
 108 0054 6B68     		ldr	r3, [r5, #4]
 109 0056 0748     		ldr	r0, .L27
 110 0058 1A6A     		ldr	r2, [r3, #32]
 111 005a 9047     		blx	r2
 112              	.LVL6:
 113 005c E7E7     		b	.L4
 114              	.L24:
ARM GAS  /tmp/cceM65sa.s 			page 3


 115              		.loc 1 121 0
 116 005e 6B68     		ldr	r3, [r5, #4]
 117 0060 0448     		ldr	r0, .L27
 118 0062 9A69     		ldr	r2, [r3, #24]
 119 0064 9047     		blx	r2
 120              	.LVL7:
 121 0066 DEE7     		b	.L3
 122              	.L23:
 123              		.loc 1 119 0
 124 0068 6B68     		ldr	r3, [r5, #4]
 125 006a 2846     		mov	r0, r5
 126 006c 1A69     		ldr	r2, [r3, #16]
 127 006e 9047     		blx	r2
 128              	.LVL8:
 129 0070 D5E7     		b	.L2
 130              	.L28:
 131 0072 00BF     		.align	2
 132              	.L27:
 133 0074 00000000 		.word	.LANCHOR0
 134              	.LBE6:
 135              	.LBE7:
 136              		.cfi_endproc
 137              	.LFE118:
 138              		.size	VectorB8, .-VectorB8
 139 0078 AFF30080 		.section	.text.pwm_lld_init,"ax",%progbits
 139      AFF30080 
 140              		.align	2
 141              		.p2align 4,,15
 142              		.global	pwm_lld_init
 143              		.thumb
 144              		.thumb_func
 145              		.type	pwm_lld_init, %function
 146              	pwm_lld_init:
 147              	.LFB119:
 148              		.loc 1 303 0
 149              		.cfi_startproc
 150              		@ args = 0, pretend = 0, frame = 0
 151              		@ frame_needed = 0, uses_anonymous_args = 0
 152 0000 10B5     		push	{r4, lr}
 153              	.LCFI1:
 154              		.cfi_def_cfa_offset 8
 155              		.cfi_offset 4, -8
 156              		.cfi_offset 14, -4
 157              		.loc 1 325 0
 158 0002 40F20004 		movw	r4, #:lower16:.LANCHOR0
 159 0006 C0F20004 		movt	r4, #:upper16:.LANCHOR0
 160 000a 2046     		mov	r0, r4
 161 000c FFF7FEFF 		bl	pwmObjectInit
 162              	.LVL9:
 163              		.loc 1 326 0
 164 0010 4FF40063 		mov	r3, #2048
 165 0014 C4F20003 		movt	r3, 16384
 166 0018 2361     		str	r3, [r4, #16]
 167 001a 10BD     		pop	{r4, pc}
 168              		.cfi_endproc
 169              	.LFE119:
 170              		.size	pwm_lld_init, .-pwm_lld_init
ARM GAS  /tmp/cceM65sa.s 			page 4


 171 001c AFF30080 		.section	.text.pwm_lld_start,"ax",%progbits
 172              		.align	2
 173              		.p2align 4,,15
 174              		.global	pwm_lld_start
 175              		.thumb
 176              		.thumb_func
 177              		.type	pwm_lld_start, %function
 178              	pwm_lld_start:
 179              	.LFB120:
 180              		.loc 1 351 0
 181              		.cfi_startproc
 182              		@ args = 0, pretend = 0, frame = 0
 183              		@ frame_needed = 0, uses_anonymous_args = 0
 184              	.LVL10:
 185              		.loc 1 355 0
 186 0000 0378     		ldrb	r3, [r0, #0]	@ zero_extendqisi2
 187 0002 012B     		cmp	r3, #1
 188              		.loc 1 351 0
 189 0004 70B5     		push	{r4, r5, r6, lr}
 190              	.LCFI2:
 191              		.cfi_def_cfa_offset 16
 192              		.cfi_offset 4, -16
 193              		.cfi_offset 5, -12
 194              		.cfi_offset 6, -8
 195              		.cfi_offset 14, -4
 196              		.loc 1 351 0
 197 0006 0446     		mov	r4, r0
 198              		.loc 1 355 0
 199 0008 5FD0     		beq	.L57
 200              		.loc 1 430 0
 201 000a 0369     		ldr	r3, [r0, #16]
 202 000c 0022     		movs	r2, #0
 203 000e 1A80     		strh	r2, [r3, #0]	@ movhi
 204              		.loc 1 431 0
 205 0010 9A81     		strh	r2, [r3, #12]	@ movhi
 206              		.loc 1 432 0
 207 0012 1A82     		strh	r2, [r3, #16]	@ movhi
 208              		.loc 1 433 0
 209 0014 5A63     		str	r2, [r3, #52]
 210              		.loc 1 434 0
 211 0016 9A63     		str	r2, [r3, #56]
 212              		.loc 1 435 0
 213 0018 DA63     		str	r2, [r3, #60]
 214              		.loc 1 436 0
 215 001a 1A64     		str	r2, [r3, #64]
 216              		.loc 1 437 0
 217 001c 5A62     		str	r2, [r3, #36]
 218              	.LVL11:
 219              	.L33:
 220              		.loc 1 441 0
 221 001e 6168     		ldr	r1, [r4, #4]
 222              	.LVL12:
 223 0020 E668     		ldr	r6, [r4, #12]
 224 0022 0868     		ldr	r0, [r1, #0]
 225              		.loc 1 446 0
 226 0024 2589     		ldrh	r5, [r4, #8]
 227              		.loc 1 451 0
ARM GAS  /tmp/cceM65sa.s 			page 5


 228 0026 CA68     		ldr	r2, [r1, #12]
 229              		.loc 1 447 0
 230 0028 8C8D     		ldrh	r4, [r1, #44]
 231              	.LVL13:
 232              		.loc 1 441 0
 233 002a B6FBF0F0 		udiv	r0, r6, r0
 234 002e 0138     		subs	r0, r0, #1
 235              	.LVL14:
 236              		.loc 1 446 0
 237 0030 013D     		subs	r5, r5, #1
 238              		.loc 1 451 0
 239 0032 02F00F02 		and	r2, r2, #15
 240              		.loc 1 445 0
 241 0036 80B2     		uxth	r0, r0
 242              	.LVL15:
 243              		.loc 1 446 0
 244 0038 ADB2     		uxth	r5, r5
 245              		.loc 1 451 0
 246 003a 012A     		cmp	r2, #1
 247              		.loc 1 445 0
 248 003c 1885     		strh	r0, [r3, #40]	@ movhi
 249              		.loc 1 446 0
 250 003e DD62     		str	r5, [r3, #44]
 251              		.loc 1 447 0
 252 0040 9C80     		strh	r4, [r3, #4]	@ movhi
 253              	.LVL16:
 254              		.loc 1 451 0
 255 0042 03D0     		beq	.L34
 256              		.loc 1 450 0
 257 0044 022A     		cmp	r2, #2
 258 0046 0CBF     		ite	eq
 259 0048 0322     		moveq	r2, #3
 260 004a 0022     		movne	r2, #0
 261              	.L34:
 262              	.LVL17:
 263              		.loc 1 459 0
 264 004c 4869     		ldr	r0, [r1, #20]
 265 004e 00F00F00 		and	r0, r0, #15
 266 0052 0128     		cmp	r0, #1
 267 0054 1ED0     		beq	.L38
 268 0056 0228     		cmp	r0, #2
 269 0058 1AD0     		beq	.L58
 270              		.loc 1 467 0
 271 005a C869     		ldr	r0, [r1, #28]
 272 005c 00F00F00 		and	r0, r0, #15
 273 0060 0128     		cmp	r0, #1
 274 0062 1ED0     		beq	.L41
 275              	.LVL18:
 276              	.L61:
 277 0064 0228     		cmp	r0, #2
 278 0066 2BD0     		beq	.L59
 279              	.LVL19:
 280              		.loc 1 475 0
 281 0068 486A     		ldr	r0, [r1, #36]
 282 006a 00F00F00 		and	r0, r0, #15
 283 006e 0128     		cmp	r0, #1
 284 0070 1ED0     		beq	.L44
ARM GAS  /tmp/cceM65sa.s 			page 6


 285              	.LVL20:
 286              	.L62:
 287 0072 0228     		cmp	r0, #2
 288 0074 1FD0     		beq	.L60
 289              	.L43:
 290              	.LVL21:
 291              		.loc 1 522 0
 292 0076 8968     		ldr	r1, [r1, #8]
 293              	.LVL22:
 294              		.loc 1 520 0
 295 0078 1A84     		strh	r2, [r3, #32]	@ movhi
 296              		.loc 1 522 0
 297 007a 081C     		adds	r0, r1, #0
 298 007c 18BF     		it	ne
 299 007e 0120     		movne	r0, #1
 300              		.loc 1 521 0
 301 0080 0122     		movs	r2, #1
 302              	.LVL23:
 303 0082 9A82     		strh	r2, [r3, #20]	@ movhi
 304              		.loc 1 523 0
 305 0084 0021     		movs	r1, #0
 306              		.loc 1 522 0
 307 0086 9881     		strh	r0, [r3, #12]	@ movhi
 308              		.loc 1 532 0
 309 0088 8520     		movs	r0, #133
 310              		.loc 1 523 0
 311 008a 1982     		strh	r1, [r3, #16]	@ movhi
 312              		.loc 1 532 0
 313 008c 1880     		strh	r0, [r3, #0]	@ movhi
 314 008e 70BD     		pop	{r4, r5, r6, pc}
 315              	.LVL24:
 316              	.L58:
 317              		.loc 1 461 0
 318 0090 42F02002 		orr	r2, r2, #32
 319              	.LVL25:
 320              	.L38:
 321              		.loc 1 467 0
 322 0094 C869     		ldr	r0, [r1, #28]
 323 0096 00F00F00 		and	r0, r0, #15
 324 009a 0128     		cmp	r0, #1
 325              		.loc 1 463 0
 326 009c 42F01002 		orr	r2, r2, #16
 327              	.LVL26:
 328              		.loc 1 467 0
 329 00a0 E0D1     		bne	.L61
 330              	.LVL27:
 331              	.L41:
 332              		.loc 1 471 0
 333 00a2 42F48072 		orr	r2, r2, #256
 334              	.LVL28:
 335              	.L63:
 336              		.loc 1 475 0
 337 00a6 486A     		ldr	r0, [r1, #36]
 338 00a8 00F00F00 		and	r0, r0, #15
 339 00ac 0128     		cmp	r0, #1
 340 00ae E0D1     		bne	.L62
 341              	.LVL29:
ARM GAS  /tmp/cceM65sa.s 			page 7


 342              	.L44:
 343              		.loc 1 479 0
 344 00b0 42F48052 		orr	r2, r2, #4096
 345              	.LVL30:
 346 00b4 DFE7     		b	.L43
 347              	.LVL31:
 348              	.L60:
 349              		.loc 1 477 0
 350 00b6 42F40052 		orr	r2, r2, #8192
 351              	.LVL32:
 352              		.loc 1 479 0
 353 00ba 42F48052 		orr	r2, r2, #4096
 354              	.LVL33:
 355 00be DAE7     		b	.L43
 356              	.LVL34:
 357              	.L59:
 358              		.loc 1 469 0
 359 00c0 42F40072 		orr	r2, r2, #512
 360              	.LVL35:
 361              		.loc 1 471 0
 362 00c4 42F48072 		orr	r2, r2, #256
 363              	.LVL36:
 364 00c8 EDE7     		b	.L63
 365              	.LVL37:
 366              	.L57:
 367              		.loc 1 387 0
 368 00ca 1048     		ldr	r0, .L65
 369              	.LVL38:
 370 00cc 8442     		cmp	r4, r0
 371 00ce 05D0     		beq	.L64
 372              	.L32:
 373              		.loc 1 419 0
 374 00d0 2369     		ldr	r3, [r4, #16]
 375 00d2 46F66801 		movw	r1, #26728
 376 00d6 1983     		strh	r1, [r3, #24]	@ movhi
 377              		.loc 1 423 0
 378 00d8 9983     		strh	r1, [r3, #28]	@ movhi
 379 00da A0E7     		b	.L33
 380              	.L64:
 381              		.loc 1 388 0
 382 00dc 4FF46051 		mov	r1, #14336
 383 00e0 C4F20201 		movt	r1, 16386
 384              		.loc 1 390 0
 385 00e4 1E20     		movs	r0, #30
 386              		.loc 1 388 0
 387 00e6 0D6C     		ldr	r5, [r1, #64]
 388 00e8 45F00406 		orr	r6, r5, #4
 389 00ec 0E64     		str	r6, [r1, #64]
 390              		.loc 1 389 0
 391 00ee 0B6A     		ldr	r3, [r1, #32]
 392 00f0 0025     		movs	r5, #0
 393 00f2 43F00402 		orr	r2, r3, #4
 394 00f6 0A62     		str	r2, [r1, #32]
 395 00f8 0D62     		str	r5, [r1, #32]
 396              		.loc 1 390 0
 397 00fa 7021     		movs	r1, #112
 398 00fc FFF7FEFF 		bl	nvicEnableVector
ARM GAS  /tmp/cceM65sa.s 			page 8


 399              	.LVL39:
 400              		.loc 1 392 0
 401 0100 4FF43D40 		mov	r0, #48384
 402 0104 C0F20150 		movt	r0, 1281
 403 0108 E060     		str	r0, [r4, #12]
 404 010a E1E7     		b	.L32
 405              	.L66:
 406              		.align	2
 407              	.L65:
 408 010c 00000000 		.word	.LANCHOR0
 409              		.cfi_endproc
 410              	.LFE120:
 411              		.size	pwm_lld_start, .-pwm_lld_start
 412              		.section	.text.pwm_lld_stop,"ax",%progbits
 413              		.align	2
 414              		.p2align 4,,15
 415              		.global	pwm_lld_stop
 416              		.thumb
 417              		.thumb_func
 418              		.type	pwm_lld_stop, %function
 419              	pwm_lld_stop:
 420              	.LFB121:
 421              		.loc 1 542 0
 422              		.cfi_startproc
 423              		@ args = 0, pretend = 0, frame = 0
 424              		@ frame_needed = 0, uses_anonymous_args = 0
 425              	.LVL40:
 426 0000 08B5     		push	{r3, lr}
 427              	.LCFI3:
 428              		.cfi_def_cfa_offset 8
 429              		.cfi_offset 3, -8
 430              		.cfi_offset 14, -4
 431              		.loc 1 545 0
 432 0002 0378     		ldrb	r3, [r0, #0]	@ zero_extendqisi2
 433 0004 022B     		cmp	r3, #2
 434 0006 00D0     		beq	.L71
 435              	.LVL41:
 436              	.L67:
 437 0008 08BD     		pop	{r3, pc}
 438              	.LVL42:
 439              	.L71:
 440              		.loc 1 573 0
 441 000a 0A4B     		ldr	r3, .L72
 442              		.loc 1 546 0
 443 000c 0169     		ldr	r1, [r0, #16]
 444 000e 0022     		movs	r2, #0
 445              		.loc 1 573 0
 446 0010 9842     		cmp	r0, r3
 447              		.loc 1 546 0
 448 0012 0A80     		strh	r2, [r1, #0]	@ movhi
 449              		.loc 1 547 0
 450 0014 8A81     		strh	r2, [r1, #12]	@ movhi
 451              		.loc 1 548 0
 452 0016 0A82     		strh	r2, [r1, #16]	@ movhi
 453              		.loc 1 573 0
 454 0018 F6D1     		bne	.L67
 455              		.loc 1 574 0
ARM GAS  /tmp/cceM65sa.s 			page 9


 456 001a 1E20     		movs	r0, #30
 457              	.LVL43:
 458 001c FFF7FEFF 		bl	nvicDisableVector
 459              	.LVL44:
 460              		.loc 1 575 0
 461 0020 4FF46050 		mov	r0, #14336
 462 0024 C4F20200 		movt	r0, 16386
 463 0028 016C     		ldr	r1, [r0, #64]
 464 002a 21F00402 		bic	r2, r1, #4
 465 002e 0264     		str	r2, [r0, #64]
 466 0030 EAE7     		b	.L67
 467              	.L73:
 468 0032 00BF     		.align	2
 469              	.L72:
 470 0034 00000000 		.word	.LANCHOR0
 471              		.cfi_endproc
 472              	.LFE121:
 473              		.size	pwm_lld_stop, .-pwm_lld_stop
 474 0038 AFF30080 		.section	.text.pwm_lld_enable_channel,"ax",%progbits
 474      AFF30080 
 475              		.align	2
 476              		.p2align 4,,15
 477              		.global	pwm_lld_enable_channel
 478              		.thumb
 479              		.thumb_func
 480              		.type	pwm_lld_enable_channel, %function
 481              	pwm_lld_enable_channel:
 482              	.LFB122:
 483              		.loc 1 608 0
 484              		.cfi_startproc
 485              		@ args = 0, pretend = 0, frame = 0
 486              		@ frame_needed = 0, uses_anonymous_args = 0
 487              		@ link register save eliminated.
 488              	.LVL45:
 489 0000 10B4     		push	{r4}
 490              	.LCFI4:
 491              		.cfi_def_cfa_offset 4
 492              		.cfi_offset 4, -4
 493              		.loc 1 613 0
 494 0002 4468     		ldr	r4, [r0, #4]
 495              		.loc 1 610 0
 496 0004 0369     		ldr	r3, [r0, #16]
 497              		.loc 1 613 0
 498 0006 04EBC100 		add	r0, r4, r1, lsl #3
 499              	.LVL46:
 500              		.loc 1 610 0
 501 000a 01F10C04 		add	r4, r1, #12
 502 000e 03EB8404 		add	r4, r3, r4, lsl #2
 503              		.loc 1 613 0
 504 0012 0069     		ldr	r0, [r0, #16]
 505              		.loc 1 610 0
 506 0014 6260     		str	r2, [r4, #4]
 507              		.loc 1 613 0
 508 0016 60B1     		cbz	r0, .L74
 509              	.LBB8:
 510              		.loc 1 614 0
 511 0018 9A89     		ldrh	r2, [r3, #12]
ARM GAS  /tmp/cceM65sa.s 			page 10


 512              	.LVL47:
 513              		.loc 1 617 0
 514 001a 0220     		movs	r0, #2
 515              		.loc 1 614 0
 516 001c 92B2     		uxth	r2, r2
 517              	.LVL48:
 518              		.loc 1 617 0
 519 001e 00FA01F1 		lsl	r1, r0, r1
 520              	.LVL49:
 521 0022 1142     		tst	r1, r2
 522 0024 05D1     		bne	.L74
 523              		.loc 1 618 0
 524 0026 89B2     		uxth	r1, r1
 525              		.loc 1 619 0
 526 0028 C843     		mvns	r0, r1
 527              		.loc 1 618 0
 528 002a 1143     		orrs	r1, r1, r2
 529              		.loc 1 619 0
 530 002c 82B2     		uxth	r2, r0
 531              	.LVL50:
 532              		.loc 1 618 0
 533 002e 9981     		strh	r1, [r3, #12]	@ movhi
 534              		.loc 1 619 0
 535 0030 1A82     		strh	r2, [r3, #16]	@ movhi
 536              	.L74:
 537              	.LBE8:
 538              		.loc 1 622 0
 539 0032 10BC     		pop	{r4}
 540 0034 7047     		bx	lr
 541              		.cfi_endproc
 542              	.LFE122:
 543              		.size	pwm_lld_enable_channel, .-pwm_lld_enable_channel
 544 0036 00BFAFF3 		.section	.text.pwm_lld_disable_channel,"ax",%progbits
 544      0080AFF3 
 544      0080
 545              		.align	2
 546              		.p2align 4,,15
 547              		.global	pwm_lld_disable_channel
 548              		.thumb
 549              		.thumb_func
 550              		.type	pwm_lld_disable_channel, %function
 551              	pwm_lld_disable_channel:
 552              	.LFB123:
 553              		.loc 1 636 0
 554              		.cfi_startproc
 555              		@ args = 0, pretend = 0, frame = 0
 556              		@ frame_needed = 0, uses_anonymous_args = 0
 557              		@ link register save eliminated.
 558              	.LVL51:
 559              		.loc 1 638 0
 560 0000 0369     		ldr	r3, [r0, #16]
 561 0002 01F10C02 		add	r2, r1, #12
 562 0006 03EB8202 		add	r2, r3, r2, lsl #2
 563 000a 0020     		movs	r0, #0
 564              	.LVL52:
 565 000c 5060     		str	r0, [r2, #4]
 566              		.loc 1 639 0
ARM GAS  /tmp/cceM65sa.s 			page 11


 567 000e 9A89     		ldrh	r2, [r3, #12]
 568 0010 0220     		movs	r0, #2
 569 0012 92B2     		uxth	r2, r2
 570 0014 00FA01F1 		lsl	r1, r0, r1
 571              	.LVL53:
 572 0018 22EA0102 		bic	r2, r2, r1
 573 001c 9A81     		strh	r2, [r3, #12]	@ movhi
 574 001e 7047     		bx	lr
 575              		.cfi_endproc
 576              	.LFE123:
 577              		.size	pwm_lld_disable_channel, .-pwm_lld_disable_channel
 578              		.global	PWMD4
 579              		.section	.bss.PWMD4,"aw",%nobits
 580              		.align	2
 581              		.set	.LANCHOR0,. + 0
 582              		.type	PWMD4, %object
 583              		.size	PWMD4, 20
 584              	PWMD4:
 585 0000 00000000 		.space	20
 585      00000000 
 585      00000000 
 585      00000000 
 585      00000000 
 586              		.text
 587              	.Letext0:
 588              		.file 2 "/opt/ARM/bin/../lib/gcc/arm-none-eabi/4.7.3/../../../../arm-none-eabi/include/stdint.h"
 589              		.file 3 "../../ChibiOS_2.4.3/os/hal/platforms/STM32F4xx/stm32f4xx.h"
 590              		.file 4 "../../ChibiOS_2.4.3/os/hal/platforms/STM32/stm32.h"
 591              		.file 5 "../../ChibiOS_2.4.3/os/hal/include/pwm.h"
 592              		.file 6 "../../ChibiOS_2.4.3/os/hal/platforms/STM32/pwm_lld.h"
 593              		.file 7 "../../ChibiOS_2.4.3/os/ports/common/ARMCMx/CMSIS/include/core_cm4.h"
 594              		.file 8 "../../ChibiOS_2.4.3/os/ports/common/ARMCMx/nvic.h"
 595              		.file 9 "../../ChibiOS_2.4.3/os/ports/GCC/ARMCMx/chcore_v7m.h"