ARM GAS  /tmp/ccezRoHd.s 			page 1


   1              		.syntax unified
   2              		.cpu cortex-m4
   3              		.fpu softvfp
   4              		.eabi_attribute 20, 1
   5              		.eabi_attribute 21, 1
   6              		.eabi_attribute 23, 3
   7              		.eabi_attribute 24, 1
   8              		.eabi_attribute 25, 1
   9              		.eabi_attribute 26, 1
  10              		.eabi_attribute 30, 2
  11              		.eabi_attribute 34, 1
  12              		.eabi_attribute 18, 4
  13              		.thumb
  14              		.file	"testpools.c"
  15              		.text
  16              	.Ltext0:
  17              		.cfi_sections	.debug_frame
  18              		.section	.text.null_provider,"ax",%progbits
  19              		.align	2
  20              		.p2align 4,,15
  21              		.thumb
  22              		.thumb_func
  23              		.type	null_provider, %function
  24              	null_provider:
  25              	.LFB7:
  26              		.file 1 "../../ChibiOS_2.4.3/test/testpools.c"
  27              		.loc 1 71 0
  28              		.cfi_startproc
  29              		@ args = 0, pretend = 0, frame = 0
  30              		@ frame_needed = 0, uses_anonymous_args = 0
  31              		@ link register save eliminated.
  32              	.LVL0:
  33              		.loc 1 75 0
  34 0000 0020     		movs	r0, #0
  35              	.LVL1:
  36 0002 7047     		bx	lr
  37              		.cfi_endproc
  38              	.LFE7:
  39              		.size	null_provider, .-null_provider
  40 0004 AFF30080 		.section	.text.pools1_setup,"ax",%progbits
  40      AFF30080 
  40      AFF30080 
  41              		.align	2
  42              		.p2align 4,,15
  43              		.thumb
  44              		.thumb_func
  45              		.type	pools1_setup, %function
  46              	pools1_setup:
  47              	.LFB8:
  48              		.loc 1 77 0
  49              		.cfi_startproc
  50              		@ args = 0, pretend = 0, frame = 0
  51              		@ frame_needed = 0, uses_anonymous_args = 0
  52              		@ link register save eliminated.
  53              		.loc 1 79 0
  54 0000 40F20000 		movw	r0, #:lower16:.LANCHOR0
  55 0004 C0F20000 		movt	r0, #:upper16:.LANCHOR0
ARM GAS  /tmp/ccezRoHd.s 			page 2


  56 0008 4FF49871 		mov	r1, #304
  57 000c 0022     		movs	r2, #0
  58              		.loc 1 80 0
  59              		.loc 1 79 0
  60 000e FFF7FEBF 		b	chPoolInit
  61              	.LVL2:
  62              		.cfi_endproc
  63              	.LFE8:
  64              		.size	pools1_setup, .-pools1_setup
  65 0012 00BFAFF3 		.section	.text.pools1_execute,"ax",%progbits
  65      0080AFF3 
  65      0080AFF3 
  65      0080
  66              		.align	2
  67              		.p2align 4,,15
  68              		.thumb
  69              		.thumb_func
  70              		.type	pools1_execute, %function
  71              	pools1_execute:
  72              	.LFB9:
  73              		.loc 1 82 0
  74              		.cfi_startproc
  75              		@ args = 0, pretend = 0, frame = 0
  76              		@ frame_needed = 0, uses_anonymous_args = 0
  77              	.LVL3:
  78 0000 10B5     		push	{r4, lr}
  79              	.LCFI0:
  80              		.cfi_def_cfa_offset 8
  81              		.cfi_offset 4, -8
  82              		.cfi_offset 14, -4
  83              		.loc 1 87 0
  84 0002 324C     		ldr	r4, .L9
  85 0004 3248     		ldr	r0, .L9+4
  86 0006 2168     		ldr	r1, [r4, #0]
  87 0008 FFF7FEFF 		bl	chPoolFree
  88              	.LVL4:
  89 000c 3048     		ldr	r0, .L9+4
  90 000e 6168     		ldr	r1, [r4, #4]
  91 0010 FFF7FEFF 		bl	chPoolFree
  92              	.LVL5:
  93 0014 2E48     		ldr	r0, .L9+4
  94 0016 A168     		ldr	r1, [r4, #8]
  95 0018 FFF7FEFF 		bl	chPoolFree
  96              	.LVL6:
  97 001c 2C48     		ldr	r0, .L9+4
  98 001e E168     		ldr	r1, [r4, #12]
  99 0020 FFF7FEFF 		bl	chPoolFree
 100              	.LVL7:
 101 0024 2169     		ldr	r1, [r4, #16]
 102 0026 2A48     		ldr	r0, .L9+4
 103 0028 FFF7FEFF 		bl	chPoolFree
 104              	.LVL8:
 105              		.loc 1 91 0
 106 002c 2848     		ldr	r0, .L9+4
 107 002e FFF7FEFF 		bl	chPoolAlloc
 108              	.LVL9:
 109 0032 011C     		adds	r1, r0, #0
ARM GAS  /tmp/ccezRoHd.s 			page 3


 110 0034 18BF     		it	ne
 111 0036 0121     		movne	r1, #1
 112 0038 0120     		movs	r0, #1
 113 003a FFF7FEFF 		bl	_test_assert
 114              	.LVL10:
 115 003e 0028     		cmp	r0, #0
 116 0040 32D1     		bne	.L3
 117              	.LVL11:
 118 0042 2348     		ldr	r0, .L9+4
 119 0044 FFF7FEFF 		bl	chPoolAlloc
 120              	.LVL12:
 121 0048 011C     		adds	r1, r0, #0
 122 004a 18BF     		it	ne
 123 004c 0121     		movne	r1, #1
 124 004e 0120     		movs	r0, #1
 125 0050 FFF7FEFF 		bl	_test_assert
 126              	.LVL13:
 127 0054 40BB     		cbnz	r0, .L3
 128              	.LVL14:
 129 0056 1E48     		ldr	r0, .L9+4
 130 0058 FFF7FEFF 		bl	chPoolAlloc
 131              	.LVL15:
 132 005c 011C     		adds	r1, r0, #0
 133 005e 18BF     		it	ne
 134 0060 0121     		movne	r1, #1
 135 0062 0120     		movs	r0, #1
 136 0064 FFF7FEFF 		bl	_test_assert
 137              	.LVL16:
 138 0068 F0B9     		cbnz	r0, .L3
 139              	.LVL17:
 140 006a 1948     		ldr	r0, .L9+4
 141 006c FFF7FEFF 		bl	chPoolAlloc
 142              	.LVL18:
 143 0070 011C     		adds	r1, r0, #0
 144 0072 18BF     		it	ne
 145 0074 0121     		movne	r1, #1
 146 0076 0120     		movs	r0, #1
 147 0078 FFF7FEFF 		bl	_test_assert
 148              	.LVL19:
 149 007c A0B9     		cbnz	r0, .L3
 150              	.LVL20:
 151 007e 1448     		ldr	r0, .L9+4
 152 0080 FFF7FEFF 		bl	chPoolAlloc
 153              	.LVL21:
 154 0084 011C     		adds	r1, r0, #0
 155 0086 18BF     		it	ne
 156 0088 0121     		movne	r1, #1
 157 008a 0120     		movs	r0, #1
 158 008c FFF7FEFF 		bl	_test_assert
 159              	.LVL22:
 160 0090 50B9     		cbnz	r0, .L3
 161              	.LVL23:
 162              		.loc 1 94 0
 163 0092 0F48     		ldr	r0, .L9+4
 164 0094 FFF7FEFF 		bl	chPoolAlloc
 165              	.LVL24:
 166 0098 D0F10101 		rsbs	r1, r0, #1
ARM GAS  /tmp/ccezRoHd.s 			page 4


 167 009c 38BF     		it	cc
 168 009e 0021     		movcc	r1, #0
 169 00a0 0220     		movs	r0, #2
 170 00a2 FFF7FEFF 		bl	_test_assert
 171              	.LVL25:
 172 00a6 00B1     		cbz	r0, .L8
 173              	.LVL26:
 174              	.L3:
 175 00a8 10BD     		pop	{r4, pc}
 176              	.LVL27:
 177              	.L8:
 178              	.LBB4:
 179              	.LBB5:
 180              		.loc 1 97 0
 181 00aa 1021     		movs	r1, #16
 182 00ac 094A     		ldr	r2, .L9+8
 183 00ae 0848     		ldr	r0, .L9+4
 184 00b0 FFF7FEFF 		bl	chPoolInit
 185              	.LVL28:
 186              		.loc 1 98 0
 187 00b4 0648     		ldr	r0, .L9+4
 188 00b6 FFF7FEFF 		bl	chPoolAlloc
 189              	.LVL29:
 190 00ba D0F10101 		rsbs	r1, r0, #1
 191 00be 38BF     		it	cc
 192 00c0 0021     		movcc	r1, #0
 193 00c2 0320     		movs	r0, #3
 194              	.LBE5:
 195              	.LBE4:
 196              		.loc 1 99 0
 197 00c4 BDE81040 		pop	{r4, lr}
 198              	.LBB7:
 199              	.LBB6:
 200              		.loc 1 98 0
 201 00c8 FFF7FEBF 		b	_test_assert
 202              	.LVL30:
 203              	.L10:
 204              		.align	2
 205              	.L9:
 206 00cc 00000000 		.word	wa
 207 00d0 00000000 		.word	.LANCHOR0
 208 00d4 00000000 		.word	null_provider
 209              	.LBE6:
 210              	.LBE7:
 211              		.cfi_endproc
 212              	.LFE9:
 213              		.size	pools1_execute, .-pools1_execute
 214              		.global	patternpools
 215              		.global	testpools1
 216 00d8 AFF30080 		.section	.rodata.str1.4,"aMS",%progbits,1
 216      AFF30080 
 217              		.align	2
 218              	.LC0:
 219 0000 4D656D6F 		.ascii	"Memory Pools, queue/dequeue\000"
 219      72792050 
 219      6F6F6C73 
 219      2C207175 
ARM GAS  /tmp/ccezRoHd.s 			page 5


 219      6575652F 
 220              		.section	.rodata.patternpools,"a",%progbits
 221              		.align	2
 222              		.type	patternpools, %object
 223              		.size	patternpools, 8
 224              	patternpools:
 225 0000 00000000 		.word	testpools1
 226 0004 00000000 		.word	0
 227              		.section	.data.mp1,"aw",%progbits
 228              		.align	2
 229              		.set	.LANCHOR0,. + 0
 230              		.type	mp1, %object
 231              		.size	mp1, 12
 232              	mp1:
 233 0000 00000000 		.word	0
 234 0004 30010000 		.word	304
 235 0008 00000000 		.word	0
 236              		.section	.rodata.testpools1,"a",%progbits
 237              		.align	2
 238              		.type	testpools1, %object
 239              		.size	testpools1, 16
 240              	testpools1:
 241 0000 00000000 		.word	.LC0
 242 0004 00000000 		.word	pools1_setup
 243 0008 00000000 		.word	0
 244 000c 00000000 		.word	pools1_execute
 245              		.text
 246              	.Letext0:
 247              		.file 2 "/opt/ARM/bin/../lib/gcc/arm-none-eabi/4.7.3/include/stddef.h"
 248              		.file 3 "/opt/ARM/bin/../lib/gcc/arm-none-eabi/4.7.3/../../../../arm-none-eabi/include/stdint.h"
 249              		.file 4 "../../ChibiOS_2.4.3/os/ports/GCC/ARMCMx/chtypes.h"
 250              		.file 5 "../../ChibiOS_2.4.3/os/kernel/include/chmemcore.h"
 251              		.file 6 "../../ChibiOS_2.4.3/os/kernel/include/chmempools.h"
 252              		.file 7 "../../ChibiOS_2.4.3/test/test.h"