ARM GAS  /tmp/cclctdzS.s 			page 1


   1              		.syntax unified
   2              		.cpu cortex-m4
   3              		.fpu softvfp
   4              		.eabi_attribute 20, 1
   5              		.eabi_attribute 21, 1
   6              		.eabi_attribute 23, 3
   7              		.eabi_attribute 24, 1
   8              		.eabi_attribute 25, 1
   9              		.eabi_attribute 26, 1
  10              		.eabi_attribute 30, 2
  11              		.eabi_attribute 34, 1
  12              		.eabi_attribute 18, 4
  13              		.thumb
  14              		.file	"testmtx.c"
  15              		.text
  16              	.Ltext0:
  17              		.cfi_sections	.debug_frame
  18              		.section	.text.mtx8_execute,"ax",%progbits
  19              		.align	2
  20              		.p2align 4,,15
  21              		.thumb
  22              		.thumb_func
  23              		.type	mtx8_execute, %function
  24              	mtx8_execute:
  25              	.LFB36:
  26              		.file 1 "../../ChibiOS_2.4.3/test/testmtx.c"
  27              		.loc 1 606 0
  28              		.cfi_startproc
  29              		@ args = 0, pretend = 0, frame = 0
  30              		@ frame_needed = 0, uses_anonymous_args = 0
  31 0000 F0B5     		push	{r4, r5, r6, r7, lr}
  32              	.LCFI0:
  33              		.cfi_def_cfa_offset 20
  34              		.cfi_offset 4, -20
  35              		.cfi_offset 5, -16
  36              		.cfi_offset 6, -12
  37              		.cfi_offset 7, -8
  38              		.cfi_offset 14, -4
  39              		.loc 1 608 0
  40 0002 40F20003 		movw	r3, #:lower16:rlist
  41 0006 C0F20003 		movt	r3, #:upper16:rlist
  42              		.loc 1 609 0
  43 000a 40F20005 		movw	r5, #:lower16:wa
  44              		.loc 1 608 0
  45 000e D969     		ldr	r1, [r3, #28]
  46              		.loc 1 606 0
  47 0010 83B0     		sub	sp, sp, #12
  48              	.LCFI1:
  49              		.cfi_def_cfa_offset 32
  50              		.loc 1 608 0
  51 0012 8E68     		ldr	r6, [r1, #8]
  52              	.LVL0:
  53              		.loc 1 609 0
  54 0014 C0F20005 		movt	r5, #:upper16:wa
  55 0018 40F20004 		movw	r4, #:lower16:.LC0
  56 001c C0F20004 		movt	r4, #:upper16:.LC0
  57 0020 40F20003 		movw	r3, #:lower16:thread11
ARM GAS  /tmp/cclctdzS.s 			page 2


  58 0024 721C     		adds	r2, r6, #1
  59 0026 0094     		str	r4, [sp, #0]
  60 0028 2868     		ldr	r0, [r5, #0]
  61 002a 4FF49871 		mov	r1, #304
  62 002e C0F20003 		movt	r3, #:upper16:thread11
  63 0032 FFF7FEFF 		bl	chThdCreateStatic
  64              	.LVL1:
  65 0036 40F20004 		movw	r4, #:lower16:threads
  66 003a C0F20004 		movt	r4, #:upper16:threads
  67              		.loc 1 610 0
  68 003e 6F68     		ldr	r7, [r5, #4]
  69              		.loc 1 609 0
  70 0040 2060     		str	r0, [r4, #0]
  71              		.loc 1 610 0
  72 0042 40F20000 		movw	r0, #:lower16:.LC1
  73 0046 C0F20000 		movt	r0, #:upper16:.LC1
  74 004a 40F20003 		movw	r3, #:lower16:thread10
  75 004e B21C     		adds	r2, r6, #2
  76 0050 0090     		str	r0, [sp, #0]
  77 0052 4FF49871 		mov	r1, #304
  78 0056 C0F20003 		movt	r3, #:upper16:thread10
  79 005a 3846     		mov	r0, r7
  80 005c FFF7FEFF 		bl	chThdCreateStatic
  81              	.LVL2:
  82              		.loc 1 611 0
  83 0060 AD68     		ldr	r5, [r5, #8]
  84              		.loc 1 610 0
  85 0062 6060     		str	r0, [r4, #4]
  86              		.loc 1 611 0
  87 0064 40F20000 		movw	r0, #:lower16:.LC2
  88 0068 C0F20000 		movt	r0, #:upper16:.LC2
  89 006c 40F20003 		movw	r3, #:lower16:thread12
  90 0070 4FF49871 		mov	r1, #304
  91 0074 F21C     		adds	r2, r6, #3
  92 0076 C0F20003 		movt	r3, #:upper16:thread12
  93 007a 0090     		str	r0, [sp, #0]
  94 007c 2846     		mov	r0, r5
  95 007e FFF7FEFF 		bl	chThdCreateStatic
  96              	.LVL3:
  97              		.loc 1 612 0
  98 0082 40F20005 		movw	r5, #:lower16:.LANCHOR0
  99 0086 C0F20005 		movt	r5, #:upper16:.LANCHOR0
 100              		.loc 1 611 0
 101 008a A060     		str	r0, [r4, #8]
 102              		.loc 1 612 0
 103 008c 2846     		mov	r0, r5
 104 008e FFF7FEFF 		bl	chCondSignal
 105              	.LVL4:
 106              		.loc 1 613 0
 107 0092 2846     		mov	r0, r5
 108 0094 FFF7FEFF 		bl	chCondSignal
 109              	.LVL5:
 110              		.loc 1 614 0
 111 0098 FFF7FEFF 		bl	test_wait_threads
 112              	.LVL6:
 113              		.loc 1 615 0
 114 009c 40F20001 		movw	r1, #:lower16:.LC3
ARM GAS  /tmp/cclctdzS.s 			page 3


 115 00a0 0120     		movs	r0, #1
 116 00a2 C0F20001 		movt	r1, #:upper16:.LC3
 117              		.loc 1 616 0
 118 00a6 03B0     		add	sp, sp, #12
 119 00a8 BDE8F040 		pop	{r4, r5, r6, r7, lr}
 120              		.loc 1 615 0
 121 00ac FFF7FEBF 		b	_test_assert_sequence
 122              	.LVL7:
 123              		.cfi_endproc
 124              	.LFE36:
 125              		.size	mtx8_execute, .-mtx8_execute
 126              		.section	.text.thread12,"ax",%progbits
 127              		.align	2
 128              		.p2align 4,,15
 129              		.thumb
 130              		.thumb_func
 131              		.type	thread12, %function
 132              	thread12:
 133              	.LFB35:
 134              		.loc 1 598 0
 135              		.cfi_startproc
 136              		@ args = 0, pretend = 0, frame = 0
 137              		@ frame_needed = 0, uses_anonymous_args = 0
 138              	.LVL8:
 139 0000 10B5     		push	{r4, lr}
 140              	.LCFI2:
 141              		.cfi_def_cfa_offset 8
 142              		.cfi_offset 4, -8
 143              		.cfi_offset 14, -4
 144              		.loc 1 598 0
 145 0002 0446     		mov	r4, r0
 146              		.loc 1 600 0
 147 0004 40F20000 		movw	r0, #:lower16:.LANCHOR1
 148              	.LVL9:
 149 0008 C0F20000 		movt	r0, #:upper16:.LANCHOR1
 150 000c FFF7FEFF 		bl	chMtxLock
 151              	.LVL10:
 152              		.loc 1 601 0
 153 0010 2078     		ldrb	r0, [r4, #0]	@ zero_extendqisi2
 154 0012 FFF7FEFF 		bl	test_emit_token
 155              	.LVL11:
 156              		.loc 1 602 0
 157 0016 FFF7FEFF 		bl	chMtxUnlock
 158              	.LVL12:
 159              		.loc 1 604 0
 160 001a 0020     		movs	r0, #0
 161 001c 10BD     		pop	{r4, pc}
 162              		.cfi_endproc
 163              	.LFE35:
 164              		.size	thread12, .-thread12
 165 001e 00BF     		.section	.text.thread1,"ax",%progbits
 166              		.align	2
 167              		.p2align 4,,15
 168              		.thumb
 169              		.thumb_func
 170              		.type	thread1, %function
 171              	thread1:
ARM GAS  /tmp/cclctdzS.s 			page 4


 172              	.LFB8:
 173              		.loc 1 100 0
 174              		.cfi_startproc
 175              		@ args = 0, pretend = 0, frame = 0
 176              		@ frame_needed = 0, uses_anonymous_args = 0
 177              	.LVL13:
 178 0000 10B5     		push	{r4, lr}
 179              	.LCFI3:
 180              		.cfi_def_cfa_offset 8
 181              		.cfi_offset 4, -8
 182              		.cfi_offset 14, -4
 183              		.loc 1 100 0
 184 0002 0446     		mov	r4, r0
 185              		.loc 1 102 0
 186 0004 40F20000 		movw	r0, #:lower16:.LANCHOR2
 187              	.LVL14:
 188 0008 C0F20000 		movt	r0, #:upper16:.LANCHOR2
 189 000c FFF7FEFF 		bl	chMtxLock
 190              	.LVL15:
 191              		.loc 1 103 0
 192 0010 2078     		ldrb	r0, [r4, #0]	@ zero_extendqisi2
 193 0012 FFF7FEFF 		bl	test_emit_token
 194              	.LVL16:
 195              		.loc 1 104 0
 196 0016 FFF7FEFF 		bl	chMtxUnlock
 197              	.LVL17:
 198              		.loc 1 106 0
 199 001a 0020     		movs	r0, #0
 200 001c 10BD     		pop	{r4, pc}
 201              		.cfi_endproc
 202              	.LFE8:
 203              		.size	thread1, .-thread1
 204 001e 00BF     		.section	.text.thread10,"ax",%progbits
 205              		.align	2
 206              		.p2align 4,,15
 207              		.thumb
 208              		.thumb_func
 209              		.type	thread10, %function
 210              	thread10:
 211              	.LFB29:
 212              		.loc 1 495 0
 213              		.cfi_startproc
 214              		@ args = 0, pretend = 0, frame = 0
 215              		@ frame_needed = 0, uses_anonymous_args = 0
 216              	.LVL18:
 217 0000 10B5     		push	{r4, lr}
 218              	.LCFI4:
 219              		.cfi_def_cfa_offset 8
 220              		.cfi_offset 4, -8
 221              		.cfi_offset 14, -4
 222              		.loc 1 495 0
 223 0002 0446     		mov	r4, r0
 224              		.loc 1 497 0
 225 0004 40F20000 		movw	r0, #:lower16:.LANCHOR2
 226              	.LVL19:
 227 0008 C0F20000 		movt	r0, #:upper16:.LANCHOR2
 228 000c FFF7FEFF 		bl	chMtxLock
ARM GAS  /tmp/cclctdzS.s 			page 5


 229              	.LVL20:
 230              		.loc 1 498 0
 231 0010 40F20000 		movw	r0, #:lower16:.LANCHOR0
 232 0014 C0F20000 		movt	r0, #:upper16:.LANCHOR0
 233 0018 FFF7FEFF 		bl	chCondWait
 234              	.LVL21:
 235              		.loc 1 499 0
 236 001c 2078     		ldrb	r0, [r4, #0]	@ zero_extendqisi2
 237 001e FFF7FEFF 		bl	test_emit_token
 238              	.LVL22:
 239              		.loc 1 500 0
 240 0022 FFF7FEFF 		bl	chMtxUnlock
 241              	.LVL23:
 242              		.loc 1 502 0
 243 0026 0020     		movs	r0, #0
 244 0028 10BD     		pop	{r4, pc}
 245              		.cfi_endproc
 246              	.LFE29:
 247              		.size	thread10, .-thread10
 248 002a 00BFAFF3 		.section	.text.thread11,"ax",%progbits
 248      0080
 249              		.align	2
 250              		.p2align 4,,15
 251              		.thumb
 252              		.thumb_func
 253              		.type	thread11, %function
 254              	thread11:
 255              	.LFB34:
 256              		.loc 1 583 0
 257              		.cfi_startproc
 258              		@ args = 0, pretend = 0, frame = 0
 259              		@ frame_needed = 0, uses_anonymous_args = 0
 260              	.LVL24:
 261 0000 10B5     		push	{r4, lr}
 262              	.LCFI5:
 263              		.cfi_def_cfa_offset 8
 264              		.cfi_offset 4, -8
 265              		.cfi_offset 14, -4
 266              		.loc 1 583 0
 267 0002 0446     		mov	r4, r0
 268              		.loc 1 585 0
 269 0004 40F20000 		movw	r0, #:lower16:.LANCHOR1
 270              	.LVL25:
 271 0008 C0F20000 		movt	r0, #:upper16:.LANCHOR1
 272 000c FFF7FEFF 		bl	chMtxLock
 273              	.LVL26:
 274              		.loc 1 586 0
 275 0010 40F20000 		movw	r0, #:lower16:.LANCHOR2
 276 0014 C0F20000 		movt	r0, #:upper16:.LANCHOR2
 277 0018 FFF7FEFF 		bl	chMtxLock
 278              	.LVL27:
 279              		.loc 1 588 0
 280 001c 40F20000 		movw	r0, #:lower16:.LANCHOR0
 281 0020 4FF0FF31 		mov	r1, #-1
 282 0024 C0F20000 		movt	r0, #:upper16:.LANCHOR0
 283 0028 FFF7FEFF 		bl	chCondWaitTimeout
 284              	.LVL28:
ARM GAS  /tmp/cclctdzS.s 			page 6


 285              		.loc 1 592 0
 286 002c 2078     		ldrb	r0, [r4, #0]	@ zero_extendqisi2
 287 002e FFF7FEFF 		bl	test_emit_token
 288              	.LVL29:
 289              		.loc 1 593 0
 290 0032 FFF7FEFF 		bl	chMtxUnlock
 291              	.LVL30:
 292              		.loc 1 594 0
 293 0036 FFF7FEFF 		bl	chMtxUnlock
 294              	.LVL31:
 295              		.loc 1 596 0
 296 003a 0020     		movs	r0, #0
 297 003c 10BD     		pop	{r4, pc}
 298              		.cfi_endproc
 299              	.LFE34:
 300              		.size	thread11, .-thread11
 301 003e 00BF     		.section	.text.mtx8_setup,"ax",%progbits
 302              		.align	2
 303              		.p2align 4,,15
 304              		.thumb
 305              		.thumb_func
 306              		.type	mtx8_setup, %function
 307              	mtx8_setup:
 308              	.LFB33:
 309              		.loc 1 576 0
 310              		.cfi_startproc
 311              		@ args = 0, pretend = 0, frame = 0
 312              		@ frame_needed = 0, uses_anonymous_args = 0
 313              		.loc 1 578 0
 314 0000 40F20000 		movw	r0, #:lower16:.LANCHOR0
 315              		.loc 1 576 0
 316 0004 08B5     		push	{r3, lr}
 317              	.LCFI6:
 318              		.cfi_def_cfa_offset 8
 319              		.cfi_offset 3, -8
 320              		.cfi_offset 14, -4
 321              		.loc 1 578 0
 322 0006 C0F20000 		movt	r0, #:upper16:.LANCHOR0
 323 000a FFF7FEFF 		bl	chCondInit
 324              	.LVL32:
 325              		.loc 1 579 0
 326 000e 40F20000 		movw	r0, #:lower16:.LANCHOR2
 327 0012 C0F20000 		movt	r0, #:upper16:.LANCHOR2
 328 0016 FFF7FEFF 		bl	chMtxInit
 329              	.LVL33:
 330              		.loc 1 580 0
 331 001a 40F20000 		movw	r0, #:lower16:.LANCHOR1
 332 001e C0F20000 		movt	r0, #:upper16:.LANCHOR1
 333              		.loc 1 581 0
 334 0022 BDE80840 		pop	{r3, lr}
 335              		.loc 1 580 0
 336 0026 FFF7FEBF 		b	chMtxInit
 337              	.LVL34:
 338              		.cfi_endproc
 339              	.LFE33:
 340              		.size	mtx8_setup, .-mtx8_setup
 341 002a 00BFAFF3 		.section	.text.mtx7_setup,"ax",%progbits
ARM GAS  /tmp/cclctdzS.s 			page 7


 341      0080
 342              		.align	2
 343              		.p2align 4,,15
 344              		.thumb
 345              		.thumb_func
 346              		.type	mtx7_setup, %function
 347              	mtx7_setup:
 348              	.LFB31:
 349              		.loc 1 541 0
 350              		.cfi_startproc
 351              		@ args = 0, pretend = 0, frame = 0
 352              		@ frame_needed = 0, uses_anonymous_args = 0
 353 0000 08B5     		push	{r3, lr}
 354              	.LCFI7:
 355              		.cfi_def_cfa_offset 8
 356              		.cfi_offset 3, -8
 357              		.cfi_offset 14, -4
 358              		.loc 1 543 0
 359 0002 40F20000 		movw	r0, #:lower16:.LANCHOR0
 360 0006 C0F20000 		movt	r0, #:upper16:.LANCHOR0
 361 000a FFF7FEFF 		bl	chCondInit
 362              	.LVL35:
 363              		.loc 1 544 0
 364 000e 40F20000 		movw	r0, #:lower16:.LANCHOR2
 365 0012 C0F20000 		movt	r0, #:upper16:.LANCHOR2
 366              		.loc 1 545 0
 367 0016 BDE80840 		pop	{r3, lr}
 368              		.loc 1 544 0
 369 001a FFF7FEBF 		b	chMtxInit
 370              	.LVL36:
 371              		.cfi_endproc
 372              	.LFE31:
 373              		.size	mtx7_setup, .-mtx7_setup
 374 001e 00BF     		.section	.text.mtx6_setup,"ax",%progbits
 375              		.align	2
 376              		.p2align 4,,15
 377              		.thumb
 378              		.thumb_func
 379              		.type	mtx6_setup, %function
 380              	mtx6_setup:
 381              	.LFB28:
 382              		.loc 1 489 0
 383              		.cfi_startproc
 384              		@ args = 0, pretend = 0, frame = 0
 385              		@ frame_needed = 0, uses_anonymous_args = 0
 386 0000 08B5     		push	{r3, lr}
 387              	.LCFI8:
 388              		.cfi_def_cfa_offset 8
 389              		.cfi_offset 3, -8
 390              		.cfi_offset 14, -4
 391              		.loc 1 491 0
 392 0002 40F20000 		movw	r0, #:lower16:.LANCHOR0
 393 0006 C0F20000 		movt	r0, #:upper16:.LANCHOR0
 394 000a FFF7FEFF 		bl	chCondInit
 395              	.LVL37:
 396              		.loc 1 492 0
 397 000e 40F20000 		movw	r0, #:lower16:.LANCHOR2
ARM GAS  /tmp/cclctdzS.s 			page 8


 398 0012 C0F20000 		movt	r0, #:upper16:.LANCHOR2
 399              		.loc 1 493 0
 400 0016 BDE80840 		pop	{r3, lr}
 401              		.loc 1 492 0
 402 001a FFF7FEBF 		b	chMtxInit
 403              	.LVL38:
 404              		.cfi_endproc
 405              	.LFE28:
 406              		.size	mtx6_setup, .-mtx6_setup
 407 001e 00BF     		.section	.text.mtx5_setup,"ax",%progbits
 408              		.align	2
 409              		.p2align 4,,15
 410              		.thumb
 411              		.thumb_func
 412              		.type	mtx5_setup, %function
 413              	mtx5_setup:
 414              	.LFB26:
 415              		.loc 1 439 0
 416              		.cfi_startproc
 417              		@ args = 0, pretend = 0, frame = 0
 418              		@ frame_needed = 0, uses_anonymous_args = 0
 419              		@ link register save eliminated.
 420              		.loc 1 441 0
 421 0000 40F20000 		movw	r0, #:lower16:.LANCHOR2
 422 0004 C0F20000 		movt	r0, #:upper16:.LANCHOR2
 423              		.loc 1 442 0
 424              		.loc 1 441 0
 425 0008 FFF7FEBF 		b	chMtxInit
 426              	.LVL39:
 427              		.cfi_endproc
 428              	.LFE26:
 429              		.size	mtx5_setup, .-mtx5_setup
 430 000c AFF30080 		.section	.text.mtx4_setup,"ax",%progbits
 431              		.align	2
 432              		.p2align 4,,15
 433              		.thumb
 434              		.thumb_func
 435              		.type	mtx4_setup, %function
 436              	mtx4_setup:
 437              	.LFB22:
 438              		.loc 1 352 0
 439              		.cfi_startproc
 440              		@ args = 0, pretend = 0, frame = 0
 441              		@ frame_needed = 0, uses_anonymous_args = 0
 442 0000 08B5     		push	{r3, lr}
 443              	.LCFI9:
 444              		.cfi_def_cfa_offset 8
 445              		.cfi_offset 3, -8
 446              		.cfi_offset 14, -4
 447              		.loc 1 354 0
 448 0002 40F20000 		movw	r0, #:lower16:.LANCHOR2
 449 0006 C0F20000 		movt	r0, #:upper16:.LANCHOR2
 450 000a FFF7FEFF 		bl	chMtxInit
 451              	.LVL40:
 452              		.loc 1 355 0
 453 000e 40F20000 		movw	r0, #:lower16:.LANCHOR1
 454 0012 C0F20000 		movt	r0, #:upper16:.LANCHOR1
ARM GAS  /tmp/cclctdzS.s 			page 9


 455              		.loc 1 356 0
 456 0016 BDE80840 		pop	{r3, lr}
 457              		.loc 1 355 0
 458 001a FFF7FEBF 		b	chMtxInit
 459              	.LVL41:
 460              		.cfi_endproc
 461              	.LFE22:
 462              		.size	mtx4_setup, .-mtx4_setup
 463 001e 00BF     		.section	.text.mtx3_setup,"ax",%progbits
 464              		.align	2
 465              		.p2align 4,,15
 466              		.thumb
 467              		.thumb_func
 468              		.type	mtx3_setup, %function
 469              	mtx3_setup:
 470              	.LFB15:
 471              		.loc 1 252 0
 472              		.cfi_startproc
 473              		@ args = 0, pretend = 0, frame = 0
 474              		@ frame_needed = 0, uses_anonymous_args = 0
 475 0000 08B5     		push	{r3, lr}
 476              	.LCFI10:
 477              		.cfi_def_cfa_offset 8
 478              		.cfi_offset 3, -8
 479              		.cfi_offset 14, -4
 480              		.loc 1 254 0
 481 0002 40F20000 		movw	r0, #:lower16:.LANCHOR2
 482 0006 C0F20000 		movt	r0, #:upper16:.LANCHOR2
 483 000a FFF7FEFF 		bl	chMtxInit
 484              	.LVL42:
 485              		.loc 1 255 0
 486 000e 40F20000 		movw	r0, #:lower16:.LANCHOR1
 487 0012 C0F20000 		movt	r0, #:upper16:.LANCHOR1
 488              		.loc 1 256 0
 489 0016 BDE80840 		pop	{r3, lr}
 490              		.loc 1 255 0
 491 001a FFF7FEBF 		b	chMtxInit
 492              	.LVL43:
 493              		.cfi_endproc
 494              	.LFE15:
 495              		.size	mtx3_setup, .-mtx3_setup
 496 001e 00BF     		.section	.text.mtx2_setup,"ax",%progbits
 497              		.align	2
 498              		.p2align 4,,15
 499              		.thumb
 500              		.thumb_func
 501              		.type	mtx2_setup, %function
 502              	mtx2_setup:
 503              	.LFB10:
 504              		.loc 1 162 0
 505              		.cfi_startproc
 506              		@ args = 0, pretend = 0, frame = 0
 507              		@ frame_needed = 0, uses_anonymous_args = 0
 508              		@ link register save eliminated.
 509              		.loc 1 164 0
 510 0000 40F20000 		movw	r0, #:lower16:.LANCHOR2
 511 0004 C0F20000 		movt	r0, #:upper16:.LANCHOR2
ARM GAS  /tmp/cclctdzS.s 			page 10


 512              		.loc 1 165 0
 513              		.loc 1 164 0
 514 0008 FFF7FEBF 		b	chMtxInit
 515              	.LVL44:
 516              		.cfi_endproc
 517              	.LFE10:
 518              		.size	mtx2_setup, .-mtx2_setup
 519 000c AFF30080 		.section	.text.mtx1_setup,"ax",%progbits
 520              		.align	2
 521              		.p2align 4,,15
 522              		.thumb
 523              		.thumb_func
 524              		.type	mtx1_setup, %function
 525              	mtx1_setup:
 526              	.LFB7:
 527              		.loc 1 95 0
 528              		.cfi_startproc
 529              		@ args = 0, pretend = 0, frame = 0
 530              		@ frame_needed = 0, uses_anonymous_args = 0
 531              		@ link register save eliminated.
 532              		.loc 1 97 0
 533 0000 40F20000 		movw	r0, #:lower16:.LANCHOR2
 534 0004 C0F20000 		movt	r0, #:upper16:.LANCHOR2
 535              		.loc 1 98 0
 536              		.loc 1 97 0
 537 0008 FFF7FEBF 		b	chMtxInit
 538              	.LVL45:
 539              		.cfi_endproc
 540              	.LFE7:
 541              		.size	mtx1_setup, .-mtx1_setup
 542 000c AFF30080 		.section	.text.mtx7_execute,"ax",%progbits
 543              		.align	2
 544              		.p2align 4,,15
 545              		.thumb
 546              		.thumb_func
 547              		.type	mtx7_execute, %function
 548              	mtx7_execute:
 549              	.LFB32:
 550              		.loc 1 547 0
 551              		.cfi_startproc
 552              		@ args = 0, pretend = 0, frame = 0
 553              		@ frame_needed = 0, uses_anonymous_args = 0
 554 0000 F0B5     		push	{r4, r5, r6, r7, lr}
 555              	.LCFI11:
 556              		.cfi_def_cfa_offset 20
 557              		.cfi_offset 4, -20
 558              		.cfi_offset 5, -16
 559              		.cfi_offset 6, -12
 560              		.cfi_offset 7, -8
 561              		.cfi_offset 14, -4
 562              		.loc 1 549 0
 563 0002 40F20003 		movw	r3, #:lower16:rlist
 564 0006 C0F20003 		movt	r3, #:upper16:rlist
 565              		.loc 1 550 0
 566 000a 40F20006 		movw	r6, #:lower16:wa
 567              		.loc 1 549 0
 568 000e D969     		ldr	r1, [r3, #28]
ARM GAS  /tmp/cclctdzS.s 			page 11


 569              		.loc 1 547 0
 570 0010 83B0     		sub	sp, sp, #12
 571              	.LCFI12:
 572              		.cfi_def_cfa_offset 32
 573              		.loc 1 549 0
 574 0012 8F68     		ldr	r7, [r1, #8]
 575              	.LVL46:
 576              		.loc 1 550 0
 577 0014 C0F20006 		movt	r6, #:upper16:wa
 578 0018 40F20005 		movw	r5, #:lower16:thread10
 579 001c 40F20004 		movw	r4, #:lower16:.LC4
 580 0020 C0F20005 		movt	r5, #:upper16:thread10
 581 0024 C0F20004 		movt	r4, #:upper16:.LC4
 582 0028 7A1C     		adds	r2, r7, #1
 583 002a 2B46     		mov	r3, r5
 584 002c 0094     		str	r4, [sp, #0]
 585 002e 3068     		ldr	r0, [r6, #0]
 586 0030 4FF49871 		mov	r1, #304
 587 0034 FFF7FEFF 		bl	chThdCreateStatic
 588              	.LVL47:
 589 0038 40F20004 		movw	r4, #:lower16:threads
 590 003c C0F20004 		movt	r4, #:upper16:threads
 591              		.loc 1 551 0
 592 0040 BA1C     		adds	r2, r7, #2
 593              		.loc 1 550 0
 594 0042 2060     		str	r0, [r4, #0]
 595              		.loc 1 551 0
 596 0044 40F20000 		movw	r0, #:lower16:.LC5
 597 0048 C0F20000 		movt	r0, #:upper16:.LC5
 598 004c 2B46     		mov	r3, r5
 599 004e 0090     		str	r0, [sp, #0]
 600 0050 4FF49871 		mov	r1, #304
 601 0054 7068     		ldr	r0, [r6, #4]
 602 0056 FFF7FEFF 		bl	chThdCreateStatic
 603              	.LVL48:
 604 005a 6060     		str	r0, [r4, #4]
 605              		.loc 1 552 0
 606 005c 40F20000 		movw	r0, #:lower16:.LC1
 607 0060 C0F20000 		movt	r0, #:upper16:.LC1
 608 0064 FA1C     		adds	r2, r7, #3
 609 0066 2B46     		mov	r3, r5
 610 0068 0090     		str	r0, [sp, #0]
 611 006a 4FF49871 		mov	r1, #304
 612 006e B068     		ldr	r0, [r6, #8]
 613 0070 FFF7FEFF 		bl	chThdCreateStatic
 614              	.LVL49:
 615 0074 A060     		str	r0, [r4, #8]
 616              		.loc 1 553 0
 617 0076 40F20000 		movw	r0, #:lower16:.LC2
 618 007a C0F20000 		movt	r0, #:upper16:.LC2
 619 007e 3A1D     		adds	r2, r7, #4
 620 0080 2B46     		mov	r3, r5
 621 0082 0090     		str	r0, [sp, #0]
 622 0084 4FF49871 		mov	r1, #304
 623 0088 F068     		ldr	r0, [r6, #12]
 624 008a FFF7FEFF 		bl	chThdCreateStatic
 625              	.LVL50:
ARM GAS  /tmp/cclctdzS.s 			page 12


 626              		.loc 1 554 0
 627 008e 3669     		ldr	r6, [r6, #16]
 628              		.loc 1 553 0
 629 0090 E060     		str	r0, [r4, #12]
 630              		.loc 1 554 0
 631 0092 40F20000 		movw	r0, #:lower16:.LC0
 632 0096 C0F20000 		movt	r0, #:upper16:.LC0
 633 009a 4FF49871 		mov	r1, #304
 634 009e 7A1D     		adds	r2, r7, #5
 635 00a0 2B46     		mov	r3, r5
 636 00a2 0090     		str	r0, [sp, #0]
 637 00a4 3046     		mov	r0, r6
 638 00a6 FFF7FEFF 		bl	chThdCreateStatic
 639              	.LVL51:
 640 00aa 2061     		str	r0, [r4, #16]
 641              		.loc 1 555 0
 642 00ac 40F20000 		movw	r0, #:lower16:.LANCHOR0
 643 00b0 C0F20000 		movt	r0, #:upper16:.LANCHOR0
 644 00b4 FFF7FEFF 		bl	chCondBroadcast
 645              	.LVL52:
 646              		.loc 1 556 0
 647 00b8 FFF7FEFF 		bl	test_wait_threads
 648              	.LVL53:
 649              		.loc 1 557 0
 650 00bc 40F20001 		movw	r1, #:lower16:.LC6
 651 00c0 0120     		movs	r0, #1
 652 00c2 C0F20001 		movt	r1, #:upper16:.LC6
 653              		.loc 1 558 0
 654 00c6 03B0     		add	sp, sp, #12
 655 00c8 BDE8F040 		pop	{r4, r5, r6, r7, lr}
 656              		.loc 1 557 0
 657 00cc FFF7FEBF 		b	_test_assert_sequence
 658              	.LVL54:
 659              		.cfi_endproc
 660              	.LFE32:
 661              		.size	mtx7_execute, .-mtx7_execute
 662              		.section	.text.mtx6_execute,"ax",%progbits
 663              		.align	2
 664              		.p2align 4,,15
 665              		.thumb
 666              		.thumb_func
 667              		.type	mtx6_execute, %function
 668              	mtx6_execute:
 669              	.LFB30:
 670              		.loc 1 504 0
 671              		.cfi_startproc
 672              		@ args = 0, pretend = 0, frame = 0
 673              		@ frame_needed = 0, uses_anonymous_args = 0
 674 0000 F0B5     		push	{r4, r5, r6, r7, lr}
 675              	.LCFI13:
 676              		.cfi_def_cfa_offset 20
 677              		.cfi_offset 4, -20
 678              		.cfi_offset 5, -16
 679              		.cfi_offset 6, -12
 680              		.cfi_offset 7, -8
 681              		.cfi_offset 14, -4
 682              		.loc 1 506 0
ARM GAS  /tmp/cclctdzS.s 			page 13


 683 0002 40F20003 		movw	r3, #:lower16:rlist
 684 0006 C0F20003 		movt	r3, #:upper16:rlist
 685              		.loc 1 507 0
 686 000a 40F20006 		movw	r6, #:lower16:wa
 687              		.loc 1 506 0
 688 000e D969     		ldr	r1, [r3, #28]
 689              		.loc 1 504 0
 690 0010 83B0     		sub	sp, sp, #12
 691              	.LCFI14:
 692              		.cfi_def_cfa_offset 32
 693              		.loc 1 506 0
 694 0012 8F68     		ldr	r7, [r1, #8]
 695              	.LVL55:
 696              		.loc 1 507 0
 697 0014 C0F20006 		movt	r6, #:upper16:wa
 698 0018 40F20005 		movw	r5, #:lower16:thread10
 699 001c 40F20004 		movw	r4, #:lower16:.LC4
 700 0020 C0F20005 		movt	r5, #:upper16:thread10
 701 0024 C0F20004 		movt	r4, #:upper16:.LC4
 702 0028 7A1C     		adds	r2, r7, #1
 703 002a 2B46     		mov	r3, r5
 704 002c 0094     		str	r4, [sp, #0]
 705 002e 3068     		ldr	r0, [r6, #0]
 706 0030 4FF49871 		mov	r1, #304
 707 0034 FFF7FEFF 		bl	chThdCreateStatic
 708              	.LVL56:
 709 0038 40F20004 		movw	r4, #:lower16:threads
 710 003c C0F20004 		movt	r4, #:upper16:threads
 711              		.loc 1 508 0
 712 0040 7168     		ldr	r1, [r6, #4]
 713              		.loc 1 507 0
 714 0042 2060     		str	r0, [r4, #0]
 715              		.loc 1 508 0
 716 0044 40F20000 		movw	r0, #:lower16:.LC5
 717 0048 C0F20000 		movt	r0, #:upper16:.LC5
 718 004c BA1C     		adds	r2, r7, #2
 719 004e 2B46     		mov	r3, r5
 720 0050 0090     		str	r0, [sp, #0]
 721 0052 0846     		mov	r0, r1
 722 0054 4FF49871 		mov	r1, #304
 723 0058 FFF7FEFF 		bl	chThdCreateStatic
 724              	.LVL57:
 725              		.loc 1 509 0
 726 005c B168     		ldr	r1, [r6, #8]
 727              		.loc 1 508 0
 728 005e 6060     		str	r0, [r4, #4]
 729              		.loc 1 509 0
 730 0060 40F20000 		movw	r0, #:lower16:.LC1
 731 0064 C0F20000 		movt	r0, #:upper16:.LC1
 732 0068 FA1C     		adds	r2, r7, #3
 733 006a 2B46     		mov	r3, r5
 734 006c 0090     		str	r0, [sp, #0]
 735 006e 0846     		mov	r0, r1
 736 0070 4FF49871 		mov	r1, #304
 737 0074 FFF7FEFF 		bl	chThdCreateStatic
 738              	.LVL58:
 739              		.loc 1 510 0
ARM GAS  /tmp/cclctdzS.s 			page 14


 740 0078 F168     		ldr	r1, [r6, #12]
 741              		.loc 1 509 0
 742 007a A060     		str	r0, [r4, #8]
 743              		.loc 1 510 0
 744 007c 40F20000 		movw	r0, #:lower16:.LC2
 745 0080 C0F20000 		movt	r0, #:upper16:.LC2
 746 0084 3A1D     		adds	r2, r7, #4
 747 0086 2B46     		mov	r3, r5
 748 0088 0090     		str	r0, [sp, #0]
 749 008a 0846     		mov	r0, r1
 750 008c 4FF49871 		mov	r1, #304
 751 0090 FFF7FEFF 		bl	chThdCreateStatic
 752              	.LVL59:
 753              		.loc 1 511 0
 754 0094 3269     		ldr	r2, [r6, #16]
 755              		.loc 1 510 0
 756 0096 E060     		str	r0, [r4, #12]
 757              		.loc 1 511 0
 758 0098 40F20001 		movw	r1, #:lower16:.LC0
 759 009c C0F20001 		movt	r1, #:upper16:.LC0
 760 00a0 2B46     		mov	r3, r5
 761 00a2 0091     		str	r1, [sp, #0]
 762 00a4 1046     		mov	r0, r2
 763 00a6 4FF49871 		mov	r1, #304
 764 00aa 7A1D     		adds	r2, r7, #5
 765 00ac FFF7FEFF 		bl	chThdCreateStatic
 766              	.LVL60:
 767              	.LBB2:
 768              		.loc 1 512 0
 769 00b0 2023     		movs	r3, #32
 770              	.LVL61:
 771              	.LBE2:
 772              		.loc 1 511 0
 773 00b2 2061     		str	r0, [r4, #16]
 774              	.LBB3:
 775              		.loc 1 512 0
 776              	@ 512 "../../ChibiOS_2.4.3/test/testmtx.c" 1
 777 00b4 83F31188 		msr     BASEPRI, r3
 778              	@ 0 "" 2
 779              	.LVL62:
 780              		.thumb
 781              	.LBE3:
 782              		.loc 1 513 0
 783 00b8 40F20004 		movw	r4, #:lower16:.LANCHOR0
 784 00bc C0F20004 		movt	r4, #:upper16:.LANCHOR0
 785 00c0 2046     		mov	r0, r4
 786 00c2 FFF7FEFF 		bl	chCondSignalI
 787              	.LVL63:
 788              		.loc 1 514 0
 789 00c6 2046     		mov	r0, r4
 790 00c8 FFF7FEFF 		bl	chCondSignalI
 791              	.LVL64:
 792              		.loc 1 515 0
 793 00cc 2046     		mov	r0, r4
 794 00ce FFF7FEFF 		bl	chCondSignalI
 795              	.LVL65:
 796              		.loc 1 516 0
ARM GAS  /tmp/cclctdzS.s 			page 15


 797 00d2 2046     		mov	r0, r4
 798 00d4 FFF7FEFF 		bl	chCondSignalI
 799              	.LVL66:
 800              		.loc 1 517 0
 801 00d8 2046     		mov	r0, r4
 802 00da FFF7FEFF 		bl	chCondSignalI
 803              	.LVL67:
 804              		.loc 1 518 0
 805 00de FFF7FEFF 		bl	chSchRescheduleS
 806              	.LVL68:
 807              	.LBB4:
 808              		.loc 1 519 0
 809 00e2 0023     		movs	r3, #0
 810              	.LVL69:
 811              	@ 519 "../../ChibiOS_2.4.3/test/testmtx.c" 1
 812 00e4 83F31188 		msr     BASEPRI, r3
 813              	@ 0 "" 2
 814              	.LVL70:
 815              		.thumb
 816              	.LBE4:
 817              		.loc 1 520 0
 818 00e8 FFF7FEFF 		bl	test_wait_threads
 819              	.LVL71:
 820              		.loc 1 521 0
 821 00ec 40F20001 		movw	r1, #:lower16:.LC6
 822 00f0 0120     		movs	r0, #1
 823 00f2 C0F20001 		movt	r1, #:upper16:.LC6
 824              		.loc 1 522 0
 825 00f6 03B0     		add	sp, sp, #12
 826 00f8 BDE8F040 		pop	{r4, r5, r6, r7, lr}
 827              		.loc 1 521 0
 828 00fc FFF7FEBF 		b	_test_assert_sequence
 829              	.LVL72:
 830              		.cfi_endproc
 831              	.LFE30:
 832              		.size	mtx6_execute, .-mtx6_execute
 833              		.section	.text.mtx1_execute,"ax",%progbits
 834              		.align	2
 835              		.p2align 4,,15
 836              		.thumb
 837              		.thumb_func
 838              		.type	mtx1_execute, %function
 839              	mtx1_execute:
 840              	.LFB9:
 841              		.loc 1 108 0
 842              		.cfi_startproc
 843              		@ args = 0, pretend = 0, frame = 8
 844              		@ frame_needed = 0, uses_anonymous_args = 0
 845 0000 F0B5     		push	{r4, r5, r6, r7, lr}
 846              	.LCFI15:
 847              		.cfi_def_cfa_offset 20
 848              		.cfi_offset 4, -20
 849              		.cfi_offset 5, -16
 850              		.cfi_offset 6, -12
 851              		.cfi_offset 7, -8
 852              		.cfi_offset 14, -4
 853              		.loc 1 110 0
ARM GAS  /tmp/cclctdzS.s 			page 16


 854 0002 2C4F     		ldr	r7, .L20
 855              		.loc 1 111 0
 856 0004 2C48     		ldr	r0, .L20+4
 857              		.loc 1 110 0
 858 0006 FB69     		ldr	r3, [r7, #28]
 859              		.loc 1 112 0
 860 0008 2C4E     		ldr	r6, .L20+8
 861              		.loc 1 110 0
 862 000a 9C68     		ldr	r4, [r3, #8]
 863              	.LVL73:
 864              		.loc 1 112 0
 865 000c 2C4D     		ldr	r5, .L20+12
 866              		.loc 1 108 0
 867 000e 85B0     		sub	sp, sp, #20
 868              	.LCFI16:
 869              		.cfi_def_cfa_offset 40
 870              		.loc 1 111 0
 871 0010 FFF7FEFF 		bl	chMtxLock
 872              	.LVL74:
 873              		.loc 1 112 0
 874 0014 2B4A     		ldr	r2, .L20+16
 875 0016 3068     		ldr	r0, [r6, #0]
 876 0018 2B4B     		ldr	r3, .L20+20
 877 001a 0092     		str	r2, [sp, #0]
 878 001c 4FF49871 		mov	r1, #304
 879 0020 621C     		adds	r2, r4, #1
 880 0022 FFF7FEFF 		bl	chThdCreateStatic
 881              	.LVL75:
 882              		.loc 1 113 0
 883 0026 7168     		ldr	r1, [r6, #4]
 884              		.loc 1 112 0
 885 0028 2860     		str	r0, [r5, #0]
 886              		.loc 1 113 0
 887 002a 2848     		ldr	r0, .L20+24
 888 002c 0391     		str	r1, [sp, #12]
 889 002e A21C     		adds	r2, r4, #2
 890 0030 4FF49871 		mov	r1, #304
 891 0034 244B     		ldr	r3, .L20+20
 892 0036 0090     		str	r0, [sp, #0]
 893 0038 0398     		ldr	r0, [sp, #12]
 894 003a FFF7FEFF 		bl	chThdCreateStatic
 895              	.LVL76:
 896              		.loc 1 114 0
 897 003e B368     		ldr	r3, [r6, #8]
 898              		.loc 1 113 0
 899 0040 6860     		str	r0, [r5, #4]
 900              		.loc 1 114 0
 901 0042 2348     		ldr	r0, .L20+28
 902 0044 0393     		str	r3, [sp, #12]
 903 0046 E21C     		adds	r2, r4, #3
 904 0048 4FF49871 		mov	r1, #304
 905 004c 1E4B     		ldr	r3, .L20+20
 906 004e 0090     		str	r0, [sp, #0]
 907 0050 0398     		ldr	r0, [sp, #12]
 908 0052 FFF7FEFF 		bl	chThdCreateStatic
 909              	.LVL77:
 910              		.loc 1 115 0
ARM GAS  /tmp/cclctdzS.s 			page 17


 911 0056 F268     		ldr	r2, [r6, #12]
 912              		.loc 1 114 0
 913 0058 A860     		str	r0, [r5, #8]
 914              		.loc 1 115 0
 915 005a 1E48     		ldr	r0, .L20+32
 916 005c 0392     		str	r2, [sp, #12]
 917 005e 4FF49871 		mov	r1, #304
 918 0062 221D     		adds	r2, r4, #4
 919 0064 184B     		ldr	r3, .L20+20
 920 0066 0090     		str	r0, [sp, #0]
 921 0068 0398     		ldr	r0, [sp, #12]
 922 006a FFF7FEFF 		bl	chThdCreateStatic
 923              	.LVL78:
 924              		.loc 1 116 0
 925 006e 3669     		ldr	r6, [r6, #16]
 926              		.loc 1 115 0
 927 0070 E860     		str	r0, [r5, #12]
 928              		.loc 1 116 0
 929 0072 1948     		ldr	r0, .L20+36
 930 0074 144B     		ldr	r3, .L20+20
 931 0076 0090     		str	r0, [sp, #0]
 932 0078 4FF49871 		mov	r1, #304
 933 007c 621D     		adds	r2, r4, #5
 934 007e 3046     		mov	r0, r6
 935 0080 FFF7FEFF 		bl	chThdCreateStatic
 936              	.LVL79:
 937 0084 2861     		str	r0, [r5, #16]
 938              		.loc 1 117 0
 939 0086 FFF7FEFF 		bl	chMtxUnlock
 940              	.LVL80:
 941              		.loc 1 118 0
 942 008a FFF7FEFF 		bl	test_wait_threads
 943              	.LVL81:
 944              		.loc 1 119 0
 945 008e F969     		ldr	r1, [r7, #28]
 946 0090 8B68     		ldr	r3, [r1, #8]
 947 0092 0120     		movs	r0, #1
 948 0094 1A1B     		subs	r2, r3, r4
 949 0096 5142     		rsbs	r1, r2, #0
 950 0098 5141     		adcs	r1, r1, r2
 951 009a FFF7FEFF 		bl	_test_assert
 952              	.LVL82:
 953 009e 08B1     		cbz	r0, .L19
 954              		.loc 1 121 0
 955 00a0 05B0     		add	sp, sp, #20
 956 00a2 F0BD     		pop	{r4, r5, r6, r7, pc}
 957              	.L19:
 958              		.loc 1 120 0
 959 00a4 0D49     		ldr	r1, .L20+40
 960 00a6 0220     		movs	r0, #2
 961              		.loc 1 121 0
 962 00a8 05B0     		add	sp, sp, #20
 963 00aa BDE8F040 		pop	{r4, r5, r6, r7, lr}
 964              		.loc 1 120 0
 965 00ae FFF7FEBF 		b	_test_assert_sequence
 966              	.LVL83:
 967              	.L21:
ARM GAS  /tmp/cclctdzS.s 			page 18


 968 00b2 00BF     		.align	2
 969              	.L20:
 970 00b4 00000000 		.word	rlist
 971 00b8 00000000 		.word	.LANCHOR2
 972 00bc 00000000 		.word	wa
 973 00c0 00000000 		.word	threads
 974 00c4 10000000 		.word	.LC4
 975 00c8 00000000 		.word	thread1
 976 00cc 14000000 		.word	.LC5
 977 00d0 04000000 		.word	.LC1
 978 00d4 08000000 		.word	.LC2
 979 00d8 00000000 		.word	.LC0
 980 00dc 18000000 		.word	.LC6
 981              		.cfi_endproc
 982              	.LFE9:
 983              		.size	mtx1_execute, .-mtx1_execute
 984              		.section	.text.mtx5_execute,"ax",%progbits
 985              		.align	2
 986              		.p2align 4,,15
 987              		.thumb
 988              		.thumb_func
 989              		.type	mtx5_execute, %function
 990              	mtx5_execute:
 991              	.LFB27:
 992              		.loc 1 444 0
 993              		.cfi_startproc
 994              		@ args = 0, pretend = 0, frame = 0
 995              		@ frame_needed = 0, uses_anonymous_args = 0
 996 0000 F8B5     		push	{r3, r4, r5, r6, r7, lr}
 997              	.LCFI17:
 998              		.cfi_def_cfa_offset 24
 999              		.cfi_offset 3, -24
 1000              		.cfi_offset 4, -20
 1001              		.cfi_offset 5, -16
 1002              		.cfi_offset 6, -12
 1003              		.cfi_offset 7, -8
 1004              		.cfi_offset 14, -4
 1005              		.loc 1 448 0
 1006 0002 2E4D     		ldr	r5, .L27
 1007              		.loc 1 450 0
 1008 0004 2E4C     		ldr	r4, .L27+4
 1009              		.loc 1 448 0
 1010 0006 EB69     		ldr	r3, [r5, #28]
 1011              		.loc 1 450 0
 1012 0008 2046     		mov	r0, r4
 1013              		.loc 1 448 0
 1014 000a 9E68     		ldr	r6, [r3, #8]
 1015              	.LVL84:
 1016              		.loc 1 450 0
 1017 000c FFF7FEFF 		bl	chMtxTryLock
 1018              	.LVL85:
 1019              		.loc 1 451 0
 1020 0010 0146     		mov	r1, r0
 1021 0012 0120     		movs	r0, #1
 1022              	.LVL86:
 1023 0014 FFF7FEFF 		bl	_test_assert
 1024              	.LVL87:
ARM GAS  /tmp/cclctdzS.s 			page 19


 1025 0018 00B1     		cbz	r0, .L26
 1026              	.L22:
 1027 001a F8BD     		pop	{r3, r4, r5, r6, r7, pc}
 1028              	.L26:
 1029              		.loc 1 453 0
 1030 001c 2046     		mov	r0, r4
 1031 001e FFF7FEFF 		bl	chMtxTryLock
 1032              	.LVL88:
 1033              		.loc 1 454 0
 1034 0022 D0F10101 		rsbs	r1, r0, #1
 1035 0026 38BF     		it	cc
 1036 0028 0021     		movcc	r1, #0
 1037 002a 0220     		movs	r0, #2
 1038              	.LVL89:
 1039 002c FFF7FEFF 		bl	_test_assert
 1040              	.LVL90:
 1041 0030 0746     		mov	r7, r0
 1042 0032 0028     		cmp	r0, #0
 1043 0034 F1D1     		bne	.L22
 1044              	.LBB5:
 1045              		.loc 1 456 0
 1046 0036 2023     		movs	r3, #32
 1047              	.LVL91:
 1048              	@ 456 "../../ChibiOS_2.4.3/test/testmtx.c" 1
 1049 0038 83F31188 		msr     BASEPRI, r3
 1050              	@ 0 "" 2
 1051              	.LVL92:
 1052              		.thumb
 1053              	.LBE5:
 1054              		.loc 1 457 0
 1055 003c FFF7FEFF 		bl	chMtxUnlockS
 1056              	.LVL93:
 1057              	.LBB6:
 1058              		.loc 1 458 0
 1059 0040 3B46     		mov	r3, r7
 1060              	.LVL94:
 1061              	@ 458 "../../ChibiOS_2.4.3/test/testmtx.c" 1
 1062 0042 83F31188 		msr     BASEPRI, r3
 1063              	@ 0 "" 2
 1064              	.LVL95:
 1065              		.thumb
 1066              	.LBE6:
 1067              		.loc 1 460 0
 1068 0046 2168     		ldr	r1, [r4, #0]
 1069 0048 0320     		movs	r0, #3
 1070 004a B1EB040C 		subs	ip, r1, r4
 1071 004e DCF10002 		rsbs	r2, ip, #0
 1072 0052 52EB0C01 		adcs	r1, r2, ip
 1073 0056 FFF7FEFF 		bl	_test_assert
 1074              	.LVL96:
 1075 005a 0028     		cmp	r0, #0
 1076 005c DDD1     		bne	.L22
 1077              		.loc 1 461 0
 1078 005e A368     		ldr	r3, [r4, #8]
 1079 0060 0420     		movs	r0, #4
 1080 0062 D3F10101 		rsbs	r1, r3, #1
 1081 0066 38BF     		it	cc
ARM GAS  /tmp/cclctdzS.s 			page 20


 1082 0068 0021     		movcc	r1, #0
 1083 006a FFF7FEFF 		bl	_test_assert
 1084              	.LVL97:
 1085 006e 0028     		cmp	r0, #0
 1086 0070 D3D1     		bne	.L22
 1087              		.loc 1 462 0
 1088 0072 E869     		ldr	r0, [r5, #28]
 1089 0074 8168     		ldr	r1, [r0, #8]
 1090 0076 0520     		movs	r0, #5
 1091 0078 B1EB060E 		subs	lr, r1, r6
 1092 007c DEF10002 		rsbs	r2, lr, #0
 1093 0080 52EB0E01 		adcs	r1, r2, lr
 1094 0084 FFF7FEFF 		bl	_test_assert
 1095              	.LVL98:
 1096 0088 0028     		cmp	r0, #0
 1097 008a C6D1     		bne	.L22
 1098              		.loc 1 464 0
 1099 008c 2046     		mov	r0, r4
 1100 008e FFF7FEFF 		bl	chMtxLock
 1101              	.LVL99:
 1102              		.loc 1 465 0
 1103 0092 FFF7FEFF 		bl	chMtxUnlockAll
 1104              	.LVL100:
 1105              		.loc 1 466 0
 1106 0096 2368     		ldr	r3, [r4, #0]
 1107 0098 0620     		movs	r0, #6
 1108 009a 1A1B     		subs	r2, r3, r4
 1109 009c 5142     		rsbs	r1, r2, #0
 1110 009e 5141     		adcs	r1, r1, r2
 1111 00a0 FFF7FEFF 		bl	_test_assert
 1112              	.LVL101:
 1113 00a4 0028     		cmp	r0, #0
 1114 00a6 B8D1     		bne	.L22
 1115              		.loc 1 467 0
 1116 00a8 A368     		ldr	r3, [r4, #8]
 1117 00aa 0720     		movs	r0, #7
 1118 00ac D3F10101 		rsbs	r1, r3, #1
 1119 00b0 38BF     		it	cc
 1120 00b2 0021     		movcc	r1, #0
 1121              		.loc 1 468 0
 1122 00b4 BDE8F840 		pop	{r3, r4, r5, r6, r7, lr}
 1123              		.loc 1 467 0
 1124 00b8 FFF7FEBF 		b	_test_assert
 1125              	.LVL102:
 1126              	.L28:
 1127              		.align	2
 1128              	.L27:
 1129 00bc 00000000 		.word	rlist
 1130 00c0 00000000 		.word	.LANCHOR2
 1131              		.cfi_endproc
 1132              	.LFE27:
 1133              		.size	mtx5_execute, .-mtx5_execute
 1134 00c4 AFF30080 		.section	.text.mtx4_execute,"ax",%progbits
 1134      AFF30080 
 1134      AFF30080 
 1135              		.align	2
 1136              		.p2align 4,,15
ARM GAS  /tmp/cclctdzS.s 			page 21


 1137              		.thumb
 1138              		.thumb_func
 1139              		.type	mtx4_execute, %function
 1140              	mtx4_execute:
 1141              	.LFB25:
 1142              		.loc 1 376 0
 1143              		.cfi_startproc
 1144              		@ args = 0, pretend = 0, frame = 8
 1145              		@ frame_needed = 0, uses_anonymous_args = 0
 1146 0000 2DE9F046 		push	{r4, r5, r6, r7, r9, sl, lr}
 1147              	.LCFI18:
 1148              		.cfi_def_cfa_offset 28
 1149              		.cfi_offset 4, -28
 1150              		.cfi_offset 5, -24
 1151              		.cfi_offset 6, -20
 1152              		.cfi_offset 7, -16
 1153              		.cfi_offset 9, -12
 1154              		.cfi_offset 10, -8
 1155              		.cfi_offset 14, -4
 1156              		.loc 1 379 0
 1157 0004 8C4D     		ldr	r5, .L34
 1158              		.loc 1 382 0
 1159 0006 8D4E     		ldr	r6, .L34+4
 1160              		.loc 1 379 0
 1161 0008 EB69     		ldr	r3, [r5, #28]
 1162              		.loc 1 382 0
 1163 000a 3268     		ldr	r2, [r6, #0]
 1164              		.loc 1 379 0
 1165 000c 9C68     		ldr	r4, [r3, #8]
 1166              	.LVL103:
 1167              		.loc 1 382 0
 1168 000e 8C48     		ldr	r0, .L34+8
 1169 0010 8C4B     		ldr	r3, .L34+12
 1170 0012 8D4F     		ldr	r7, .L34+16
 1171              		.loc 1 376 0
 1172 0014 85B0     		sub	sp, sp, #20
 1173              	.LCFI19:
 1174              		.cfi_def_cfa_offset 48
 1175              		.loc 1 380 0
 1176 0016 04F10109 		add	r9, r4, #1
 1177              	.LVL104:
 1178              		.loc 1 382 0
 1179 001a 0392     		str	r2, [sp, #12]
 1180 001c 0090     		str	r0, [sp, #0]
 1181 001e 4FF49871 		mov	r1, #304
 1182 0022 4A46     		mov	r2, r9
 1183 0024 0398     		ldr	r0, [sp, #12]
 1184 0026 FFF7FEFF 		bl	chThdCreateStatic
 1185              	.LVL105:
 1186              		.loc 1 383 0
 1187 002a 7668     		ldr	r6, [r6, #4]
 1188              		.loc 1 382 0
 1189 002c 3860     		str	r0, [r7, #0]
 1190              		.loc 1 383 0
 1191 002e 8748     		ldr	r0, .L34+20
 1192 0030 874B     		ldr	r3, .L34+24
 1193 0032 0090     		str	r0, [sp, #0]
ARM GAS  /tmp/cclctdzS.s 			page 22


 1194              		.loc 1 381 0
 1195 0034 04F1020A 		add	sl, r4, #2
 1196              	.LVL106:
 1197              		.loc 1 383 0
 1198 0038 4FF49871 		mov	r1, #304
 1199 003c 5246     		mov	r2, sl
 1200 003e 3046     		mov	r0, r6
 1201 0040 FFF7FEFF 		bl	chThdCreateStatic
 1202              	.LVL107:
 1203 0044 7860     		str	r0, [r7, #4]
 1204              		.loc 1 384 0
 1205 0046 8348     		ldr	r0, .L34+28
 1206 0048 FFF7FEFF 		bl	chMtxLock
 1207              	.LVL108:
 1208              		.loc 1 385 0
 1209 004c E969     		ldr	r1, [r5, #28]
 1210 004e 8B68     		ldr	r3, [r1, #8]
 1211 0050 0120     		movs	r0, #1
 1212 0052 1A1B     		subs	r2, r3, r4
 1213 0054 5142     		rsbs	r1, r2, #0
 1214 0056 5141     		adcs	r1, r1, r2
 1215 0058 FFF7FEFF 		bl	_test_assert
 1216              	.LVL109:
 1217 005c 10B1     		cbz	r0, .L33
 1218              	.L29:
 1219              		.loc 1 420 0
 1220 005e 05B0     		add	sp, sp, #20
 1221 0060 BDE8F086 		pop	{r4, r5, r6, r7, r9, sl, pc}
 1222              	.L33:
 1223              		.loc 1 386 0
 1224 0064 6420     		movs	r0, #100
 1225 0066 FFF7FEFF 		bl	chThdSleep
 1226              	.LVL110:
 1227              		.loc 1 387 0
 1228 006a E869     		ldr	r0, [r5, #28]
 1229 006c 8368     		ldr	r3, [r0, #8]
 1230 006e 0220     		movs	r0, #2
 1231 0070 B3EB0902 		subs	r2, r3, r9
 1232 0074 5142     		rsbs	r1, r2, #0
 1233 0076 5141     		adcs	r1, r1, r2
 1234 0078 FFF7FEFF 		bl	_test_assert
 1235              	.LVL111:
 1236 007c 0028     		cmp	r0, #0
 1237 007e EED1     		bne	.L29
 1238              		.loc 1 388 0
 1239 0080 7548     		ldr	r0, .L34+32
 1240 0082 FFF7FEFF 		bl	chMtxLock
 1241              	.LVL112:
 1242              		.loc 1 389 0
 1243 0086 E869     		ldr	r0, [r5, #28]
 1244 0088 8368     		ldr	r3, [r0, #8]
 1245 008a 0320     		movs	r0, #3
 1246 008c B3EB090C 		subs	ip, r3, r9
 1247 0090 DCF10002 		rsbs	r2, ip, #0
 1248 0094 52EB0C01 		adcs	r1, r2, ip
 1249 0098 FFF7FEFF 		bl	_test_assert
 1250              	.LVL113:
ARM GAS  /tmp/cclctdzS.s 			page 23


 1251 009c 0028     		cmp	r0, #0
 1252 009e DED1     		bne	.L29
 1253              		.loc 1 390 0
 1254 00a0 6420     		movs	r0, #100
 1255 00a2 FFF7FEFF 		bl	chThdSleep
 1256              	.LVL114:
 1257              		.loc 1 391 0
 1258 00a6 E969     		ldr	r1, [r5, #28]
 1259 00a8 8B68     		ldr	r3, [r1, #8]
 1260 00aa 0420     		movs	r0, #4
 1261 00ac B3EB0A0E 		subs	lr, r3, sl
 1262 00b0 DEF10002 		rsbs	r2, lr, #0
 1263 00b4 52EB0E01 		adcs	r1, r2, lr
 1264 00b8 FFF7FEFF 		bl	_test_assert
 1265              	.LVL115:
 1266 00bc 0028     		cmp	r0, #0
 1267 00be CED1     		bne	.L29
 1268              		.loc 1 392 0
 1269 00c0 FFF7FEFF 		bl	chMtxUnlock
 1270              	.LVL116:
 1271              		.loc 1 393 0
 1272 00c4 E869     		ldr	r0, [r5, #28]
 1273 00c6 8168     		ldr	r1, [r0, #8]
 1274 00c8 0520     		movs	r0, #5
 1275 00ca B1EB0903 		subs	r3, r1, r9
 1276 00ce 5A42     		rsbs	r2, r3, #0
 1277 00d0 52EB0301 		adcs	r1, r2, r3
 1278 00d4 FFF7FEFF 		bl	_test_assert
 1279              	.LVL117:
 1280 00d8 0028     		cmp	r0, #0
 1281 00da C0D1     		bne	.L29
 1282              		.loc 1 394 0
 1283 00dc 6420     		movs	r0, #100
 1284 00de FFF7FEFF 		bl	chThdSleep
 1285              	.LVL118:
 1286              		.loc 1 395 0
 1287 00e2 E869     		ldr	r0, [r5, #28]
 1288 00e4 8168     		ldr	r1, [r0, #8]
 1289 00e6 0620     		movs	r0, #6
 1290 00e8 B1EB0903 		subs	r3, r1, r9
 1291 00ec 5A42     		rsbs	r2, r3, #0
 1292 00ee 52EB0301 		adcs	r1, r2, r3
 1293 00f2 FFF7FEFF 		bl	_test_assert
 1294              	.LVL119:
 1295 00f6 0028     		cmp	r0, #0
 1296 00f8 B1D1     		bne	.L29
 1297              		.loc 1 396 0
 1298 00fa FFF7FEFF 		bl	chMtxUnlockAll
 1299              	.LVL120:
 1300              		.loc 1 397 0
 1301 00fe E869     		ldr	r0, [r5, #28]
 1302 0100 8168     		ldr	r1, [r0, #8]
 1303 0102 0720     		movs	r0, #7
 1304 0104 B1EB040C 		subs	ip, r1, r4
 1305 0108 DCF10003 		rsbs	r3, ip, #0
 1306 010c 53EB0C01 		adcs	r1, r3, ip
 1307 0110 FFF7FEFF 		bl	_test_assert
ARM GAS  /tmp/cclctdzS.s 			page 24


 1308              	.LVL121:
 1309 0114 0028     		cmp	r0, #0
 1310 0116 A2D1     		bne	.L29
 1311              		.loc 1 398 0
 1312 0118 FFF7FEFF 		bl	test_wait_threads
 1313              	.LVL122:
 1314              		.loc 1 401 0
 1315 011c 4F4A     		ldr	r2, .L34+36
 1316 011e 494B     		ldr	r3, .L34+12
 1317 0120 0092     		str	r2, [sp, #0]
 1318 0122 4FF49871 		mov	r1, #304
 1319 0126 4A46     		mov	r2, r9
 1320 0128 0398     		ldr	r0, [sp, #12]
 1321 012a FFF7FEFF 		bl	chThdCreateStatic
 1322              	.LVL123:
 1323 012e 3860     		str	r0, [r7, #0]
 1324              		.loc 1 402 0
 1325 0130 4B48     		ldr	r0, .L34+40
 1326 0132 474B     		ldr	r3, .L34+24
 1327 0134 0090     		str	r0, [sp, #0]
 1328 0136 4FF49871 		mov	r1, #304
 1329 013a 5246     		mov	r2, sl
 1330 013c 3046     		mov	r0, r6
 1331 013e FFF7FEFF 		bl	chThdCreateStatic
 1332              	.LVL124:
 1333 0142 7860     		str	r0, [r7, #4]
 1334              		.loc 1 403 0
 1335 0144 4348     		ldr	r0, .L34+28
 1336 0146 FFF7FEFF 		bl	chMtxLock
 1337              	.LVL125:
 1338              		.loc 1 404 0
 1339 014a E969     		ldr	r1, [r5, #28]
 1340 014c 8B68     		ldr	r3, [r1, #8]
 1341 014e 0820     		movs	r0, #8
 1342 0150 B3EB040E 		subs	lr, r3, r4
 1343 0154 DEF10002 		rsbs	r2, lr, #0
 1344 0158 52EB0E01 		adcs	r1, r2, lr
 1345 015c FFF7FEFF 		bl	_test_assert
 1346              	.LVL126:
 1347 0160 0028     		cmp	r0, #0
 1348 0162 7FF47CAF 		bne	.L29
 1349              		.loc 1 405 0
 1350 0166 6420     		movs	r0, #100
 1351 0168 FFF7FEFF 		bl	chThdSleep
 1352              	.LVL127:
 1353              		.loc 1 406 0
 1354 016c E869     		ldr	r0, [r5, #28]
 1355 016e 8168     		ldr	r1, [r0, #8]
 1356 0170 0920     		movs	r0, #9
 1357 0172 B1EB0903 		subs	r3, r1, r9
 1358 0176 5A42     		rsbs	r2, r3, #0
 1359 0178 52EB0301 		adcs	r1, r2, r3
 1360 017c FFF7FEFF 		bl	_test_assert
 1361              	.LVL128:
 1362 0180 0028     		cmp	r0, #0
 1363 0182 7FF46CAF 		bne	.L29
 1364              		.loc 1 407 0
ARM GAS  /tmp/cclctdzS.s 			page 25


 1365 0186 3448     		ldr	r0, .L34+32
 1366 0188 FFF7FEFF 		bl	chMtxLock
 1367              	.LVL129:
 1368              		.loc 1 408 0
 1369 018c E869     		ldr	r0, [r5, #28]
 1370 018e 8168     		ldr	r1, [r0, #8]
 1371 0190 0A20     		movs	r0, #10
 1372 0192 B1EB0903 		subs	r3, r1, r9
 1373 0196 5A42     		rsbs	r2, r3, #0
 1374 0198 52EB0301 		adcs	r1, r2, r3
 1375 019c FFF7FEFF 		bl	_test_assert
 1376              	.LVL130:
 1377 01a0 0028     		cmp	r0, #0
 1378 01a2 7FF45CAF 		bne	.L29
 1379              		.loc 1 409 0
 1380 01a6 6420     		movs	r0, #100
 1381 01a8 FFF7FEFF 		bl	chThdSleep
 1382              	.LVL131:
 1383              		.loc 1 410 0
 1384 01ac EE69     		ldr	r6, [r5, #28]
 1385 01ae B168     		ldr	r1, [r6, #8]
 1386 01b0 0B20     		movs	r0, #11
 1387 01b2 B1EB0A0C 		subs	ip, r1, sl
 1388 01b6 DCF10003 		rsbs	r3, ip, #0
 1389 01ba 53EB0C01 		adcs	r1, r3, ip
 1390 01be FFF7FEFF 		bl	_test_assert
 1391              	.LVL132:
 1392 01c2 0646     		mov	r6, r0
 1393 01c4 0028     		cmp	r0, #0
 1394 01c6 7FF44AAF 		bne	.L29
 1395              	.LBB7:
 1396              		.loc 1 411 0
 1397 01ca 2023     		movs	r3, #32
 1398              	.LVL133:
 1399              	@ 411 "../../ChibiOS_2.4.3/test/testmtx.c" 1
 1400 01cc 83F31188 		msr     BASEPRI, r3
 1401              	@ 0 "" 2
 1402              	.LVL134:
 1403              		.thumb
 1404              	.LBE7:
 1405              		.loc 1 412 0
 1406 01d0 FFF7FEFF 		bl	chMtxUnlockS
 1407              	.LVL135:
 1408              	.LBB8:
 1409              		.loc 1 413 0
 1410 01d4 3346     		mov	r3, r6
 1411              	.LVL136:
 1412              	@ 413 "../../ChibiOS_2.4.3/test/testmtx.c" 1
 1413 01d6 83F31188 		msr     BASEPRI, r3
 1414              	@ 0 "" 2
 1415              	.LVL137:
 1416              		.thumb
 1417              	.LBE8:
 1418              		.loc 1 414 0
 1419 01da E869     		ldr	r0, [r5, #28]
 1420 01dc 8268     		ldr	r2, [r0, #8]
 1421 01de 0C20     		movs	r0, #12
ARM GAS  /tmp/cclctdzS.s 			page 26


 1422 01e0 B2EB090E 		subs	lr, r2, r9
 1423 01e4 DEF10001 		rsbs	r1, lr, #0
 1424 01e8 51EB0E01 		adcs	r1, r1, lr
 1425 01ec FFF7FEFF 		bl	_test_assert
 1426              	.LVL138:
 1427 01f0 0028     		cmp	r0, #0
 1428 01f2 7FF434AF 		bne	.L29
 1429              		.loc 1 415 0
 1430 01f6 6420     		movs	r0, #100
 1431 01f8 FFF7FEFF 		bl	chThdSleep
 1432              	.LVL139:
 1433              		.loc 1 416 0
 1434 01fc EB69     		ldr	r3, [r5, #28]
 1435 01fe 9A68     		ldr	r2, [r3, #8]
 1436 0200 0D20     		movs	r0, #13
 1437 0202 B2EB0903 		subs	r3, r2, r9
 1438 0206 5942     		rsbs	r1, r3, #0
 1439 0208 5941     		adcs	r1, r1, r3
 1440 020a FFF7FEFF 		bl	_test_assert
 1441              	.LVL140:
 1442 020e 0028     		cmp	r0, #0
 1443 0210 7FF425AF 		bne	.L29
 1444              		.loc 1 417 0
 1445 0214 FFF7FEFF 		bl	chMtxUnlockAll
 1446              	.LVL141:
 1447              		.loc 1 418 0
 1448 0218 E869     		ldr	r0, [r5, #28]
 1449 021a 8268     		ldr	r2, [r0, #8]
 1450 021c 0E20     		movs	r0, #14
 1451 021e 131B     		subs	r3, r2, r4
 1452 0220 5942     		rsbs	r1, r3, #0
 1453 0222 5941     		adcs	r1, r1, r3
 1454 0224 FFF7FEFF 		bl	_test_assert
 1455              	.LVL142:
 1456 0228 0028     		cmp	r0, #0
 1457 022a 7FF418AF 		bne	.L29
 1458              		.loc 1 420 0
 1459 022e 05B0     		add	sp, sp, #20
 1460 0230 BDE8F046 		pop	{r4, r5, r6, r7, r9, sl, lr}
 1461              		.loc 1 419 0
 1462 0234 FFF7FEBF 		b	test_wait_threads
 1463              	.LVL143:
 1464              	.L35:
 1465              		.align	2
 1466              	.L34:
 1467 0238 00000000 		.word	rlist
 1468 023c 00000000 		.word	wa
 1469 0240 08000000 		.word	.LC2
 1470 0244 00000000 		.word	thread4a
 1471 0248 00000000 		.word	threads
 1472 024c 00000000 		.word	.LC0
 1473 0250 00000000 		.word	thread4b
 1474 0254 00000000 		.word	.LANCHOR1
 1475 0258 00000000 		.word	.LANCHOR2
 1476 025c 14000000 		.word	.LC5
 1477 0260 04000000 		.word	.LC1
 1478              		.cfi_endproc
ARM GAS  /tmp/cclctdzS.s 			page 27


 1479              	.LFE25:
 1480              		.size	mtx4_execute, .-mtx4_execute
 1481 0264 AFF30080 		.section	.text.thread4b,"ax",%progbits
 1481      AFF30080 
 1481      AFF30080 
 1482              		.align	2
 1483              		.p2align 4,,15
 1484              		.thumb
 1485              		.thumb_func
 1486              		.type	thread4b, %function
 1487              	thread4b:
 1488              	.LFB24:
 1489              		.loc 1 367 0
 1490              		.cfi_startproc
 1491              		@ args = 0, pretend = 0, frame = 0
 1492              		@ frame_needed = 0, uses_anonymous_args = 0
 1493              	.LVL144:
 1494 0000 08B5     		push	{r3, lr}
 1495              	.LCFI20:
 1496              		.cfi_def_cfa_offset 8
 1497              		.cfi_offset 3, -8
 1498              		.cfi_offset 14, -4
 1499              		.loc 1 370 0
 1500 0002 9620     		movs	r0, #150
 1501              	.LVL145:
 1502 0004 FFF7FEFF 		bl	chThdSleep
 1503              	.LVL146:
 1504              		.loc 1 371 0
 1505 0008 40F20000 		movw	r0, #:lower16:.LANCHOR2
 1506 000c C0F20000 		movt	r0, #:upper16:.LANCHOR2
 1507 0010 FFF7FEFF 		bl	chMtxLock
 1508              	.LVL147:
 1509              		.loc 1 372 0
 1510 0014 FFF7FEFF 		bl	chMtxUnlock
 1511              	.LVL148:
 1512              		.loc 1 374 0
 1513 0018 0020     		movs	r0, #0
 1514 001a 08BD     		pop	{r3, pc}
 1515              		.cfi_endproc
 1516              	.LFE24:
 1517              		.size	thread4b, .-thread4b
 1518 001c AFF30080 		.section	.text.thread4a,"ax",%progbits
 1519              		.align	2
 1520              		.p2align 4,,15
 1521              		.thumb
 1522              		.thumb_func
 1523              		.type	thread4a, %function
 1524              	thread4a:
 1525              	.LFB23:
 1526              		.loc 1 358 0
 1527              		.cfi_startproc
 1528              		@ args = 0, pretend = 0, frame = 0
 1529              		@ frame_needed = 0, uses_anonymous_args = 0
 1530              	.LVL149:
 1531 0000 08B5     		push	{r3, lr}
 1532              	.LCFI21:
 1533              		.cfi_def_cfa_offset 8
ARM GAS  /tmp/cclctdzS.s 			page 28


 1534              		.cfi_offset 3, -8
 1535              		.cfi_offset 14, -4
 1536              		.loc 1 361 0
 1537 0002 3220     		movs	r0, #50
 1538              	.LVL150:
 1539 0004 FFF7FEFF 		bl	chThdSleep
 1540              	.LVL151:
 1541              		.loc 1 362 0
 1542 0008 40F20000 		movw	r0, #:lower16:.LANCHOR1
 1543 000c C0F20000 		movt	r0, #:upper16:.LANCHOR1
 1544 0010 FFF7FEFF 		bl	chMtxLock
 1545              	.LVL152:
 1546              		.loc 1 363 0
 1547 0014 FFF7FEFF 		bl	chMtxUnlock
 1548              	.LVL153:
 1549              		.loc 1 365 0
 1550 0018 0020     		movs	r0, #0
 1551 001a 08BD     		pop	{r3, pc}
 1552              		.cfi_endproc
 1553              	.LFE23:
 1554              		.size	thread4a, .-thread4a
 1555 001c AFF30080 		.section	.text.mtx3_execute,"ax",%progbits
 1556              		.align	2
 1557              		.p2align 4,,15
 1558              		.thumb
 1559              		.thumb_func
 1560              		.type	mtx3_execute, %function
 1561              	mtx3_execute:
 1562              	.LFB21:
 1563              		.loc 1 319 0
 1564              		.cfi_startproc
 1565              		@ args = 0, pretend = 0, frame = 8
 1566              		@ frame_needed = 0, uses_anonymous_args = 0
 1567 0000 2DE9F041 		push	{r4, r5, r6, r7, r8, lr}
 1568              	.LCFI22:
 1569              		.cfi_def_cfa_offset 24
 1570              		.cfi_offset 4, -24
 1571              		.cfi_offset 5, -20
 1572              		.cfi_offset 6, -16
 1573              		.cfi_offset 7, -12
 1574              		.cfi_offset 8, -8
 1575              		.cfi_offset 14, -4
 1576              		.loc 1 324 0
 1577 0004 304E     		ldr	r6, .L41
 1578 0006 DFF8E480 		ldr	r8, .L41+36
 1579 000a 304C     		ldr	r4, .L41+4
 1580              		.loc 1 319 0
 1581 000c 84B0     		sub	sp, sp, #16
 1582              	.LCFI23:
 1583              		.cfi_def_cfa_offset 40
 1584              		.loc 1 322 0
 1585 000e FFF7FEFF 		bl	test_wait_tick
 1586              	.LVL154:
 1587              		.loc 1 324 0
 1588 0012 F369     		ldr	r3, [r6, #28]
 1589              		.loc 1 323 0
 1590 0014 2E49     		ldr	r1, .L41+8
ARM GAS  /tmp/cclctdzS.s 			page 29


 1591              		.loc 1 324 0
 1592 0016 9A68     		ldr	r2, [r3, #8]
 1593              		.loc 1 323 0
 1594 0018 CF68     		ldr	r7, [r1, #12]
 1595              	.LVL155:
 1596              		.loc 1 324 0
 1597 001a 2E4B     		ldr	r3, .L41+12
 1598 001c D8F80000 		ldr	r0, [r8, #0]
 1599 0020 0025     		movs	r5, #0
 1600 0022 4FF49871 		mov	r1, #304
 1601 0026 053A     		subs	r2, r2, #5
 1602 0028 0095     		str	r5, [sp, #0]
 1603 002a FFF7FEFF 		bl	chThdCreateStatic
 1604              	.LVL156:
 1605              		.loc 1 325 0
 1606 002e F369     		ldr	r3, [r6, #28]
 1607 0030 D8F80420 		ldr	r2, [r8, #4]
 1608 0034 9B68     		ldr	r3, [r3, #8]
 1609 0036 0392     		str	r2, [sp, #12]
 1610              		.loc 1 324 0
 1611 0038 2060     		str	r0, [r4, #0]
 1612              		.loc 1 325 0
 1613 003a 1A1F     		subs	r2, r3, #4
 1614 003c 4FF49871 		mov	r1, #304
 1615 0040 254B     		ldr	r3, .L41+16
 1616 0042 0095     		str	r5, [sp, #0]
 1617 0044 0398     		ldr	r0, [sp, #12]
 1618 0046 FFF7FEFF 		bl	chThdCreateStatic
 1619              	.LVL157:
 1620              		.loc 1 326 0
 1621 004a F169     		ldr	r1, [r6, #28]
 1622 004c D8F80820 		ldr	r2, [r8, #8]
 1623 0050 8B68     		ldr	r3, [r1, #8]
 1624 0052 0392     		str	r2, [sp, #12]
 1625              		.loc 1 325 0
 1626 0054 6060     		str	r0, [r4, #4]
 1627              		.loc 1 326 0
 1628 0056 DA1E     		subs	r2, r3, #3
 1629 0058 4FF49871 		mov	r1, #304
 1630 005c 1F4B     		ldr	r3, .L41+20
 1631 005e 0095     		str	r5, [sp, #0]
 1632 0060 0398     		ldr	r0, [sp, #12]
 1633 0062 FFF7FEFF 		bl	chThdCreateStatic
 1634              	.LVL158:
 1635              		.loc 1 327 0
 1636 0066 F169     		ldr	r1, [r6, #28]
 1637 0068 D8F80C20 		ldr	r2, [r8, #12]
 1638 006c 8B68     		ldr	r3, [r1, #8]
 1639 006e 0392     		str	r2, [sp, #12]
 1640              		.loc 1 326 0
 1641 0070 A060     		str	r0, [r4, #8]
 1642              		.loc 1 327 0
 1643 0072 9A1E     		subs	r2, r3, #2
 1644 0074 4FF49871 		mov	r1, #304
 1645 0078 194B     		ldr	r3, .L41+24
 1646 007a 0095     		str	r5, [sp, #0]
 1647 007c 0398     		ldr	r0, [sp, #12]
ARM GAS  /tmp/cclctdzS.s 			page 30


 1648 007e FFF7FEFF 		bl	chThdCreateStatic
 1649              	.LVL159:
 1650              		.loc 1 328 0
 1651 0082 F169     		ldr	r1, [r6, #28]
 1652 0084 D8F81060 		ldr	r6, [r8, #16]
 1653 0088 8A68     		ldr	r2, [r1, #8]
 1654 008a 164B     		ldr	r3, .L41+28
 1655              		.loc 1 327 0
 1656 008c E060     		str	r0, [r4, #12]
 1657              		.loc 1 328 0
 1658 008e 4FF49871 		mov	r1, #304
 1659 0092 013A     		subs	r2, r2, #1
 1660 0094 0095     		str	r5, [sp, #0]
 1661 0096 3046     		mov	r0, r6
 1662 0098 FFF7FEFF 		bl	chThdCreateStatic
 1663              	.LVL160:
 1664 009c 2061     		str	r0, [r4, #16]
 1665              		.loc 1 329 0
 1666 009e FFF7FEFF 		bl	test_wait_threads
 1667              	.LVL161:
 1668              		.loc 1 330 0
 1669 00a2 0120     		movs	r0, #1
 1670 00a4 1049     		ldr	r1, .L41+32
 1671 00a6 FFF7FEFF 		bl	_test_assert_sequence
 1672              	.LVL162:
 1673 00aa 10B1     		cbz	r0, .L40
 1674              		.loc 1 332 0
 1675 00ac 04B0     		add	sp, sp, #16
 1676 00ae BDE8F081 		pop	{r4, r5, r6, r7, r8, pc}
 1677              	.L40:
 1678              		.loc 1 331 0
 1679 00b2 0220     		movs	r0, #2
 1680 00b4 07F16E01 		add	r1, r7, #110
 1681 00b8 07F17302 		add	r2, r7, #115
 1682              		.loc 1 332 0
 1683 00bc 04B0     		add	sp, sp, #16
 1684 00be BDE8F041 		pop	{r4, r5, r6, r7, r8, lr}
 1685              		.loc 1 331 0
 1686 00c2 FFF7FEBF 		b	_test_assert_time_window
 1687              	.LVL163:
 1688              	.L42:
 1689 00c6 00BF     		.align	2
 1690              	.L41:
 1691 00c8 00000000 		.word	rlist
 1692 00cc 00000000 		.word	threads
 1693 00d0 00000000 		.word	vtlist
 1694 00d4 00000000 		.word	thread3LL
 1695 00d8 00000000 		.word	thread3L
 1696 00dc 00000000 		.word	thread3M
 1697 00e0 00000000 		.word	thread3H
 1698 00e4 00000000 		.word	thread3HH
 1699 00e8 18000000 		.word	.LC6
 1700 00ec 00000000 		.word	wa
 1701              		.cfi_endproc
 1702              	.LFE21:
 1703              		.size	mtx3_execute, .-mtx3_execute
 1704              		.section	.text.mtx2_execute,"ax",%progbits
ARM GAS  /tmp/cclctdzS.s 			page 31


 1705              		.align	2
 1706              		.p2align 4,,15
 1707              		.thumb
 1708              		.thumb_func
 1709              		.type	mtx2_execute, %function
 1710              	mtx2_execute:
 1711              	.LFB14:
 1712              		.loc 1 201 0
 1713              		.cfi_startproc
 1714              		@ args = 0, pretend = 0, frame = 8
 1715              		@ frame_needed = 0, uses_anonymous_args = 0
 1716 0000 2DE9F041 		push	{r4, r5, r6, r7, r8, lr}
 1717              	.LCFI24:
 1718              		.cfi_def_cfa_offset 24
 1719              		.cfi_offset 4, -24
 1720              		.cfi_offset 5, -20
 1721              		.cfi_offset 6, -16
 1722              		.cfi_offset 7, -12
 1723              		.cfi_offset 8, -8
 1724              		.cfi_offset 14, -4
 1725              		.loc 1 206 0
 1726 0004 224E     		ldr	r6, .L46
 1727 0006 DFF8A480 		ldr	r8, .L46+28
 1728 000a 224C     		ldr	r4, .L46+4
 1729              		.loc 1 201 0
 1730 000c 84B0     		sub	sp, sp, #16
 1731              	.LCFI25:
 1732              		.cfi_def_cfa_offset 40
 1733              		.loc 1 204 0
 1734 000e FFF7FEFF 		bl	test_wait_tick
 1735              	.LVL164:
 1736              		.loc 1 206 0
 1737 0012 F369     		ldr	r3, [r6, #28]
 1738              		.loc 1 205 0
 1739 0014 2049     		ldr	r1, .L46+8
 1740              		.loc 1 206 0
 1741 0016 9A68     		ldr	r2, [r3, #8]
 1742              		.loc 1 205 0
 1743 0018 CF68     		ldr	r7, [r1, #12]
 1744              	.LVL165:
 1745              		.loc 1 206 0
 1746 001a 204B     		ldr	r3, .L46+12
 1747 001c D8F80000 		ldr	r0, [r8, #0]
 1748 0020 0025     		movs	r5, #0
 1749 0022 4FF49871 		mov	r1, #304
 1750 0026 013A     		subs	r2, r2, #1
 1751 0028 0095     		str	r5, [sp, #0]
 1752 002a FFF7FEFF 		bl	chThdCreateStatic
 1753              	.LVL166:
 1754              		.loc 1 207 0
 1755 002e F369     		ldr	r3, [r6, #28]
 1756 0030 D8F80420 		ldr	r2, [r8, #4]
 1757 0034 9B68     		ldr	r3, [r3, #8]
 1758 0036 0392     		str	r2, [sp, #12]
 1759              		.loc 1 206 0
 1760 0038 2060     		str	r0, [r4, #0]
 1761              		.loc 1 207 0
ARM GAS  /tmp/cclctdzS.s 			page 32


 1762 003a 9A1E     		subs	r2, r3, #2
 1763 003c 4FF49871 		mov	r1, #304
 1764 0040 174B     		ldr	r3, .L46+16
 1765 0042 0095     		str	r5, [sp, #0]
 1766 0044 0398     		ldr	r0, [sp, #12]
 1767 0046 FFF7FEFF 		bl	chThdCreateStatic
 1768              	.LVL167:
 1769              		.loc 1 208 0
 1770 004a F169     		ldr	r1, [r6, #28]
 1771 004c D8F80860 		ldr	r6, [r8, #8]
 1772 0050 8A68     		ldr	r2, [r1, #8]
 1773 0052 144B     		ldr	r3, .L46+20
 1774              		.loc 1 207 0
 1775 0054 6060     		str	r0, [r4, #4]
 1776              		.loc 1 208 0
 1777 0056 4FF49871 		mov	r1, #304
 1778 005a 033A     		subs	r2, r2, #3
 1779 005c 0095     		str	r5, [sp, #0]
 1780 005e 3046     		mov	r0, r6
 1781 0060 FFF7FEFF 		bl	chThdCreateStatic
 1782              	.LVL168:
 1783 0064 A060     		str	r0, [r4, #8]
 1784              		.loc 1 209 0
 1785 0066 FFF7FEFF 		bl	test_wait_threads
 1786              	.LVL169:
 1787              		.loc 1 210 0
 1788 006a 0120     		movs	r0, #1
 1789 006c 0E49     		ldr	r1, .L46+24
 1790 006e FFF7FEFF 		bl	_test_assert_sequence
 1791              	.LVL170:
 1792 0072 10B1     		cbz	r0, .L45
 1793              		.loc 1 212 0
 1794 0074 04B0     		add	sp, sp, #16
 1795 0076 BDE8F081 		pop	{r4, r5, r6, r7, r8, pc}
 1796              	.L45:
 1797              		.loc 1 211 0
 1798 007a 0220     		movs	r0, #2
 1799 007c 07F16401 		add	r1, r7, #100
 1800 0080 07F16902 		add	r2, r7, #105
 1801              		.loc 1 212 0
 1802 0084 04B0     		add	sp, sp, #16
 1803 0086 BDE8F041 		pop	{r4, r5, r6, r7, r8, lr}
 1804              		.loc 1 211 0
 1805 008a FFF7FEBF 		b	_test_assert_time_window
 1806              	.LVL171:
 1807              	.L47:
 1808 008e 00BF     		.align	2
 1809              	.L46:
 1810 0090 00000000 		.word	rlist
 1811 0094 00000000 		.word	threads
 1812 0098 00000000 		.word	vtlist
 1813 009c 00000000 		.word	thread2H
 1814 00a0 00000000 		.word	thread2M
 1815 00a4 00000000 		.word	thread2L
 1816 00a8 0C000000 		.word	.LC3
 1817 00ac 00000000 		.word	wa
 1818              		.cfi_endproc
ARM GAS  /tmp/cclctdzS.s 			page 33


 1819              	.LFE14:
 1820              		.size	mtx2_execute, .-mtx2_execute
 1821              		.section	.text.thread3HH,"ax",%progbits
 1822              		.align	2
 1823              		.p2align 4,,15
 1824              		.thumb
 1825              		.thumb_func
 1826              		.type	thread3HH, %function
 1827              	thread3HH:
 1828              	.LFB20:
 1829              		.loc 1 308 0
 1830              		.cfi_startproc
 1831              		@ args = 0, pretend = 0, frame = 0
 1832              		@ frame_needed = 0, uses_anonymous_args = 0
 1833              	.LVL172:
 1834 0000 08B5     		push	{r3, lr}
 1835              	.LCFI26:
 1836              		.cfi_def_cfa_offset 8
 1837              		.cfi_offset 3, -8
 1838              		.cfi_offset 14, -4
 1839              		.loc 1 311 0
 1840 0002 3220     		movs	r0, #50
 1841              	.LVL173:
 1842 0004 FFF7FEFF 		bl	chThdSleep
 1843              	.LVL174:
 1844              		.loc 1 312 0
 1845 0008 40F20000 		movw	r0, #:lower16:.LANCHOR1
 1846 000c C0F20000 		movt	r0, #:upper16:.LANCHOR1
 1847 0010 FFF7FEFF 		bl	chMtxLock
 1848              	.LVL175:
 1849              		.loc 1 313 0
 1850 0014 0A20     		movs	r0, #10
 1851 0016 FFF7FEFF 		bl	test_cpu_pulse
 1852              	.LVL176:
 1853              		.loc 1 314 0
 1854 001a FFF7FEFF 		bl	chMtxUnlock
 1855              	.LVL177:
 1856              		.loc 1 315 0
 1857 001e 4120     		movs	r0, #65
 1858 0020 FFF7FEFF 		bl	test_emit_token
 1859              	.LVL178:
 1860              		.loc 1 317 0
 1861 0024 0020     		movs	r0, #0
 1862 0026 08BD     		pop	{r3, pc}
 1863              		.cfi_endproc
 1864              	.LFE20:
 1865              		.size	thread3HH, .-thread3HH
 1866 0028 AFF30080 		.section	.text.thread3H,"ax",%progbits
 1866      AFF30080 
 1867              		.align	2
 1868              		.p2align 4,,15
 1869              		.thumb
 1870              		.thumb_func
 1871              		.type	thread3H, %function
 1872              	thread3H:
 1873              	.LFB19:
 1874              		.loc 1 298 0
ARM GAS  /tmp/cclctdzS.s 			page 34


 1875              		.cfi_startproc
 1876              		@ args = 0, pretend = 0, frame = 0
 1877              		@ frame_needed = 0, uses_anonymous_args = 0
 1878              	.LVL179:
 1879 0000 08B5     		push	{r3, lr}
 1880              	.LCFI27:
 1881              		.cfi_def_cfa_offset 8
 1882              		.cfi_offset 3, -8
 1883              		.cfi_offset 14, -4
 1884              		.loc 1 301 0
 1885 0002 2820     		movs	r0, #40
 1886              	.LVL180:
 1887 0004 FFF7FEFF 		bl	chThdSleep
 1888              	.LVL181:
 1889              		.loc 1 302 0
 1890 0008 1420     		movs	r0, #20
 1891 000a FFF7FEFF 		bl	test_cpu_pulse
 1892              	.LVL182:
 1893              		.loc 1 303 0
 1894 000e 4220     		movs	r0, #66
 1895 0010 FFF7FEFF 		bl	test_emit_token
 1896              	.LVL183:
 1897              		.loc 1 305 0
 1898 0014 0020     		movs	r0, #0
 1899 0016 08BD     		pop	{r3, pc}
 1900              		.cfi_endproc
 1901              	.LFE19:
 1902              		.size	thread3H, .-thread3H
 1903 0018 AFF30080 		.section	.text.thread3M,"ax",%progbits
 1903      AFF30080 
 1904              		.align	2
 1905              		.p2align 4,,15
 1906              		.thumb
 1907              		.thumb_func
 1908              		.type	thread3M, %function
 1909              	thread3M:
 1910              	.LFB18:
 1911              		.loc 1 286 0
 1912              		.cfi_startproc
 1913              		@ args = 0, pretend = 0, frame = 0
 1914              		@ frame_needed = 0, uses_anonymous_args = 0
 1915              	.LVL184:
 1916 0000 08B5     		push	{r3, lr}
 1917              	.LCFI28:
 1918              		.cfi_def_cfa_offset 8
 1919              		.cfi_offset 3, -8
 1920              		.cfi_offset 14, -4
 1921              		.loc 1 289 0
 1922 0002 1420     		movs	r0, #20
 1923              	.LVL185:
 1924 0004 FFF7FEFF 		bl	chThdSleep
 1925              	.LVL186:
 1926              		.loc 1 290 0
 1927 0008 40F20000 		movw	r0, #:lower16:.LANCHOR1
 1928 000c C0F20000 		movt	r0, #:upper16:.LANCHOR1
 1929 0010 FFF7FEFF 		bl	chMtxLock
 1930              	.LVL187:
ARM GAS  /tmp/cclctdzS.s 			page 35


 1931              		.loc 1 291 0
 1932 0014 0A20     		movs	r0, #10
 1933 0016 FFF7FEFF 		bl	test_cpu_pulse
 1934              	.LVL188:
 1935              		.loc 1 292 0
 1936 001a FFF7FEFF 		bl	chMtxUnlock
 1937              	.LVL189:
 1938              		.loc 1 293 0
 1939 001e 4320     		movs	r0, #67
 1940 0020 FFF7FEFF 		bl	test_emit_token
 1941              	.LVL190:
 1942              		.loc 1 295 0
 1943 0024 0020     		movs	r0, #0
 1944 0026 08BD     		pop	{r3, pc}
 1945              		.cfi_endproc
 1946              	.LFE18:
 1947              		.size	thread3M, .-thread3M
 1948 0028 AFF30080 		.section	.text.thread3L,"ax",%progbits
 1948      AFF30080 
 1949              		.align	2
 1950              		.p2align 4,,15
 1951              		.thumb
 1952              		.thumb_func
 1953              		.type	thread3L, %function
 1954              	thread3L:
 1955              	.LFB17:
 1956              		.loc 1 270 0
 1957              		.cfi_startproc
 1958              		@ args = 0, pretend = 0, frame = 0
 1959              		@ frame_needed = 0, uses_anonymous_args = 0
 1960              	.LVL191:
 1961 0000 08B5     		push	{r3, lr}
 1962              	.LCFI29:
 1963              		.cfi_def_cfa_offset 8
 1964              		.cfi_offset 3, -8
 1965              		.cfi_offset 14, -4
 1966              		.loc 1 273 0
 1967 0002 0A20     		movs	r0, #10
 1968              	.LVL192:
 1969 0004 FFF7FEFF 		bl	chThdSleep
 1970              	.LVL193:
 1971              		.loc 1 274 0
 1972 0008 40F20000 		movw	r0, #:lower16:.LANCHOR1
 1973 000c C0F20000 		movt	r0, #:upper16:.LANCHOR1
 1974 0010 FFF7FEFF 		bl	chMtxLock
 1975              	.LVL194:
 1976              		.loc 1 275 0
 1977 0014 1420     		movs	r0, #20
 1978 0016 FFF7FEFF 		bl	test_cpu_pulse
 1979              	.LVL195:
 1980              		.loc 1 276 0
 1981 001a 40F20000 		movw	r0, #:lower16:.LANCHOR2
 1982 001e C0F20000 		movt	r0, #:upper16:.LANCHOR2
 1983 0022 FFF7FEFF 		bl	chMtxLock
 1984              	.LVL196:
 1985              		.loc 1 277 0
 1986 0026 0A20     		movs	r0, #10
ARM GAS  /tmp/cclctdzS.s 			page 36


 1987 0028 FFF7FEFF 		bl	test_cpu_pulse
 1988              	.LVL197:
 1989              		.loc 1 278 0
 1990 002c FFF7FEFF 		bl	chMtxUnlock
 1991              	.LVL198:
 1992              		.loc 1 279 0
 1993 0030 0A20     		movs	r0, #10
 1994 0032 FFF7FEFF 		bl	test_cpu_pulse
 1995              	.LVL199:
 1996              		.loc 1 280 0
 1997 0036 FFF7FEFF 		bl	chMtxUnlock
 1998              	.LVL200:
 1999              		.loc 1 281 0
 2000 003a 4420     		movs	r0, #68
 2001 003c FFF7FEFF 		bl	test_emit_token
 2002              	.LVL201:
 2003              		.loc 1 283 0
 2004 0040 0020     		movs	r0, #0
 2005 0042 08BD     		pop	{r3, pc}
 2006              		.cfi_endproc
 2007              	.LFE17:
 2008              		.size	thread3L, .-thread3L
 2009 0044 AFF30080 		.section	.text.thread3LL,"ax",%progbits
 2009      AFF30080 
 2009      AFF30080 
 2010              		.align	2
 2011              		.p2align 4,,15
 2012              		.thumb
 2013              		.thumb_func
 2014              		.type	thread3LL, %function
 2015              	thread3LL:
 2016              	.LFB16:
 2017              		.loc 1 259 0
 2018              		.cfi_startproc
 2019              		@ args = 0, pretend = 0, frame = 0
 2020              		@ frame_needed = 0, uses_anonymous_args = 0
 2021              	.LVL202:
 2022              		.loc 1 262 0
 2023 0000 40F20000 		movw	r0, #:lower16:.LANCHOR2
 2024              	.LVL203:
 2025              		.loc 1 259 0
 2026 0004 08B5     		push	{r3, lr}
 2027              	.LCFI30:
 2028              		.cfi_def_cfa_offset 8
 2029              		.cfi_offset 3, -8
 2030              		.cfi_offset 14, -4
 2031              		.loc 1 262 0
 2032 0006 C0F20000 		movt	r0, #:upper16:.LANCHOR2
 2033 000a FFF7FEFF 		bl	chMtxLock
 2034              	.LVL204:
 2035              		.loc 1 263 0
 2036 000e 1E20     		movs	r0, #30
 2037 0010 FFF7FEFF 		bl	test_cpu_pulse
 2038              	.LVL205:
 2039              		.loc 1 264 0
 2040 0014 FFF7FEFF 		bl	chMtxUnlock
 2041              	.LVL206:
ARM GAS  /tmp/cclctdzS.s 			page 37


 2042              		.loc 1 265 0
 2043 0018 4520     		movs	r0, #69
 2044 001a FFF7FEFF 		bl	test_emit_token
 2045              	.LVL207:
 2046              		.loc 1 267 0
 2047 001e 0020     		movs	r0, #0
 2048 0020 08BD     		pop	{r3, pc}
 2049              		.cfi_endproc
 2050              	.LFE16:
 2051              		.size	thread3LL, .-thread3LL
 2052 0022 00BFAFF3 		.section	.text.thread2L,"ax",%progbits
 2052      0080AFF3 
 2052      0080AFF3 
 2052      0080
 2053              		.align	2
 2054              		.p2align 4,,15
 2055              		.thumb
 2056              		.thumb_func
 2057              		.type	thread2L, %function
 2058              	thread2L:
 2059              	.LFB11:
 2060              		.loc 1 168 0
 2061              		.cfi_startproc
 2062              		@ args = 0, pretend = 0, frame = 0
 2063              		@ frame_needed = 0, uses_anonymous_args = 0
 2064              	.LVL208:
 2065              		.loc 1 171 0
 2066 0000 40F20000 		movw	r0, #:lower16:.LANCHOR2
 2067              	.LVL209:
 2068              		.loc 1 168 0
 2069 0004 08B5     		push	{r3, lr}
 2070              	.LCFI31:
 2071              		.cfi_def_cfa_offset 8
 2072              		.cfi_offset 3, -8
 2073              		.cfi_offset 14, -4
 2074              		.loc 1 171 0
 2075 0006 C0F20000 		movt	r0, #:upper16:.LANCHOR2
 2076 000a FFF7FEFF 		bl	chMtxLock
 2077              	.LVL210:
 2078              		.loc 1 172 0
 2079 000e 2820     		movs	r0, #40
 2080 0010 FFF7FEFF 		bl	test_cpu_pulse
 2081              	.LVL211:
 2082              		.loc 1 173 0
 2083 0014 FFF7FEFF 		bl	chMtxUnlock
 2084              	.LVL212:
 2085              		.loc 1 174 0
 2086 0018 0A20     		movs	r0, #10
 2087 001a FFF7FEFF 		bl	test_cpu_pulse
 2088              	.LVL213:
 2089              		.loc 1 175 0
 2090 001e 4320     		movs	r0, #67
 2091 0020 FFF7FEFF 		bl	test_emit_token
 2092              	.LVL214:
 2093              		.loc 1 177 0
 2094 0024 0020     		movs	r0, #0
 2095 0026 08BD     		pop	{r3, pc}
ARM GAS  /tmp/cclctdzS.s 			page 38


 2096              		.cfi_endproc
 2097              	.LFE11:
 2098              		.size	thread2L, .-thread2L
 2099 0028 AFF30080 		.section	.text.thread2M,"ax",%progbits
 2099      AFF30080 
 2100              		.align	2
 2101              		.p2align 4,,15
 2102              		.thumb
 2103              		.thumb_func
 2104              		.type	thread2M, %function
 2105              	thread2M:
 2106              	.LFB12:
 2107              		.loc 1 180 0
 2108              		.cfi_startproc
 2109              		@ args = 0, pretend = 0, frame = 0
 2110              		@ frame_needed = 0, uses_anonymous_args = 0
 2111              	.LVL215:
 2112 0000 08B5     		push	{r3, lr}
 2113              	.LCFI32:
 2114              		.cfi_def_cfa_offset 8
 2115              		.cfi_offset 3, -8
 2116              		.cfi_offset 14, -4
 2117              		.loc 1 183 0
 2118 0002 1420     		movs	r0, #20
 2119              	.LVL216:
 2120 0004 FFF7FEFF 		bl	chThdSleep
 2121              	.LVL217:
 2122              		.loc 1 184 0
 2123 0008 2820     		movs	r0, #40
 2124 000a FFF7FEFF 		bl	test_cpu_pulse
 2125              	.LVL218:
 2126              		.loc 1 185 0
 2127 000e 4220     		movs	r0, #66
 2128 0010 FFF7FEFF 		bl	test_emit_token
 2129              	.LVL219:
 2130              		.loc 1 187 0
 2131 0014 0020     		movs	r0, #0
 2132 0016 08BD     		pop	{r3, pc}
 2133              		.cfi_endproc
 2134              	.LFE12:
 2135              		.size	thread2M, .-thread2M
 2136 0018 AFF30080 		.section	.text.thread2H,"ax",%progbits
 2136      AFF30080 
 2137              		.align	2
 2138              		.p2align 4,,15
 2139              		.thumb
 2140              		.thumb_func
 2141              		.type	thread2H, %function
 2142              	thread2H:
 2143              	.LFB13:
 2144              		.loc 1 190 0
 2145              		.cfi_startproc
 2146              		@ args = 0, pretend = 0, frame = 0
 2147              		@ frame_needed = 0, uses_anonymous_args = 0
 2148              	.LVL220:
 2149 0000 08B5     		push	{r3, lr}
 2150              	.LCFI33:
ARM GAS  /tmp/cclctdzS.s 			page 39


 2151              		.cfi_def_cfa_offset 8
 2152              		.cfi_offset 3, -8
 2153              		.cfi_offset 14, -4
 2154              		.loc 1 193 0
 2155 0002 2820     		movs	r0, #40
 2156              	.LVL221:
 2157 0004 FFF7FEFF 		bl	chThdSleep
 2158              	.LVL222:
 2159              		.loc 1 194 0
 2160 0008 40F20000 		movw	r0, #:lower16:.LANCHOR2
 2161 000c C0F20000 		movt	r0, #:upper16:.LANCHOR2
 2162 0010 FFF7FEFF 		bl	chMtxLock
 2163              	.LVL223:
 2164              		.loc 1 195 0
 2165 0014 0A20     		movs	r0, #10
 2166 0016 FFF7FEFF 		bl	test_cpu_pulse
 2167              	.LVL224:
 2168              		.loc 1 196 0
 2169 001a FFF7FEFF 		bl	chMtxUnlock
 2170              	.LVL225:
 2171              		.loc 1 197 0
 2172 001e 4120     		movs	r0, #65
 2173 0020 FFF7FEFF 		bl	test_emit_token
 2174              	.LVL226:
 2175              		.loc 1 199 0
 2176 0024 0020     		movs	r0, #0
 2177 0026 08BD     		pop	{r3, pc}
 2178              		.cfi_endproc
 2179              	.LFE13:
 2180              		.size	thread2H, .-thread2H
 2181              		.global	patternmtx
 2182              		.global	testmtx8
 2183              		.global	testmtx7
 2184              		.global	testmtx6
 2185              		.global	testmtx5
 2186              		.global	testmtx4
 2187              		.global	testmtx3
 2188              		.global	testmtx2
 2189              		.global	testmtx1
 2190 0028 AFF30080 		.section	.rodata.testmtx5,"a",%progbits
 2190      AFF30080 
 2191              		.align	2
 2192              		.type	testmtx5, %object
 2193              		.size	testmtx5, 16
 2194              	testmtx5:
 2195 0000 64000000 		.word	.LC10
 2196 0004 00000000 		.word	mtx5_setup
 2197 0008 00000000 		.word	0
 2198 000c 00000000 		.word	mtx5_execute
 2199              		.section	.rodata.testmtx6,"a",%progbits
 2200              		.align	2
 2201              		.type	testmtx6, %object
 2202              		.size	testmtx6, 16
 2203              	testmtx6:
 2204 0000 4C000000 		.word	.LC9
 2205 0004 00000000 		.word	mtx6_setup
 2206 0008 00000000 		.word	0
ARM GAS  /tmp/cclctdzS.s 			page 40


 2207 000c 00000000 		.word	mtx6_execute
 2208              		.section	.rodata.testmtx7,"a",%progbits
 2209              		.align	2
 2210              		.type	testmtx7, %object
 2211              		.size	testmtx7, 16
 2212              	testmtx7:
 2213 0000 34000000 		.word	.LC8
 2214 0004 00000000 		.word	mtx7_setup
 2215 0008 00000000 		.word	0
 2216 000c 00000000 		.word	mtx7_execute
 2217              		.section	.rodata.testmtx8,"a",%progbits
 2218              		.align	2
 2219              		.type	testmtx8, %object
 2220              		.size	testmtx8, 16
 2221              	testmtx8:
 2222 0000 20000000 		.word	.LC7
 2223 0004 00000000 		.word	mtx8_setup
 2224 0008 00000000 		.word	0
 2225 000c 00000000 		.word	mtx8_execute
 2226              		.section	.data.m1,"aw",%progbits
 2227              		.align	2
 2228              		.set	.LANCHOR2,. + 0
 2229              		.type	m1, %object
 2230              		.size	m1, 16
 2231              	m1:
 2232 0000 00000000 		.word	m1
 2233 0004 00000000 		.word	m1
 2234 0008 00000000 		.word	0
 2235 000c 00000000 		.word	0
 2236              		.section	.data.m2,"aw",%progbits
 2237              		.align	2
 2238              		.set	.LANCHOR1,. + 0
 2239              		.type	m2, %object
 2240              		.size	m2, 16
 2241              	m2:
 2242 0000 00000000 		.word	m2
 2243 0004 00000000 		.word	m2
 2244 0008 00000000 		.word	0
 2245 000c 00000000 		.word	0
 2246              		.section	.rodata.str1.4,"aMS",%progbits,1
 2247              		.align	2
 2248              	.LC0:
 2249 0000 4100     		.ascii	"A\000"
 2250 0002 0000     		.space	2
 2251              	.LC1:
 2252 0004 4300     		.ascii	"C\000"
 2253 0006 0000     		.space	2
 2254              	.LC2:
 2255 0008 4200     		.ascii	"B\000"
 2256 000a 0000     		.space	2
 2257              	.LC3:
 2258 000c 41424300 		.ascii	"ABC\000"
 2259              	.LC4:
 2260 0010 4500     		.ascii	"E\000"
 2261 0012 0000     		.space	2
 2262              	.LC5:
 2263 0014 4400     		.ascii	"D\000"
ARM GAS  /tmp/cclctdzS.s 			page 41


 2264 0016 0000     		.space	2
 2265              	.LC6:
 2266 0018 41424344 		.ascii	"ABCDE\000"
 2266      4500
 2267 001e 0000     		.space	2
 2268              	.LC7:
 2269 0020 436F6E64 		.ascii	"CondVar, boost test\000"
 2269      5661722C 
 2269      20626F6F 
 2269      73742074 
 2269      65737400 
 2270              	.LC8:
 2271 0034 436F6E64 		.ascii	"CondVar, broadcast test\000"
 2271      5661722C 
 2271      2062726F 
 2271      61646361 
 2271      73742074 
 2272              	.LC9:
 2273 004c 436F6E64 		.ascii	"CondVar, signal test\000"
 2273      5661722C 
 2273      20736967 
 2273      6E616C20 
 2273      74657374 
 2274 0061 000000   		.space	3
 2275              	.LC10:
 2276 0064 4D757465 		.ascii	"Mutexes, status\000"
 2276      7865732C 
 2276      20737461 
 2276      74757300 
 2277              	.LC11:
 2278 0074 4D757465 		.ascii	"Mutexes, priority return\000"
 2278      7865732C 
 2278      20707269 
 2278      6F726974 
 2278      79207265 
 2279 008d 000000   		.space	3
 2280              	.LC12:
 2281 0090 4D757465 		.ascii	"Mutexes, priority inheritance, complex case\000"
 2281      7865732C 
 2281      20707269 
 2281      6F726974 
 2281      7920696E 
 2282              	.LC13:
 2283 00bc 4D757465 		.ascii	"Mutexes, priority inheritance, simple case\000"
 2283      7865732C 
 2283      20707269 
 2283      6F726974 
 2283      7920696E 
 2284 00e7 00       		.space	1
 2285              	.LC14:
 2286 00e8 4D757465 		.ascii	"Mutexes, priority enqueuing test\000"
 2286      7865732C 
 2286      20707269 
 2286      6F726974 
 2286      7920656E 
 2287 0109 000000   		.section	.rodata.patternmtx,"a",%progbits
 2288              		.align	2
ARM GAS  /tmp/cclctdzS.s 			page 42


 2289              		.type	patternmtx, %object
 2290              		.size	patternmtx, 36
 2291              	patternmtx:
 2292 0000 00000000 		.word	testmtx1
 2293 0004 00000000 		.word	testmtx2
 2294 0008 00000000 		.word	testmtx3
 2295 000c 00000000 		.word	testmtx4
 2296 0010 00000000 		.word	testmtx5
 2297 0014 00000000 		.word	testmtx6
 2298 0018 00000000 		.word	testmtx7
 2299 001c 00000000 		.word	testmtx8
 2300 0020 00000000 		.word	0
 2301              		.section	.data.c1,"aw",%progbits
 2302              		.align	2
 2303              		.set	.LANCHOR0,. + 0
 2304              		.type	c1, %object
 2305              		.size	c1, 8
 2306              	c1:
 2307 0000 00000000 		.word	c1
 2308 0004 00000000 		.word	c1
 2309              		.section	.rodata.testmtx1,"a",%progbits
 2310              		.align	2
 2311              		.type	testmtx1, %object
 2312              		.size	testmtx1, 16
 2313              	testmtx1:
 2314 0000 E8000000 		.word	.LC14
 2315 0004 00000000 		.word	mtx1_setup
 2316 0008 00000000 		.word	0
 2317 000c 00000000 		.word	mtx1_execute
 2318              		.section	.rodata.testmtx2,"a",%progbits
 2319              		.align	2
 2320              		.type	testmtx2, %object
 2321              		.size	testmtx2, 16
 2322              	testmtx2:
 2323 0000 BC000000 		.word	.LC13
 2324 0004 00000000 		.word	mtx2_setup
 2325 0008 00000000 		.word	0
 2326 000c 00000000 		.word	mtx2_execute
 2327              		.section	.rodata.testmtx3,"a",%progbits
 2328              		.align	2
 2329              		.type	testmtx3, %object
 2330              		.size	testmtx3, 16
 2331              	testmtx3:
 2332 0000 90000000 		.word	.LC12
 2333 0004 00000000 		.word	mtx3_setup
 2334 0008 00000000 		.word	0
 2335 000c 00000000 		.word	mtx3_execute
 2336              		.section	.rodata.testmtx4,"a",%progbits
 2337              		.align	2
 2338              		.type	testmtx4, %object
 2339              		.size	testmtx4, 16
 2340              	testmtx4:
 2341 0000 74000000 		.word	.LC11
 2342 0004 00000000 		.word	mtx4_setup
 2343 0008 00000000 		.word	0
 2344 000c 00000000 		.word	mtx4_execute
 2345              		.text
ARM GAS  /tmp/cclctdzS.s 			page 43


 2346              	.Letext0:
 2347              		.file 2 "/opt/ARM/bin/../lib/gcc/arm-none-eabi/4.7.3/include/stddef.h"
 2348              		.file 3 "/opt/ARM/bin/../lib/gcc/arm-none-eabi/4.7.3/../../../../arm-none-eabi/include/stdint.h"
 2349              		.file 4 "../../ChibiOS_2.4.3/os/ports/GCC/ARMCMx/chtypes.h"
 2350              		.file 5 "../../ChibiOS_2.4.3/os/kernel/include/chlists.h"
 2351              		.file 6 "../../ChibiOS_2.4.3/os/kernel/include/chthreads.h"
 2352              		.file 7 "../../ChibiOS_2.4.3/os/ports/GCC/ARMCMx/chcore_v7m.h"
 2353              		.file 8 "../../ChibiOS_2.4.3/os/kernel/include/chvt.h"
 2354              		.file 9 "../../ChibiOS_2.4.3/os/kernel/include/chschd.h"
 2355              		.file 10 "../../ChibiOS_2.4.3/os/kernel/include/chmtx.h"
 2356              		.file 11 "../../ChibiOS_2.4.3/os/kernel/include/chcond.h"
 2357              		.file 12 "../../ChibiOS_2.4.3/test/test.h"