ARM GAS  /tmp/cceauhuo.s 			page 1


   1              		.syntax unified
   2              		.cpu cortex-m4
   3              		.fpu softvfp
   4              		.eabi_attribute 20, 1
   5              		.eabi_attribute 21, 1
   6              		.eabi_attribute 23, 3
   7              		.eabi_attribute 24, 1
   8              		.eabi_attribute 25, 1
   9              		.eabi_attribute 26, 1
  10              		.eabi_attribute 30, 2
  11              		.eabi_attribute 34, 1
  12              		.eabi_attribute 18, 4
  13              		.thumb
  14              		.file	"chevents.c"
  15              		.text
  16              	.Ltext0:
  17              		.cfi_sections	.debug_frame
  18              		.section	.text.chEvtRegisterMask,"ax",%progbits
  19              		.align	2
  20              		.p2align 4,,15
  21              		.global	chEvtRegisterMask
  22              		.thumb
  23              		.thumb_func
  24              		.type	chEvtRegisterMask, %function
  25              	chEvtRegisterMask:
  26              	.LFB7:
  27              		.file 1 "../../ChibiOS_2.4.3/os/kernel/src/chevents.c"
  28              		.loc 1 82 0
  29              		.cfi_startproc
  30              		@ args = 0, pretend = 0, frame = 0
  31              		@ frame_needed = 0, uses_anonymous_args = 0
  32              		@ link register save eliminated.
  33              	.LVL0:
  34 0000 30B4     		push	{r4, r5}
  35              	.LCFI0:
  36              		.cfi_def_cfa_offset 8
  37              		.cfi_offset 4, -8
  38              		.cfi_offset 5, -4
  39              	.LBB2:
  40              		.loc 1 86 0
  41 0002 2023     		movs	r3, #32
  42              	.LVL1:
  43              	@ 86 "../../ChibiOS_2.4.3/os/kernel/src/chevents.c" 1
  44 0004 83F31188 		msr     BASEPRI, r3
  45              	@ 0 "" 2
  46              	.LVL2:
  47              		.thumb
  48              	.LBE2:
  49              		.loc 1 89 0
  50 0008 40F20003 		movw	r3, #:lower16:rlist
  51              	.LVL3:
  52 000c C0F20003 		movt	r3, #:upper16:rlist
  53              		.loc 1 87 0
  54 0010 0568     		ldr	r5, [r0, #0]
  55              		.loc 1 89 0
  56 0012 DC69     		ldr	r4, [r3, #28]
  57              		.loc 1 87 0
ARM GAS  /tmp/cceauhuo.s 			page 2


  58 0014 0D60     		str	r5, [r1, #0]
  59              	.LBB3:
  60              		.loc 1 91 0
  61 0016 0023     		movs	r3, #0
  62              	.LVL4:
  63              	.LBE3:
  64              		.loc 1 88 0
  65 0018 0160     		str	r1, [r0, #0]
  66              		.loc 1 89 0
  67 001a 4C60     		str	r4, [r1, #4]
  68              		.loc 1 90 0
  69 001c 8A60     		str	r2, [r1, #8]
  70              	.LBB4:
  71              		.loc 1 91 0
  72              	@ 91 "../../ChibiOS_2.4.3/os/kernel/src/chevents.c" 1
  73 001e 83F31188 		msr     BASEPRI, r3
  74              	@ 0 "" 2
  75              	.LVL5:
  76              		.thumb
  77              	.LBE4:
  78              		.loc 1 92 0
  79 0022 30BC     		pop	{r4, r5}
  80 0024 7047     		bx	lr
  81              		.cfi_endproc
  82              	.LFE7:
  83              		.size	chEvtRegisterMask, .-chEvtRegisterMask
  84 0026 00BFAFF3 		.section	.text.chEvtUnregister,"ax",%progbits
  84      0080AFF3 
  84      0080
  85              		.align	2
  86              		.p2align 4,,15
  87              		.global	chEvtUnregister
  88              		.thumb
  89              		.thumb_func
  90              		.type	chEvtUnregister, %function
  91              	chEvtUnregister:
  92              	.LFB8:
  93              		.loc 1 107 0
  94              		.cfi_startproc
  95              		@ args = 0, pretend = 0, frame = 0
  96              		@ frame_needed = 0, uses_anonymous_args = 0
  97              		@ link register save eliminated.
  98              	.LVL6:
  99              	.LBB5:
 100              		.loc 1 113 0
 101 0000 2023     		movs	r3, #32
 102              	.LVL7:
 103              	@ 113 "../../ChibiOS_2.4.3/os/kernel/src/chevents.c" 1
 104 0002 83F31188 		msr     BASEPRI, r3
 105              	@ 0 "" 2
 106              	.LVL8:
 107              		.thumb
 108              	.LBE5:
 109              		.loc 1 112 0
 110 0006 0246     		mov	r2, r0
 111              		.loc 1 114 0
 112 0008 00E0     		b	.L3
ARM GAS  /tmp/cceauhuo.s 			page 3


 113              	.LVL9:
 114              	.L6:
 115              		.loc 1 115 0
 116 000a 1A46     		mov	r2, r3
 117              	.LVL10:
 118              	.L3:
 119              		.loc 1 114 0 discriminator 1
 120 000c 1368     		ldr	r3, [r2, #0]
 121              	.LVL11:
 122 000e 8342     		cmp	r3, r0
 123 0010 03D0     		beq	.L4
 124              		.loc 1 115 0
 125 0012 9942     		cmp	r1, r3
 126 0014 F9D1     		bne	.L6
 127              		.loc 1 116 0
 128 0016 0868     		ldr	r0, [r1, #0]
 129              	.LVL12:
 130 0018 1060     		str	r0, [r2, #0]
 131              	.L4:
 132              	.LBB6:
 133              		.loc 1 121 0
 134 001a 0023     		movs	r3, #0
 135              	.LVL13:
 136              	@ 121 "../../ChibiOS_2.4.3/os/kernel/src/chevents.c" 1
 137 001c 83F31188 		msr     BASEPRI, r3
 138              	@ 0 "" 2
 139              	.LVL14:
 140              		.thumb
 141 0020 7047     		bx	lr
 142              	.LBE6:
 143              		.cfi_endproc
 144              	.LFE8:
 145              		.size	chEvtUnregister, .-chEvtUnregister
 146 0022 00BFAFF3 		.section	.text.chEvtClearFlags,"ax",%progbits
 146      0080AFF3 
 146      0080AFF3 
 146      0080
 147              		.align	2
 148              		.p2align 4,,15
 149              		.global	chEvtClearFlags
 150              		.thumb
 151              		.thumb_func
 152              		.type	chEvtClearFlags, %function
 153              	chEvtClearFlags:
 154              	.LFB9:
 155              		.loc 1 132 0
 156              		.cfi_startproc
 157              		@ args = 0, pretend = 0, frame = 0
 158              		@ frame_needed = 0, uses_anonymous_args = 0
 159              		@ link register save eliminated.
 160              	.LVL15:
 161 0000 10B4     		push	{r4}
 162              	.LCFI1:
 163              		.cfi_def_cfa_offset 4
 164              		.cfi_offset 4, -4
 165              	.LBB7:
 166              		.loc 1 135 0
ARM GAS  /tmp/cceauhuo.s 			page 4


 167 0002 2023     		movs	r3, #32
 168              	.LVL16:
 169              	@ 135 "../../ChibiOS_2.4.3/os/kernel/src/chevents.c" 1
 170 0004 83F31188 		msr     BASEPRI, r3
 171              	@ 0 "" 2
 172              	.LVL17:
 173              		.thumb
 174              	.LBE7:
 175              		.loc 1 137 0
 176 0008 40F20002 		movw	r2, #:lower16:rlist
 177 000c C0F20002 		movt	r2, #:upper16:rlist
 178              	.LBB8:
 179              		.loc 1 140 0
 180 0010 0023     		movs	r3, #0
 181              	.LVL18:
 182              	.LBE8:
 183              		.loc 1 137 0
 184 0012 D169     		ldr	r1, [r2, #28]
 185 0014 8A6B     		ldr	r2, [r1, #56]
 186              	.LVL19:
 187              		.loc 1 138 0
 188 0016 22EA0004 		bic	r4, r2, r0
 189 001a 8C63     		str	r4, [r1, #56]
 190              	.LBB9:
 191              		.loc 1 140 0
 192              	@ 140 "../../ChibiOS_2.4.3/os/kernel/src/chevents.c" 1
 193 001c 83F31188 		msr     BASEPRI, r3
 194              	@ 0 "" 2
 195              	.LVL20:
 196              		.thumb
 197              	.LBE9:
 198              		.loc 1 142 0
 199 0020 1040     		ands	r0, r0, r2
 200              	.LVL21:
 201 0022 10BC     		pop	{r4}
 202 0024 7047     		bx	lr
 203              		.cfi_endproc
 204              	.LFE9:
 205              		.size	chEvtClearFlags, .-chEvtClearFlags
 206 0026 00BFAFF3 		.section	.text.chEvtAddFlags,"ax",%progbits
 206      0080AFF3 
 206      0080
 207              		.align	2
 208              		.p2align 4,,15
 209              		.global	chEvtAddFlags
 210              		.thumb
 211              		.thumb_func
 212              		.type	chEvtAddFlags, %function
 213              	chEvtAddFlags:
 214              	.LFB10:
 215              		.loc 1 153 0
 216              		.cfi_startproc
 217              		@ args = 0, pretend = 0, frame = 0
 218              		@ frame_needed = 0, uses_anonymous_args = 0
 219              		@ link register save eliminated.
 220              	.LVL22:
 221              	.LBB10:
ARM GAS  /tmp/cceauhuo.s 			page 5


 222              		.loc 1 155 0
 223 0000 2023     		movs	r3, #32
 224              	.LVL23:
 225              	@ 155 "../../ChibiOS_2.4.3/os/kernel/src/chevents.c" 1
 226 0002 83F31188 		msr     BASEPRI, r3
 227              	@ 0 "" 2
 228              	.LVL24:
 229              		.thumb
 230              	.LBE10:
 231              		.loc 1 157 0
 232 0006 40F20002 		movw	r2, #:lower16:rlist
 233 000a C0F20002 		movt	r2, #:upper16:rlist
 234              	.LBB11:
 235              		.loc 1 159 0
 236 000e 0023     		movs	r3, #0
 237              	.LVL25:
 238              	.LBE11:
 239              		.loc 1 157 0
 240 0010 D269     		ldr	r2, [r2, #28]
 241 0012 916B     		ldr	r1, [r2, #56]
 242 0014 0843     		orrs	r0, r0, r1
 243              	.LVL26:
 244 0016 9063     		str	r0, [r2, #56]
 245              	.LVL27:
 246              	.LBB12:
 247              		.loc 1 159 0
 248              	@ 159 "../../ChibiOS_2.4.3/os/kernel/src/chevents.c" 1
 249 0018 83F31188 		msr     BASEPRI, r3
 250              	@ 0 "" 2
 251              	.LVL28:
 252              		.thumb
 253              	.LBE12:
 254              		.loc 1 161 0
 255 001c 7047     		bx	lr
 256              		.cfi_endproc
 257              	.LFE10:
 258              		.size	chEvtAddFlags, .-chEvtAddFlags
 259 001e 00BF     		.section	.text.chEvtSignalFlagsI,"ax",%progbits
 260              		.align	2
 261              		.p2align 4,,15
 262              		.global	chEvtSignalFlagsI
 263              		.thumb
 264              		.thumb_func
 265              		.type	chEvtSignalFlagsI, %function
 266              	chEvtSignalFlagsI:
 267              	.LFB12:
 268              		.loc 1 193 0
 269              		.cfi_startproc
 270              		@ args = 0, pretend = 0, frame = 0
 271              		@ frame_needed = 0, uses_anonymous_args = 0
 272              	.LVL29:
 273 0000 08B5     		push	{r3, lr}
 274              	.LCFI2:
 275              		.cfi_def_cfa_offset 8
 276              		.cfi_offset 3, -8
 277              		.cfi_offset 14, -4
 278              		.loc 1 198 0
ARM GAS  /tmp/cceauhuo.s 			page 6


 279 0002 826B     		ldr	r2, [r0, #56]
 280              		.loc 1 200 0
 281 0004 037F     		ldrb	r3, [r0, #28]	@ zero_extendqisi2
 282              		.loc 1 198 0
 283 0006 1143     		orrs	r1, r1, r2
 284              	.LVL30:
 285              		.loc 1 200 0
 286 0008 082B     		cmp	r3, #8
 287              		.loc 1 198 0
 288 000a 8163     		str	r1, [r0, #56]
 289              		.loc 1 200 0
 290 000c 0BD0     		beq	.L14
 291              		.loc 1 201 0
 292 000e 092B     		cmp	r3, #9
 293 0010 00D0     		beq	.L15
 294              	.L10:
 295 0012 08BD     		pop	{r3, pc}
 296              	.L15:
 297              		.loc 1 203 0
 298 0014 426A     		ldr	r2, [r0, #36]
 299 0016 1140     		ands	r1, r1, r2
 300              		.loc 1 202 0
 301 0018 8A42     		cmp	r2, r1
 302 001a FAD1     		bne	.L10
 303              	.L12:
 304              	.LVL31:
 305              	.LBB15:
 306              	.LBB16:
 307              		.loc 1 204 0
 308 001c FFF7FEFF 		bl	chSchReadyI
 309              	.LVL32:
 310 0020 0021     		movs	r1, #0
 311 0022 4162     		str	r1, [r0, #36]
 312 0024 08BD     		pop	{r3, pc}
 313              	.LVL33:
 314              	.L14:
 315              	.LBE16:
 316              	.LBE15:
 317              		.loc 1 201 0 discriminator 1
 318 0026 436A     		ldr	r3, [r0, #36]
 319              		.loc 1 200 0 discriminator 1
 320 0028 1942     		tst	r1, r3
 321 002a F7D1     		bne	.L12
 322 002c 08BD     		pop	{r3, pc}
 323              		.cfi_endproc
 324              	.LFE12:
 325              		.size	chEvtSignalFlagsI, .-chEvtSignalFlagsI
 326 002e 00BF     		.section	.text.chEvtSignalFlags,"ax",%progbits
 327              		.align	2
 328              		.p2align 4,,15
 329              		.global	chEvtSignalFlags
 330              		.thumb
 331              		.thumb_func
 332              		.type	chEvtSignalFlags, %function
 333              	chEvtSignalFlags:
 334              	.LFB11:
 335              		.loc 1 171 0
ARM GAS  /tmp/cceauhuo.s 			page 7


 336              		.cfi_startproc
 337              		@ args = 0, pretend = 0, frame = 0
 338              		@ frame_needed = 0, uses_anonymous_args = 0
 339              	.LVL34:
 340 0000 08B5     		push	{r3, lr}
 341              	.LCFI3:
 342              		.cfi_def_cfa_offset 8
 343              		.cfi_offset 3, -8
 344              		.cfi_offset 14, -4
 345              	.LBB17:
 346              		.loc 1 175 0
 347 0002 2023     		movs	r3, #32
 348              	.LVL35:
 349              	@ 175 "../../ChibiOS_2.4.3/os/kernel/src/chevents.c" 1
 350 0004 83F31188 		msr     BASEPRI, r3
 351              	@ 0 "" 2
 352              	.LVL36:
 353              		.thumb
 354              	.LBE17:
 355              		.loc 1 176 0
 356 0008 FFF7FEFF 		bl	chEvtSignalFlagsI
 357              	.LVL37:
 358              		.loc 1 177 0
 359 000c FFF7FEFF 		bl	chSchRescheduleS
 360              	.LVL38:
 361              	.LBB18:
 362              		.loc 1 178 0
 363 0010 0023     		movs	r3, #0
 364              	.LVL39:
 365              	@ 178 "../../ChibiOS_2.4.3/os/kernel/src/chevents.c" 1
 366 0012 83F31188 		msr     BASEPRI, r3
 367              	@ 0 "" 2
 368              	.LVL40:
 369              		.thumb
 370 0016 08BD     		pop	{r3, pc}
 371              	.LBE18:
 372              		.cfi_endproc
 373              	.LFE11:
 374              		.size	chEvtSignalFlags, .-chEvtSignalFlags
 375 0018 AFF30080 		.section	.text.chEvtBroadcastFlagsI,"ax",%progbits
 375      AFF30080 
 376              		.align	2
 377              		.p2align 4,,15
 378              		.global	chEvtBroadcastFlagsI
 379              		.thumb
 380              		.thumb_func
 381              		.type	chEvtBroadcastFlagsI, %function
 382              	chEvtBroadcastFlagsI:
 383              	.LFB14:
 384              		.loc 1 245 0
 385              		.cfi_startproc
 386              		@ args = 0, pretend = 0, frame = 0
 387              		@ frame_needed = 0, uses_anonymous_args = 0
 388              	.LVL41:
 389 0000 70B5     		push	{r4, r5, r6, lr}
 390              	.LCFI4:
 391              		.cfi_def_cfa_offset 16
ARM GAS  /tmp/cceauhuo.s 			page 8


 392              		.cfi_offset 4, -16
 393              		.cfi_offset 5, -12
 394              		.cfi_offset 6, -8
 395              		.cfi_offset 14, -4
 396              		.loc 1 251 0
 397 0002 0468     		ldr	r4, [r0, #0]
 398              	.LVL42:
 399              		.loc 1 252 0
 400 0004 A042     		cmp	r0, r4
 401              		.loc 1 245 0
 402 0006 0546     		mov	r5, r0
 403 0008 0E46     		mov	r6, r1
 404              		.loc 1 252 0
 405 000a 07D0     		beq	.L17
 406              	.LVL43:
 407              	.L21:
 408              		.loc 1 253 0
 409 000c A168     		ldr	r1, [r4, #8]
 410 000e 6068     		ldr	r0, [r4, #4]
 411 0010 3143     		orrs	r1, r1, r6
 412 0012 FFF7FEFF 		bl	chEvtSignalFlagsI
 413              	.LVL44:
 414              		.loc 1 254 0
 415 0016 2468     		ldr	r4, [r4, #0]
 416              	.LVL45:
 417              		.loc 1 252 0
 418 0018 A542     		cmp	r5, r4
 419 001a F7D1     		bne	.L21
 420              	.L17:
 421 001c 70BD     		pop	{r4, r5, r6, pc}
 422              		.cfi_endproc
 423              	.LFE14:
 424              		.size	chEvtBroadcastFlagsI, .-chEvtBroadcastFlagsI
 425 001e 00BF     		.section	.text.chEvtBroadcastFlags,"ax",%progbits
 426              		.align	2
 427              		.p2align 4,,15
 428              		.global	chEvtBroadcastFlags
 429              		.thumb
 430              		.thumb_func
 431              		.type	chEvtBroadcastFlags, %function
 432              	chEvtBroadcastFlags:
 433              	.LFB13:
 434              		.loc 1 220 0
 435              		.cfi_startproc
 436              		@ args = 0, pretend = 0, frame = 0
 437              		@ frame_needed = 0, uses_anonymous_args = 0
 438              	.LVL46:
 439 0000 08B5     		push	{r3, lr}
 440              	.LCFI5:
 441              		.cfi_def_cfa_offset 8
 442              		.cfi_offset 3, -8
 443              		.cfi_offset 14, -4
 444              	.LBB19:
 445              		.loc 1 222 0
 446 0002 2023     		movs	r3, #32
 447              	.LVL47:
 448              	@ 222 "../../ChibiOS_2.4.3/os/kernel/src/chevents.c" 1
ARM GAS  /tmp/cceauhuo.s 			page 9


 449 0004 83F31188 		msr     BASEPRI, r3
 450              	@ 0 "" 2
 451              	.LVL48:
 452              		.thumb
 453              	.LBE19:
 454              		.loc 1 223 0
 455 0008 FFF7FEFF 		bl	chEvtBroadcastFlagsI
 456              	.LVL49:
 457              		.loc 1 224 0
 458 000c FFF7FEFF 		bl	chSchRescheduleS
 459              	.LVL50:
 460              	.LBB20:
 461              		.loc 1 225 0
 462 0010 0023     		movs	r3, #0
 463              	.LVL51:
 464              	@ 225 "../../ChibiOS_2.4.3/os/kernel/src/chevents.c" 1
 465 0012 83F31188 		msr     BASEPRI, r3
 466              	@ 0 "" 2
 467              	.LVL52:
 468              		.thumb
 469 0016 08BD     		pop	{r3, pc}
 470              	.LBE20:
 471              		.cfi_endproc
 472              	.LFE13:
 473              		.size	chEvtBroadcastFlags, .-chEvtBroadcastFlags
 474 0018 AFF30080 		.section	.text.chEvtDispatch,"ax",%progbits
 474      AFF30080 
 475              		.align	2
 476              		.p2align 4,,15
 477              		.global	chEvtDispatch
 478              		.thumb
 479              		.thumb_func
 480              		.type	chEvtDispatch, %function
 481              	chEvtDispatch:
 482              	.LFB15:
 483              		.loc 1 267 0
 484              		.cfi_startproc
 485              		@ args = 0, pretend = 0, frame = 0
 486              		@ frame_needed = 0, uses_anonymous_args = 0
 487              	.LVL53:
 488 0000 F8B5     		push	{r3, r4, r5, r6, r7, lr}
 489              	.LCFI6:
 490              		.cfi_def_cfa_offset 24
 491              		.cfi_offset 3, -24
 492              		.cfi_offset 4, -20
 493              		.cfi_offset 5, -16
 494              		.cfi_offset 6, -12
 495              		.cfi_offset 7, -8
 496              		.cfi_offset 14, -4
 497              		.loc 1 273 0
 498 0002 0D46     		mov	r5, r1
 499              		.loc 1 267 0
 500 0004 0746     		mov	r7, r0
 501              		.loc 1 273 0
 502 0006 89B1     		cbz	r1, .L24
 503 0008 0024     		movs	r4, #0
 504              		.loc 1 274 0
ARM GAS  /tmp/cceauhuo.s 			page 10


 505 000a 0126     		movs	r6, #1
 506 000c 01E0     		b	.L25
 507              	.LVL54:
 508              	.L26:
 509              		.loc 1 281 0
 510 000e 0134     		adds	r4, r4, #1
 511              	.LVL55:
 512              		.loc 1 273 0
 513 0010 65B1     		cbz	r5, .L24
 514              	.LVL56:
 515              	.L25:
 516              		.loc 1 274 0
 517 0012 06FA04F3 		lsl	r3, r6, r4
 518 0016 2B42     		tst	r3, r5
 519 0018 F9D0     		beq	.L26
 520              		.loc 1 279 0
 521 001a 57F82420 		ldr	r2, [r7, r4, lsl #2]
 522 001e 2046     		mov	r0, r4
 523              		.loc 1 278 0
 524 0020 25EA0305 		bic	r5, r5, r3
 525              	.LVL57:
 526              		.loc 1 281 0
 527 0024 0134     		adds	r4, r4, #1
 528              		.loc 1 279 0
 529 0026 9047     		blx	r2
 530              	.LVL58:
 531              		.loc 1 273 0
 532 0028 002D     		cmp	r5, #0
 533 002a F2D1     		bne	.L25
 534              	.LVL59:
 535              	.L24:
 536 002c F8BD     		pop	{r3, r4, r5, r6, r7, pc}
 537              		.cfi_endproc
 538              	.LFE15:
 539              		.size	chEvtDispatch, .-chEvtDispatch
 540 002e 00BF     		.section	.text.chEvtWaitOne,"ax",%progbits
 541              		.align	2
 542              		.p2align 4,,15
 543              		.global	chEvtWaitOne
 544              		.thumb
 545              		.thumb_func
 546              		.type	chEvtWaitOne, %function
 547              	chEvtWaitOne:
 548              	.LFB16:
 549              		.loc 1 302 0
 550              		.cfi_startproc
 551              		@ args = 0, pretend = 0, frame = 0
 552              		@ frame_needed = 0, uses_anonymous_args = 0
 553              	.LVL60:
 554 0000 38B5     		push	{r3, r4, r5, lr}
 555              	.LCFI7:
 556              		.cfi_def_cfa_offset 16
 557              		.cfi_offset 3, -16
 558              		.cfi_offset 4, -12
 559              		.cfi_offset 5, -8
 560              		.cfi_offset 14, -4
 561              		.loc 1 303 0
ARM GAS  /tmp/cceauhuo.s 			page 11


 562 0002 0D4B     		ldr	r3, .L35
 563              		.loc 1 302 0
 564 0004 0546     		mov	r5, r0
 565              		.loc 1 303 0
 566 0006 DC69     		ldr	r4, [r3, #28]
 567              	.LVL61:
 568              	.LBB21:
 569              		.loc 1 306 0
 570 0008 2023     		movs	r3, #32
 571              	.LVL62:
 572              	@ 306 "../../ChibiOS_2.4.3/os/kernel/src/chevents.c" 1
 573 000a 83F31188 		msr     BASEPRI, r3
 574              	@ 0 "" 2
 575              	.LVL63:
 576              		.thumb
 577              	.LBE21:
 578              		.loc 1 308 0
 579 000e A16B     		ldr	r1, [r4, #56]
 580              	.LVL64:
 581 0010 10EA0102 		ands	r2, r0, r1
 582              	.LVL65:
 583 0014 06D1     		bne	.L34
 584              		.loc 1 309 0
 585 0016 6062     		str	r0, [r4, #36]
 586              		.loc 1 310 0
 587 0018 0820     		movs	r0, #8
 588              	.LVL66:
 589 001a FFF7FEFF 		bl	chSchGoSleepS
 590              	.LVL67:
 591              		.loc 1 311 0
 592 001e A16B     		ldr	r1, [r4, #56]
 593 0020 05EA0102 		and	r2, r5, r1
 594              	.LVL68:
 595              	.L34:
 596              		.loc 1 313 0
 597 0024 5042     		negs	r0, r2
 598 0026 1040     		ands	r0, r0, r2
 599              	.LVL69:
 600              		.loc 1 314 0
 601 0028 21EA0001 		bic	r1, r1, r0
 602 002c A163     		str	r1, [r4, #56]
 603              	.LBB22:
 604              		.loc 1 316 0
 605 002e 0023     		movs	r3, #0
 606              	.LVL70:
 607              	@ 316 "../../ChibiOS_2.4.3/os/kernel/src/chevents.c" 1
 608 0030 83F31188 		msr     BASEPRI, r3
 609              	@ 0 "" 2
 610              	.LVL71:
 611              		.thumb
 612              	.LBE22:
 613              		.loc 1 318 0
 614 0034 38BD     		pop	{r3, r4, r5, pc}
 615              	.L36:
 616 0036 00BF     		.align	2
 617              	.L35:
 618 0038 00000000 		.word	rlist
ARM GAS  /tmp/cceauhuo.s 			page 12


 619              		.cfi_endproc
 620              	.LFE16:
 621              		.size	chEvtWaitOne, .-chEvtWaitOne
 622 003c AFF30080 		.section	.text.chEvtWaitAny,"ax",%progbits
 623              		.align	2
 624              		.p2align 4,,15
 625              		.global	chEvtWaitAny
 626              		.thumb
 627              		.thumb_func
 628              		.type	chEvtWaitAny, %function
 629              	chEvtWaitAny:
 630              	.LFB17:
 631              		.loc 1 331 0
 632              		.cfi_startproc
 633              		@ args = 0, pretend = 0, frame = 0
 634              		@ frame_needed = 0, uses_anonymous_args = 0
 635              	.LVL72:
 636 0000 38B5     		push	{r3, r4, r5, lr}
 637              	.LCFI8:
 638              		.cfi_def_cfa_offset 16
 639              		.cfi_offset 3, -16
 640              		.cfi_offset 4, -12
 641              		.cfi_offset 5, -8
 642              		.cfi_offset 14, -4
 643              		.loc 1 332 0
 644 0002 0B4B     		ldr	r3, .L39
 645              		.loc 1 331 0
 646 0004 0546     		mov	r5, r0
 647              		.loc 1 332 0
 648 0006 DC69     		ldr	r4, [r3, #28]
 649              	.LVL73:
 650              	.LBB23:
 651              		.loc 1 335 0
 652 0008 2023     		movs	r3, #32
 653              	.LVL74:
 654              	@ 335 "../../ChibiOS_2.4.3/os/kernel/src/chevents.c" 1
 655 000a 83F31188 		msr     BASEPRI, r3
 656              	@ 0 "" 2
 657              	.LVL75:
 658              		.thumb
 659              	.LBE23:
 660              		.loc 1 337 0
 661 000e A16B     		ldr	r1, [r4, #56]
 662              	.LVL76:
 663 0010 0840     		ands	r0, r0, r1
 664              	.LVL77:
 665 0012 06D1     		bne	.L38
 666              		.loc 1 339 0
 667 0014 0820     		movs	r0, #8
 668              	.LVL78:
 669              		.loc 1 338 0
 670 0016 6562     		str	r5, [r4, #36]
 671              		.loc 1 339 0
 672 0018 FFF7FEFF 		bl	chSchGoSleepS
 673              	.LVL79:
 674              		.loc 1 340 0
 675 001c A16B     		ldr	r1, [r4, #56]
ARM GAS  /tmp/cceauhuo.s 			page 13


 676 001e 05EA0100 		and	r0, r5, r1
 677              	.LVL80:
 678              	.L38:
 679              		.loc 1 342 0
 680 0022 21EA0001 		bic	r1, r1, r0
 681 0026 A163     		str	r1, [r4, #56]
 682              	.LBB24:
 683              		.loc 1 344 0
 684 0028 0023     		movs	r3, #0
 685              	.LVL81:
 686              	@ 344 "../../ChibiOS_2.4.3/os/kernel/src/chevents.c" 1
 687 002a 83F31188 		msr     BASEPRI, r3
 688              	@ 0 "" 2
 689              	.LVL82:
 690              		.thumb
 691              	.LBE24:
 692              		.loc 1 346 0
 693 002e 38BD     		pop	{r3, r4, r5, pc}
 694              	.L40:
 695              		.align	2
 696              	.L39:
 697 0030 00000000 		.word	rlist
 698              		.cfi_endproc
 699              	.LFE17:
 700              		.size	chEvtWaitAny, .-chEvtWaitAny
 701 0034 AFF30080 		.section	.text.chEvtWaitAll,"ax",%progbits
 701      AFF30080 
 701      AFF30080 
 702              		.align	2
 703              		.p2align 4,,15
 704              		.global	chEvtWaitAll
 705              		.thumb
 706              		.thumb_func
 707              		.type	chEvtWaitAll, %function
 708              	chEvtWaitAll:
 709              	.LFB18:
 710              		.loc 1 359 0
 711              		.cfi_startproc
 712              		@ args = 0, pretend = 0, frame = 0
 713              		@ frame_needed = 0, uses_anonymous_args = 0
 714              	.LVL83:
 715 0000 38B5     		push	{r3, r4, r5, lr}
 716              	.LCFI9:
 717              		.cfi_def_cfa_offset 16
 718              		.cfi_offset 3, -16
 719              		.cfi_offset 4, -12
 720              		.cfi_offset 5, -8
 721              		.cfi_offset 14, -4
 722              		.loc 1 360 0
 723 0002 0C4B     		ldr	r3, .L43
 724              		.loc 1 359 0
 725 0004 0446     		mov	r4, r0
 726              		.loc 1 360 0
 727 0006 DD69     		ldr	r5, [r3, #28]
 728              	.LVL84:
 729              	.LBB25:
 730              		.loc 1 362 0
ARM GAS  /tmp/cceauhuo.s 			page 14


 731 0008 2023     		movs	r3, #32
 732              	.LVL85:
 733              	@ 362 "../../ChibiOS_2.4.3/os/kernel/src/chevents.c" 1
 734 000a 83F31188 		msr     BASEPRI, r3
 735              	@ 0 "" 2
 736              	.LVL86:
 737              		.thumb
 738              	.LBE25:
 739              		.loc 1 364 0
 740 000e A86B     		ldr	r0, [r5, #56]
 741              	.LVL87:
 742 0010 04EA0002 		and	r2, r4, r0
 743 0014 A242     		cmp	r2, r4
 744 0016 04D0     		beq	.L42
 745              		.loc 1 366 0
 746 0018 0920     		movs	r0, #9
 747              		.loc 1 365 0
 748 001a 6C62     		str	r4, [r5, #36]
 749              		.loc 1 366 0
 750 001c FFF7FEFF 		bl	chSchGoSleepS
 751              	.LVL88:
 752 0020 A86B     		ldr	r0, [r5, #56]
 753              	.LVL89:
 754              	.L42:
 755              		.loc 1 368 0
 756 0022 20EA0400 		bic	r0, r0, r4
 757 0026 A863     		str	r0, [r5, #56]
 758              	.LBB26:
 759              		.loc 1 370 0
 760 0028 0023     		movs	r3, #0
 761              	.LVL90:
 762              	@ 370 "../../ChibiOS_2.4.3/os/kernel/src/chevents.c" 1
 763 002a 83F31188 		msr     BASEPRI, r3
 764              	@ 0 "" 2
 765              	.LVL91:
 766              		.thumb
 767              	.LBE26:
 768              		.loc 1 372 0
 769 002e 2046     		mov	r0, r4
 770 0030 38BD     		pop	{r3, r4, r5, pc}
 771              	.L44:
 772 0032 00BF     		.align	2
 773              	.L43:
 774 0034 00000000 		.word	rlist
 775              		.cfi_endproc
 776              	.LFE18:
 777              		.size	chEvtWaitAll, .-chEvtWaitAll
 778 0038 AFF30080 		.section	.text.chEvtWaitOneTimeout,"ax",%progbits
 778      AFF30080 
 779              		.align	2
 780              		.p2align 4,,15
 781              		.global	chEvtWaitOneTimeout
 782              		.thumb
 783              		.thumb_func
 784              		.type	chEvtWaitOneTimeout, %function
 785              	chEvtWaitOneTimeout:
 786              	.LFB19:
ARM GAS  /tmp/cceauhuo.s 			page 15


 787              		.loc 1 398 0
 788              		.cfi_startproc
 789              		@ args = 0, pretend = 0, frame = 0
 790              		@ frame_needed = 0, uses_anonymous_args = 0
 791              	.LVL92:
 792              		.loc 1 399 0
 793 0000 114B     		ldr	r3, .L51
 794              		.loc 1 398 0
 795 0002 70B5     		push	{r4, r5, r6, lr}
 796              	.LCFI10:
 797              		.cfi_def_cfa_offset 16
 798              		.cfi_offset 4, -16
 799              		.cfi_offset 5, -12
 800              		.cfi_offset 6, -8
 801              		.cfi_offset 14, -4
 802              		.loc 1 399 0
 803 0004 DE69     		ldr	r6, [r3, #28]
 804              	.LVL93:
 805              		.loc 1 398 0
 806 0006 0546     		mov	r5, r0
 807              	.LBB27:
 808              		.loc 1 402 0
 809 0008 2023     		movs	r3, #32
 810              	.LVL94:
 811              	@ 402 "../../ChibiOS_2.4.3/os/kernel/src/chevents.c" 1
 812 000a 83F31188 		msr     BASEPRI, r3
 813              	@ 0 "" 2
 814              	.LVL95:
 815              		.thumb
 816              	.LBE27:
 817              		.loc 1 404 0
 818 000e B06B     		ldr	r0, [r6, #56]
 819              	.LVL96:
 820 0010 15EA0004 		ands	r4, r5, r0
 821              	.LVL97:
 822 0014 0ED1     		bne	.L46
 823              		.loc 1 405 0
 824 0016 21B9     		cbnz	r1, .L47
 825              	.LVL98:
 826              	.L50:
 827              	.LBB28:
 828              		.loc 1 411 0
 829 0018 2346     		mov	r3, r4
 830              	.LVL99:
 831              	@ 411 "../../ChibiOS_2.4.3/os/kernel/src/chevents.c" 1
 832 001a 83F31188 		msr     BASEPRI, r3
 833              	@ 0 "" 2
 834              	.LVL100:
 835              		.thumb
 836              	.LBE28:
 837              		.loc 1 421 0
 838 001e 2046     		mov	r0, r4
 839 0020 70BD     		pop	{r4, r5, r6, pc}
 840              	.LVL101:
 841              	.L47:
 842              		.loc 1 410 0
 843 0022 0820     		movs	r0, #8
ARM GAS  /tmp/cceauhuo.s 			page 16


 844              		.loc 1 409 0
 845 0024 7562     		str	r5, [r6, #36]
 846              		.loc 1 410 0
 847 0026 FFF7FEFF 		bl	chSchGoSleepTimeoutS
 848              	.LVL102:
 849 002a 0028     		cmp	r0, #0
 850 002c F4DB     		blt	.L50
 851              		.loc 1 414 0
 852 002e B06B     		ldr	r0, [r6, #56]
 853 0030 05EA0004 		and	r4, r5, r0
 854              	.LVL103:
 855              	.L46:
 856              		.loc 1 416 0
 857 0034 6142     		negs	r1, r4
 858 0036 0C40     		ands	r4, r4, r1
 859              	.LVL104:
 860              		.loc 1 417 0
 861 0038 20EA0400 		bic	r0, r0, r4
 862 003c B063     		str	r0, [r6, #56]
 863              	.LBB29:
 864              		.loc 1 419 0
 865 003e 0023     		movs	r3, #0
 866              	.LVL105:
 867              	@ 419 "../../ChibiOS_2.4.3/os/kernel/src/chevents.c" 1
 868 0040 83F31188 		msr     BASEPRI, r3
 869              	@ 0 "" 2
 870              	.LVL106:
 871              		.thumb
 872              	.LBE29:
 873              		.loc 1 421 0
 874 0044 2046     		mov	r0, r4
 875 0046 70BD     		pop	{r4, r5, r6, pc}
 876              	.L52:
 877              		.align	2
 878              	.L51:
 879 0048 00000000 		.word	rlist
 880              		.cfi_endproc
 881              	.LFE19:
 882              		.size	chEvtWaitOneTimeout, .-chEvtWaitOneTimeout
 883 004c AFF30080 		.section	.text.chEvtWaitAnyTimeout,"ax",%progbits
 884              		.align	2
 885              		.p2align 4,,15
 886              		.global	chEvtWaitAnyTimeout
 887              		.thumb
 888              		.thumb_func
 889              		.type	chEvtWaitAnyTimeout, %function
 890              	chEvtWaitAnyTimeout:
 891              	.LFB20:
 892              		.loc 1 441 0
 893              		.cfi_startproc
 894              		@ args = 0, pretend = 0, frame = 0
 895              		@ frame_needed = 0, uses_anonymous_args = 0
 896              	.LVL107:
 897              		.loc 1 442 0
 898 0000 104B     		ldr	r3, .L59
 899              		.loc 1 441 0
 900 0002 70B5     		push	{r4, r5, r6, lr}
ARM GAS  /tmp/cceauhuo.s 			page 17


 901              	.LCFI11:
 902              		.cfi_def_cfa_offset 16
 903              		.cfi_offset 4, -16
 904              		.cfi_offset 5, -12
 905              		.cfi_offset 6, -8
 906              		.cfi_offset 14, -4
 907              		.loc 1 442 0
 908 0004 DE69     		ldr	r6, [r3, #28]
 909              	.LVL108:
 910              		.loc 1 441 0
 911 0006 0446     		mov	r4, r0
 912              	.LBB30:
 913              		.loc 1 445 0
 914 0008 2023     		movs	r3, #32
 915              	.LVL109:
 916              	@ 445 "../../ChibiOS_2.4.3/os/kernel/src/chevents.c" 1
 917 000a 83F31188 		msr     BASEPRI, r3
 918              	@ 0 "" 2
 919              	.LVL110:
 920              		.thumb
 921              	.LBE30:
 922              		.loc 1 447 0
 923 000e B26B     		ldr	r2, [r6, #56]
 924              	.LVL111:
 925 0010 14EA0205 		ands	r5, r4, r2
 926              	.LVL112:
 927 0014 0ED1     		bne	.L54
 928              		.loc 1 448 0
 929 0016 21B9     		cbnz	r1, .L55
 930              	.LVL113:
 931              	.L58:
 932              	.LBB31:
 933              		.loc 1 454 0
 934 0018 2B46     		mov	r3, r5
 935              	.LVL114:
 936              	@ 454 "../../ChibiOS_2.4.3/os/kernel/src/chevents.c" 1
 937 001a 83F31188 		msr     BASEPRI, r3
 938              	@ 0 "" 2
 939              	.LVL115:
 940              		.thumb
 941              	.LBE31:
 942              		.loc 1 463 0
 943 001e 2846     		mov	r0, r5
 944 0020 70BD     		pop	{r4, r5, r6, pc}
 945              	.LVL116:
 946              	.L55:
 947              		.loc 1 453 0
 948 0022 0820     		movs	r0, #8
 949              	.LVL117:
 950              		.loc 1 452 0
 951 0024 7462     		str	r4, [r6, #36]
 952              		.loc 1 453 0
 953 0026 FFF7FEFF 		bl	chSchGoSleepTimeoutS
 954              	.LVL118:
 955 002a 0028     		cmp	r0, #0
 956 002c F4DB     		blt	.L58
 957              		.loc 1 457 0
ARM GAS  /tmp/cceauhuo.s 			page 18


 958 002e B26B     		ldr	r2, [r6, #56]
 959 0030 04EA0205 		and	r5, r4, r2
 960              	.LVL119:
 961              	.L54:
 962              		.loc 1 459 0
 963 0034 22EA0502 		bic	r2, r2, r5
 964 0038 B263     		str	r2, [r6, #56]
 965              	.LBB32:
 966              		.loc 1 461 0
 967 003a 0023     		movs	r3, #0
 968              	.LVL120:
 969              	@ 461 "../../ChibiOS_2.4.3/os/kernel/src/chevents.c" 1
 970 003c 83F31188 		msr     BASEPRI, r3
 971              	@ 0 "" 2
 972              	.LVL121:
 973              		.thumb
 974              	.LBE32:
 975              		.loc 1 463 0
 976 0040 2846     		mov	r0, r5
 977 0042 70BD     		pop	{r4, r5, r6, pc}
 978              	.L60:
 979              		.align	2
 980              	.L59:
 981 0044 00000000 		.word	rlist
 982              		.cfi_endproc
 983              	.LFE20:
 984              		.size	chEvtWaitAnyTimeout, .-chEvtWaitAnyTimeout
 985 0048 AFF30080 		.section	.text.chEvtWaitAllTimeout,"ax",%progbits
 985      AFF30080 
 986              		.align	2
 987              		.p2align 4,,15
 988              		.global	chEvtWaitAllTimeout
 989              		.thumb
 990              		.thumb_func
 991              		.type	chEvtWaitAllTimeout, %function
 992              	chEvtWaitAllTimeout:
 993              	.LFB21:
 994              		.loc 1 482 0
 995              		.cfi_startproc
 996              		@ args = 0, pretend = 0, frame = 0
 997              		@ frame_needed = 0, uses_anonymous_args = 0
 998              	.LVL122:
 999 0000 38B5     		push	{r3, r4, r5, lr}
 1000              	.LCFI12:
 1001              		.cfi_def_cfa_offset 16
 1002              		.cfi_offset 3, -16
 1003              		.cfi_offset 4, -12
 1004              		.cfi_offset 5, -8
 1005              		.cfi_offset 14, -4
 1006              		.loc 1 483 0
 1007 0002 134B     		ldr	r3, .L66
 1008              		.loc 1 482 0
 1009 0004 0446     		mov	r4, r0
 1010              		.loc 1 483 0
 1011 0006 DD69     		ldr	r5, [r3, #28]
 1012              	.LVL123:
 1013              	.LBB33:
ARM GAS  /tmp/cceauhuo.s 			page 19


 1014              		.loc 1 485 0
 1015 0008 2023     		movs	r3, #32
 1016              	.LVL124:
 1017              	@ 485 "../../ChibiOS_2.4.3/os/kernel/src/chevents.c" 1
 1018 000a 83F31188 		msr     BASEPRI, r3
 1019              	@ 0 "" 2
 1020              	.LVL125:
 1021              		.thumb
 1022              	.LBE33:
 1023              		.loc 1 487 0
 1024 000e AA6B     		ldr	r2, [r5, #56]
 1025 0010 04EA0203 		and	r3, r4, r2
 1026              	.LVL126:
 1027 0014 A342     		cmp	r3, r4
 1028 0016 0DD0     		beq	.L62
 1029              		.loc 1 488 0
 1030 0018 29B9     		cbnz	r1, .L63
 1031              	.LBB34:
 1032              		.loc 1 489 0
 1033 001a 0B46     		mov	r3, r1
 1034              	.LVL127:
 1035              	@ 489 "../../ChibiOS_2.4.3/os/kernel/src/chevents.c" 1
 1036 001c 83F31188 		msr     BASEPRI, r3
 1037              	@ 0 "" 2
 1038              	.LVL128:
 1039              		.thumb
 1040              	.LBE34:
 1041              		.loc 1 490 0
 1042 0020 0C46     		mov	r4, r1
 1043              		.loc 1 502 0
 1044 0022 2046     		mov	r0, r4
 1045              	.LVL129:
 1046 0024 38BD     		pop	{r3, r4, r5, pc}
 1047              	.LVL130:
 1048              	.L63:
 1049              		.loc 1 493 0
 1050 0026 0920     		movs	r0, #9
 1051              	.LVL131:
 1052              		.loc 1 492 0
 1053 0028 6C62     		str	r4, [r5, #36]
 1054              		.loc 1 493 0
 1055 002a FFF7FEFF 		bl	chSchGoSleepTimeoutS
 1056              	.LVL132:
 1057 002e 0028     		cmp	r0, #0
 1058 0030 08DB     		blt	.L65
 1059 0032 AA6B     		ldr	r2, [r5, #56]
 1060              	.L62:
 1061              		.loc 1 498 0
 1062 0034 22EA0402 		bic	r2, r2, r4
 1063 0038 AA63     		str	r2, [r5, #56]
 1064              	.LBB35:
 1065              		.loc 1 500 0
 1066 003a 0023     		movs	r3, #0
 1067              	.LVL133:
 1068              	@ 500 "../../ChibiOS_2.4.3/os/kernel/src/chevents.c" 1
 1069 003c 83F31188 		msr     BASEPRI, r3
 1070              	@ 0 "" 2
ARM GAS  /tmp/cceauhuo.s 			page 20


 1071              	.LVL134:
 1072              		.thumb
 1073              	.L64:
 1074              	.LBE35:
 1075              		.loc 1 502 0
 1076 0040 2046     		mov	r0, r4
 1077 0042 38BD     		pop	{r3, r4, r5, pc}
 1078              	.LVL135:
 1079              	.L65:
 1080              	.LBB36:
 1081              		.loc 1 494 0
 1082 0044 0023     		movs	r3, #0
 1083              	@ 494 "../../ChibiOS_2.4.3/os/kernel/src/chevents.c" 1
 1084 0046 83F31188 		msr     BASEPRI, r3
 1085              	@ 0 "" 2
 1086              	.LVL136:
 1087              		.thumb
 1088              	.LBE36:
 1089              		.loc 1 495 0
 1090 004a 1C46     		mov	r4, r3
 1091              	.LVL137:
 1092 004c F8E7     		b	.L64
 1093              	.L67:
 1094 004e 00BF     		.align	2
 1095              	.L66:
 1096 0050 00000000 		.word	rlist
 1097              		.cfi_endproc
 1098              	.LFE21:
 1099              		.size	chEvtWaitAllTimeout, .-chEvtWaitAllTimeout
 1100 0054 AFF30080 		.text
 1100      AFF30080 
 1100      AFF30080 
 1101              	.Letext0:
 1102              		.file 2 "/opt/ARM/bin/../lib/gcc/arm-none-eabi/4.7.3/../../../../arm-none-eabi/include/stdint.h"
 1103              		.file 3 "../../ChibiOS_2.4.3/os/ports/GCC/ARMCMx/chtypes.h"
 1104              		.file 4 "../../ChibiOS_2.4.3/os/kernel/include/chlists.h"
 1105              		.file 5 "../../ChibiOS_2.4.3/os/kernel/include/chthreads.h"
 1106              		.file 6 "../../ChibiOS_2.4.3/os/ports/GCC/ARMCMx/chcore_v7m.h"
 1107              		.file 7 "../../ChibiOS_2.4.3/os/kernel/include/chschd.h"
 1108              		.file 8 "../../ChibiOS_2.4.3/os/kernel/include/chmtx.h"
 1109              		.file 9 "../../ChibiOS_2.4.3/os/kernel/include/chevents.h"