ARM GAS  /tmp/cc1ptk4R.s 			page 1


   1              		.syntax unified
   2              		.cpu cortex-m4
   3              		.fpu softvfp
   4              		.eabi_attribute 20, 1
   5              		.eabi_attribute 21, 1
   6              		.eabi_attribute 23, 3
   7              		.eabi_attribute 24, 1
   8              		.eabi_attribute 25, 1
   9              		.eabi_attribute 26, 1
  10              		.eabi_attribute 30, 2
  11              		.eabi_attribute 34, 1
  12              		.eabi_attribute 18, 4
  13              		.thumb
  14              		.file	"chschd.c"
  15              		.text
  16              	.Ltext0:
  17              		.cfi_sections	.debug_frame
  18              		.section	.text.wakeup,"ax",%progbits
  19              		.align	2
  20              		.p2align 4,,15
  21              		.thumb
  22              		.thumb_func
  23              		.type	wakeup, %function
  24              	wakeup:
  25              	.LFB10:
  26              		.file 1 "../../ChibiOS_2.4.3/os/kernel/src/chschd.c"
  27              		.loc 1 133 0
  28              		.cfi_startproc
  29              		@ args = 0, pretend = 0, frame = 0
  30              		@ frame_needed = 0, uses_anonymous_args = 0
  31              		@ link register save eliminated.
  32              	.LVL0:
  33              		.loc 1 136 0
  34 0000 037F     		ldrb	r3, [r0, #28]	@ zero_extendqisi2
  35 0002 0D2B     		cmp	r3, #13
  36 0004 11D8     		bhi	.L2
  37 0006 DFE803F0 		tbb	[pc, r3]
  38              	.L6:
  39 000a 20       		.byte	(.L1-.L6)/2
  40 000b 10       		.byte	(.L2-.L6)/2
  41 000c 10       		.byte	(.L2-.L6)/2
  42 000d 07       		.byte	(.L4-.L6)/2
  43 000e 10       		.byte	(.L2-.L6)/2
  44 000f 0B       		.byte	(.L5-.L6)/2
  45 0010 10       		.byte	(.L2-.L6)/2
  46 0011 10       		.byte	(.L2-.L6)/2
  47 0012 10       		.byte	(.L2-.L6)/2
  48 0013 10       		.byte	(.L2-.L6)/2
  49 0014 10       		.byte	(.L2-.L6)/2
  50 0015 10       		.byte	(.L2-.L6)/2
  51 0016 10       		.byte	(.L2-.L6)/2
  52 0017 0B       		.byte	(.L5-.L6)/2
  53              		.align	1
  54              	.L4:
  55              		.loc 1 145 0
  56 0018 416A     		ldr	r1, [r0, #36]
  57 001a 8A68     		ldr	r2, [r1, #8]
ARM GAS  /tmp/cc1ptk4R.s 			page 2


  58 001c 531C     		adds	r3, r2, #1
  59 001e 8B60     		str	r3, [r1, #8]
  60              	.L5:
  61              	.LVL1:
  62              	.LBB17:
  63              	.LBB18:
  64              		.file 2 "../../ChibiOS_2.4.3/os/kernel/include/chinline.h"
  65              		.loc 2 75 0
  66 0020 90E80C00 		ldmia	r0, {r2, r3}
  67 0024 1A60     		str	r2, [r3, #0]
  68              		.loc 2 76 0
  69 0026 0168     		ldr	r1, [r0, #0]
  70 0028 4B60     		str	r3, [r1, #4]
  71              	.LVL2:
  72              	.L2:
  73              	.LBE18:
  74              	.LBE17:
  75              		.loc 1 158 0
  76 002a 4FF0FF32 		mov	r2, #-1
  77 002e 4262     		str	r2, [r0, #36]
  78              	.LVL3:
  79 0030 8168     		ldr	r1, [r0, #8]
  80              	.LBB19:
  81              	.LBB20:
  82              		.loc 1 92 0
  83 0032 064B     		ldr	r3, .L10
  84              		.loc 1 91 0
  85 0034 0022     		movs	r2, #0
  86 0036 0277     		strb	r2, [r0, #28]
  87              	.LVL4:
  88              	.L7:
  89              		.loc 1 94 0
  90 0038 1B68     		ldr	r3, [r3, #0]
  91              	.LVL5:
  92              		.loc 1 95 0
  93 003a 9A68     		ldr	r2, [r3, #8]
  94 003c 8A42     		cmp	r2, r1
  95 003e FBD2     		bcs	.L7
  96              		.loc 1 98 0
  97 0040 5968     		ldr	r1, [r3, #4]
  98              		.loc 1 97 0
  99 0042 0360     		str	r3, [r0, #0]
 100              		.loc 1 98 0
 101 0044 4160     		str	r1, [r0, #4]
 102              		.loc 1 99 0
 103 0046 0860     		str	r0, [r1, #0]
 104 0048 5860     		str	r0, [r3, #4]
 105              	.LVL6:
 106              	.L1:
 107 004a 7047     		bx	lr
 108              	.L11:
 109              		.align	2
 110              	.L10:
 111 004c 00000000 		.word	.LANCHOR0
 112              	.LBE20:
 113              	.LBE19:
 114              		.cfi_endproc
ARM GAS  /tmp/cc1ptk4R.s 			page 3


 115              	.LFE10:
 116              		.size	wakeup, .-wakeup
 117              		.section	.text._scheduler_init,"ax",%progbits
 118              		.align	2
 119              		.p2align 4,,15
 120              		.global	_scheduler_init
 121              		.thumb
 122              		.thumb_func
 123              		.type	_scheduler_init, %function
 124              	_scheduler_init:
 125              	.LFB7:
 126              		.loc 1 55 0
 127              		.cfi_startproc
 128              		@ args = 0, pretend = 0, frame = 0
 129              		@ frame_needed = 0, uses_anonymous_args = 0
 130              		@ link register save eliminated.
 131              		.loc 1 57 0
 132 0000 40F20003 		movw	r3, #:lower16:.LANCHOR0
 133 0004 C0F20003 		movt	r3, #:upper16:.LANCHOR0
 134              		.loc 1 58 0
 135 0008 0022     		movs	r2, #0
 136              		.loc 1 60 0
 137 000a 1420     		movs	r0, #20
 138              		.loc 1 57 0
 139 000c 5B60     		str	r3, [r3, #4]
 140 000e 1B60     		str	r3, [r3, #0]
 141              		.loc 1 58 0
 142 0010 9A60     		str	r2, [r3, #8]
 143              		.loc 1 60 0
 144 0012 9861     		str	r0, [r3, #24]
 145              		.loc 1 63 0
 146 0014 5B61     		str	r3, [r3, #20]
 147 0016 1B61     		str	r3, [r3, #16]
 148 0018 7047     		bx	lr
 149              		.cfi_endproc
 150              	.LFE7:
 151              		.size	_scheduler_init, .-_scheduler_init
 152 001a 00BFAFF3 		.section	.text.chSchReadyI,"ax",%progbits
 152      0080
 153              		.align	2
 154              		.p2align 4,,15
 155              		.global	chSchReadyI
 156              		.thumb
 157              		.thumb_func
 158              		.type	chSchReadyI, %function
 159              	chSchReadyI:
 160              	.LFB8:
 161              		.loc 1 82 0
 162              		.cfi_startproc
 163              		@ args = 0, pretend = 0, frame = 0
 164              		@ frame_needed = 0, uses_anonymous_args = 0
 165              		@ link register save eliminated.
 166              	.LVL7:
 167              		.loc 1 91 0
 168 0000 0022     		movs	r2, #0
 169 0002 8168     		ldr	r1, [r0, #8]
 170              		.loc 1 92 0
ARM GAS  /tmp/cc1ptk4R.s 			page 4


 171 0004 054B     		ldr	r3, .L16
 172              		.loc 1 91 0
 173 0006 0277     		strb	r2, [r0, #28]
 174              	.LVL8:
 175              	.L14:
 176              		.loc 1 94 0 discriminator 1
 177 0008 1B68     		ldr	r3, [r3, #0]
 178              	.LVL9:
 179              		.loc 1 95 0 discriminator 1
 180 000a 9A68     		ldr	r2, [r3, #8]
 181 000c 8A42     		cmp	r2, r1
 182 000e FBD2     		bcs	.L14
 183              		.loc 1 98 0
 184 0010 5968     		ldr	r1, [r3, #4]
 185              		.loc 1 97 0
 186 0012 0360     		str	r3, [r0, #0]
 187              		.loc 1 98 0
 188 0014 4160     		str	r1, [r0, #4]
 189              		.loc 1 99 0
 190 0016 0860     		str	r0, [r1, #0]
 191 0018 5860     		str	r0, [r3, #4]
 192              		.loc 1 101 0
 193 001a 7047     		bx	lr
 194              	.L17:
 195              		.align	2
 196              	.L16:
 197 001c 00000000 		.word	.LANCHOR0
 198              		.cfi_endproc
 199              	.LFE8:
 200              		.size	chSchReadyI, .-chSchReadyI
 201              		.section	.text.chSchGoSleepS,"ax",%progbits
 202              		.align	2
 203              		.p2align 4,,15
 204              		.global	chSchGoSleepS
 205              		.thumb
 206              		.thumb_func
 207              		.type	chSchGoSleepS, %function
 208              	chSchGoSleepS:
 209              	.LFB9:
 210              		.loc 1 114 0
 211              		.cfi_startproc
 212              		@ args = 0, pretend = 0, frame = 0
 213              		@ frame_needed = 0, uses_anonymous_args = 0
 214              		@ link register save eliminated.
 215              	.LVL10:
 216              		.loc 1 119 0
 217 0000 40F20003 		movw	r3, #:lower16:.LANCHOR0
 218 0004 C0F20003 		movt	r3, #:upper16:.LANCHOR0
 219              		.loc 1 114 0
 220 0008 30B4     		push	{r4, r5}
 221              	.LCFI0:
 222              		.cfi_def_cfa_offset 8
 223              		.cfi_offset 4, -8
 224              		.cfi_offset 5, -4
 225              	.LBB21:
 226              	.LBB22:
 227              		.loc 2 60 0
ARM GAS  /tmp/cc1ptk4R.s 			page 5


 228 000a 1A68     		ldr	r2, [r3, #0]
 229              	.LBE22:
 230              	.LBE21:
 231              		.loc 1 119 0
 232 000c D969     		ldr	r1, [r3, #28]
 233              	.LVL11:
 234              	.LBB25:
 235              	.LBB23:
 236              		.loc 2 62 0
 237 000e 1468     		ldr	r4, [r2, #0]
 238              	.LBE23:
 239              	.LBE25:
 240              		.loc 1 119 0
 241 0010 0877     		strb	r0, [r1, #28]
 242              		.loc 1 121 0
 243 0012 1420     		movs	r0, #20
 244              	.LVL12:
 245 0014 9861     		str	r0, [r3, #24]
 246              	.LVL13:
 247              		.loc 1 124 0
 248 0016 0125     		movs	r5, #1
 249              		.loc 1 125 0
 250 0018 1046     		mov	r0, r2
 251              	.LBB26:
 252              	.LBB24:
 253              		.loc 2 62 0
 254 001a 6360     		str	r3, [r4, #4]
 255 001c 1C60     		str	r4, [r3, #0]
 256              	.LBE24:
 257              	.LBE26:
 258              		.loc 1 123 0
 259 001e DA61     		str	r2, [r3, #28]
 260              		.loc 1 124 0
 261 0020 1577     		strb	r5, [r2, #28]
 262              		.loc 1 126 0
 263 0022 30BC     		pop	{r4, r5}
 264              		.loc 1 125 0
 265 0024 FFF7FEBF 		b	_port_switch
 266              	.LVL14:
 267              		.cfi_endproc
 268              	.LFE9:
 269              		.size	chSchGoSleepS, .-chSchGoSleepS
 270 0028 AFF30080 		.section	.text.chSchGoSleepTimeoutS,"ax",%progbits
 270      AFF30080 
 271              		.align	2
 272              		.p2align 4,,15
 273              		.global	chSchGoSleepTimeoutS
 274              		.thumb
 275              		.thumb_func
 276              		.type	chSchGoSleepTimeoutS, %function
 277              	chSchGoSleepTimeoutS:
 278              	.LFB11:
 279              		.loc 1 183 0
 280              		.cfi_startproc
 281              		@ args = 0, pretend = 0, frame = 24
 282              		@ frame_needed = 0, uses_anonymous_args = 0
 283              	.LVL15:
ARM GAS  /tmp/cc1ptk4R.s 			page 6


 284 0000 30B5     		push	{r4, r5, lr}
 285              	.LCFI1:
 286              		.cfi_def_cfa_offset 12
 287              		.cfi_offset 4, -12
 288              		.cfi_offset 5, -8
 289              		.cfi_offset 14, -4
 290              		.loc 1 187 0
 291 0002 4B1C     		adds	r3, r1, #1
 292              		.loc 1 183 0
 293 0004 87B0     		sub	sp, sp, #28
 294              	.LCFI2:
 295              		.cfi_def_cfa_offset 40
 296              		.loc 1 183 0
 297 0006 0546     		mov	r5, r0
 298              		.loc 1 187 0
 299 0008 11D0     		beq	.L20
 300              	.LBB27:
 301              		.loc 1 190 0
 302 000a 0B4C     		ldr	r4, .L26
 303 000c 0B4A     		ldr	r2, .L26+4
 304 000e E369     		ldr	r3, [r4, #28]
 305 0010 01A8     		add	r0, sp, #4
 306              	.LVL16:
 307 0012 FFF7FEFF 		bl	chVTSetI
 308              	.LVL17:
 309              		.loc 1 191 0
 310 0016 2846     		mov	r0, r5
 311 0018 FFF7FEFF 		bl	chSchGoSleepS
 312              	.LVL18:
 313              		.loc 1 192 0
 314 001c 049B     		ldr	r3, [sp, #16]
 315 001e 13B1     		cbz	r3, .L22
 316              		.loc 1 193 0
 317 0020 01A8     		add	r0, sp, #4
 318 0022 FFF7FEFF 		bl	chVTResetI
 319              	.LVL19:
 320              	.L22:
 321              	.LBE27:
 322              		.loc 1 197 0
 323 0026 E069     		ldr	r0, [r4, #28]
 324              		.loc 1 198 0
 325 0028 406A     		ldr	r0, [r0, #36]
 326 002a 07B0     		add	sp, sp, #28
 327 002c 30BD     		pop	{r4, r5, pc}
 328              	.LVL20:
 329              	.L20:
 330              		.loc 1 196 0
 331 002e FFF7FEFF 		bl	chSchGoSleepS
 332              	.LVL21:
 333 0032 014C     		ldr	r4, .L26
 334 0034 F7E7     		b	.L22
 335              	.L27:
 336 0036 00BF     		.align	2
 337              	.L26:
 338 0038 00000000 		.word	.LANCHOR0
 339 003c 00000000 		.word	wakeup
 340              		.cfi_endproc
ARM GAS  /tmp/cc1ptk4R.s 			page 7


 341              	.LFE11:
 342              		.size	chSchGoSleepTimeoutS, .-chSchGoSleepTimeoutS
 343              		.section	.text.chSchWakeupS,"ax",%progbits
 344              		.align	2
 345              		.p2align 4,,15
 346              		.global	chSchWakeupS
 347              		.thumb
 348              		.thumb_func
 349              		.type	chSchWakeupS, %function
 350              	chSchWakeupS:
 351              	.LFB12:
 352              		.loc 1 219 0
 353              		.cfi_startproc
 354              		@ args = 0, pretend = 0, frame = 0
 355              		@ frame_needed = 0, uses_anonymous_args = 0
 356              		@ link register save eliminated.
 357              	.LVL22:
 358 0000 F0B4     		push	{r4, r5, r6, r7}
 359              	.LCFI3:
 360              		.cfi_def_cfa_offset 16
 361              		.cfi_offset 4, -16
 362              		.cfi_offset 5, -12
 363              		.cfi_offset 6, -8
 364              		.cfi_offset 7, -4
 365              		.loc 1 228 0
 366 0002 154F     		ldr	r7, .L36
 367 0004 8568     		ldr	r5, [r0, #8]
 368 0006 FE69     		ldr	r6, [r7, #28]
 369              		.loc 1 219 0
 370 0008 0446     		mov	r4, r0
 371              		.loc 1 228 0
 372 000a B068     		ldr	r0, [r6, #8]
 373              	.LVL23:
 374              		.loc 1 223 0
 375 000c 6162     		str	r1, [r4, #36]
 376              	.LBB28:
 377              	.LBB29:
 378              		.loc 1 91 0
 379 000e 0023     		movs	r3, #0
 380              	.LBE29:
 381              	.LBE28:
 382              		.loc 1 228 0
 383 0010 8542     		cmp	r5, r0
 384 0012 0CD8     		bhi	.L29
 385              	.LVL24:
 386              	.LBB31:
 387              	.LBB30:
 388              		.loc 1 91 0
 389 0014 2377     		strb	r3, [r4, #28]
 390              	.LVL25:
 391              		.loc 1 92 0
 392 0016 3946     		mov	r1, r7
 393              	.LVL26:
 394              	.L30:
 395              		.loc 1 94 0
 396 0018 0968     		ldr	r1, [r1, #0]
 397              	.LVL27:
ARM GAS  /tmp/cc1ptk4R.s 			page 8


 398              		.loc 1 95 0
 399 001a 8868     		ldr	r0, [r1, #8]
 400 001c 8542     		cmp	r5, r0
 401 001e FBD9     		bls	.L30
 402              		.loc 1 98 0
 403 0020 4B68     		ldr	r3, [r1, #4]
 404              		.loc 1 97 0
 405 0022 2160     		str	r1, [r4, #0]
 406              		.loc 1 98 0
 407 0024 6360     		str	r3, [r4, #4]
 408              		.loc 1 99 0
 409 0026 1C60     		str	r4, [r3, #0]
 410 0028 4C60     		str	r4, [r1, #4]
 411              	.LBE30:
 412              	.LBE31:
 413              		.loc 1 239 0
 414 002a F0BC     		pop	{r4, r5, r6, r7}
 415 002c 7047     		bx	lr
 416              	.LVL28:
 417              	.L29:
 418              	.LBB32:
 419              	.LBB33:
 420              	.LBB34:
 421              		.loc 1 91 0
 422 002e 3377     		strb	r3, [r6, #28]
 423              	.LVL29:
 424              		.loc 1 92 0
 425 0030 3946     		mov	r1, r7
 426              	.LVL30:
 427              	.L32:
 428              		.loc 1 94 0
 429 0032 0968     		ldr	r1, [r1, #0]
 430              	.LVL31:
 431              		.loc 1 95 0
 432 0034 8A68     		ldr	r2, [r1, #8]
 433 0036 9042     		cmp	r0, r2
 434 0038 FBD9     		bls	.L32
 435              		.loc 1 98 0
 436 003a 4868     		ldr	r0, [r1, #4]
 437              		.loc 1 97 0
 438 003c 3160     		str	r1, [r6, #0]
 439              		.loc 1 98 0
 440 003e 7060     		str	r0, [r6, #4]
 441              		.loc 1 99 0
 442 0040 0660     		str	r6, [r0, #0]
 443 0042 4E60     		str	r6, [r1, #4]
 444              	.LBE34:
 445              	.LBE33:
 446              		.loc 1 236 0
 447 0044 0123     		movs	r3, #1
 448              		.loc 1 233 0
 449 0046 1422     		movs	r2, #20
 450              		.loc 1 237 0
 451 0048 2046     		mov	r0, r4
 452 004a 3146     		mov	r1, r6
 453              	.LVL32:
 454              		.loc 1 235 0
ARM GAS  /tmp/cc1ptk4R.s 			page 9


 455 004c FC61     		str	r4, [r7, #28]
 456              		.loc 1 233 0
 457 004e BA61     		str	r2, [r7, #24]
 458              		.loc 1 236 0
 459 0050 2377     		strb	r3, [r4, #28]
 460              	.LBE32:
 461              		.loc 1 239 0
 462 0052 F0BC     		pop	{r4, r5, r6, r7}
 463              	.LBB35:
 464              		.loc 1 237 0
 465 0054 FFF7FEBF 		b	_port_switch
 466              	.LVL33:
 467              	.L37:
 468              		.align	2
 469              	.L36:
 470 0058 00000000 		.word	.LANCHOR0
 471              	.LBE35:
 472              		.cfi_endproc
 473              	.LFE12:
 474              		.size	chSchWakeupS, .-chSchWakeupS
 475 005c AFF30080 		.section	.text.chSchDoReschedule,"ax",%progbits
 476              		.align	2
 477              		.p2align 4,,15
 478              		.global	chSchDoReschedule
 479              		.thumb
 480              		.thumb_func
 481              		.type	chSchDoReschedule, %function
 482              	chSchDoReschedule:
 483              	.LFB14:
 484              		.loc 1 298 0
 485              		.cfi_startproc
 486              		@ args = 0, pretend = 0, frame = 0
 487              		@ frame_needed = 0, uses_anonymous_args = 0
 488              		@ link register save eliminated.
 489              		.loc 1 302 0
 490 0000 0E4A     		ldr	r2, .L42
 491              	.LBB36:
 492              	.LBB37:
 493              		.loc 2 60 0
 494 0002 1068     		ldr	r0, [r2, #0]
 495              	.LBE37:
 496              	.LBE36:
 497              		.loc 1 304 0
 498 0004 D169     		ldr	r1, [r2, #28]
 499              	.LVL34:
 500              		.loc 1 298 0
 501 0006 30B4     		push	{r4, r5}
 502              	.LCFI4:
 503              		.cfi_def_cfa_offset 8
 504              		.cfi_offset 4, -8
 505              		.cfi_offset 5, -4
 506              	.LBB40:
 507              	.LBB38:
 508              		.loc 2 62 0
 509 0008 0568     		ldr	r5, [r0, #0]
 510 000a 8C68     		ldr	r4, [r1, #8]
 511 000c 1560     		str	r5, [r2, #0]
ARM GAS  /tmp/cc1ptk4R.s 			page 10


 512              	.LBE38:
 513              	.LBE40:
 514              		.loc 1 302 0
 515 000e 1423     		movs	r3, #20
 516 0010 9361     		str	r3, [r2, #24]
 517              	.LBB41:
 518              	.LBB39:
 519              		.loc 2 62 0
 520 0012 6A60     		str	r2, [r5, #4]
 521              	.LBE39:
 522              	.LBE41:
 523              		.loc 1 306 0
 524 0014 D061     		str	r0, [r2, #28]
 525              		.loc 1 307 0
 526 0016 0122     		movs	r2, #1
 527 0018 0277     		strb	r2, [r0, #28]
 528              	.LVL35:
 529              	.LBB42:
 530              	.LBB43:
 531              		.loc 1 91 0
 532 001a 0022     		movs	r2, #0
 533 001c 0346     		mov	r3, r0
 534 001e 0A77     		strb	r2, [r1, #28]
 535              	.LVL36:
 536 0020 00E0     		b	.L40
 537              	.LVL37:
 538              	.L41:
 539 0022 1B68     		ldr	r3, [r3, #0]
 540              	.LVL38:
 541              	.L40:
 542              		.loc 1 95 0
 543 0024 9A68     		ldr	r2, [r3, #8]
 544 0026 A242     		cmp	r2, r4
 545 0028 FBD2     		bcs	.L41
 546              		.loc 1 98 0
 547 002a 5A68     		ldr	r2, [r3, #4]
 548              		.loc 1 97 0
 549 002c 0B60     		str	r3, [r1, #0]
 550              		.loc 1 98 0
 551 002e 4A60     		str	r2, [r1, #4]
 552              		.loc 1 99 0
 553 0030 1160     		str	r1, [r2, #0]
 554 0032 5960     		str	r1, [r3, #4]
 555              	.LBE43:
 556              	.LBE42:
 557              		.loc 1 310 0
 558 0034 30BC     		pop	{r4, r5}
 559              		.loc 1 309 0
 560 0036 FFF7FEBF 		b	_port_switch
 561              	.LVL39:
 562              	.L43:
 563 003a 00BF     		.align	2
 564              	.L42:
 565 003c 00000000 		.word	.LANCHOR0
 566              		.cfi_endproc
 567              	.LFE14:
 568              		.size	chSchDoReschedule, .-chSchDoReschedule
ARM GAS  /tmp/cc1ptk4R.s 			page 11


 569              		.section	.text.chSchRescheduleS,"ax",%progbits
 570              		.align	2
 571              		.p2align 4,,15
 572              		.global	chSchRescheduleS
 573              		.thumb
 574              		.thumb_func
 575              		.type	chSchRescheduleS, %function
 576              	chSchRescheduleS:
 577              	.LFB13:
 578              		.loc 1 250 0
 579              		.cfi_startproc
 580              		@ args = 0, pretend = 0, frame = 0
 581              		@ frame_needed = 0, uses_anonymous_args = 0
 582              		@ link register save eliminated.
 583              		.loc 1 254 0
 584 0000 044B     		ldr	r3, .L47
 585 0002 1A68     		ldr	r2, [r3, #0]
 586 0004 D869     		ldr	r0, [r3, #28]
 587 0006 9168     		ldr	r1, [r2, #8]
 588 0008 8368     		ldr	r3, [r0, #8]
 589 000a 9942     		cmp	r1, r3
 590 000c 00D8     		bhi	.L46
 591 000e 7047     		bx	lr
 592              	.L46:
 593              		.loc 1 256 0
 594              		.loc 1 255 0
 595 0010 FFF7FEBF 		b	chSchDoReschedule
 596              	.LVL40:
 597              	.L48:
 598              		.align	2
 599              	.L47:
 600 0014 00000000 		.word	.LANCHOR0
 601              		.cfi_endproc
 602              	.LFE13:
 603              		.size	chSchRescheduleS, .-chSchRescheduleS
 604              		.global	rlist
 605 0018 AFF30080 		.section	.bss.rlist,"aw",%nobits
 605      AFF30080 
 606              		.align	2
 607              		.set	.LANCHOR0,. + 0
 608              		.type	rlist, %object
 609              		.size	rlist, 32
 610              	rlist:
 611 0000 00000000 		.space	32
 611      00000000 
 611      00000000 
 611      00000000 
 611      00000000 
 612              		.text
 613              	.Letext0:
 614              		.file 3 "/opt/ARM/bin/../lib/gcc/arm-none-eabi/4.7.3/../../../../arm-none-eabi/include/stdint.h"
 615              		.file 4 "../../ChibiOS_2.4.3/os/ports/GCC/ARMCMx/chtypes.h"
 616              		.file 5 "../../ChibiOS_2.4.3/os/kernel/include/chlists.h"
 617              		.file 6 "../../ChibiOS_2.4.3/os/kernel/include/chthreads.h"
 618              		.file 7 "../../ChibiOS_2.4.3/os/ports/GCC/ARMCMx/chcore_v7m.h"
 619              		.file 8 "../../ChibiOS_2.4.3/os/kernel/include/chvt.h"
 620              		.file 9 "../../ChibiOS_2.4.3/os/kernel/include/chschd.h"
ARM GAS  /tmp/cc1ptk4R.s 			page 12


 621              		.file 10 "../../ChibiOS_2.4.3/os/kernel/include/chsem.h"
 622              		.file 11 "../../ChibiOS_2.4.3/os/kernel/include/chmtx.h"