ARM GAS  /tmp/cc4LuFZd.s 			page 1


   1              		.syntax unified
   2              		.cpu cortex-m4
   3              		.fpu softvfp
   4              		.eabi_attribute 20, 1
   5              		.eabi_attribute 21, 1
   6              		.eabi_attribute 23, 3
   7              		.eabi_attribute 24, 1
   8              		.eabi_attribute 25, 1
   9              		.eabi_attribute 26, 1
  10              		.eabi_attribute 30, 2
  11              		.eabi_attribute 34, 1
  12              		.eabi_attribute 18, 4
  13              		.thumb
  14              		.file	"testqueues.c"
  15              		.text
  16              	.Ltext0:
  17              		.cfi_sections	.debug_frame
  18              		.section	.text.notify,"ax",%progbits
  19              		.align	2
  20              		.p2align 4,,15
  21              		.thumb
  22              		.thumb_func
  23              		.type	notify, %function
  24              	notify:
  25              	.LFB7:
  26              		.file 1 "../../ChibiOS_2.4.3/test/testqueues.c"
  27              		.loc 1 68 0
  28              		.cfi_startproc
  29              		@ args = 0, pretend = 0, frame = 0
  30              		@ frame_needed = 0, uses_anonymous_args = 0
  31              		@ link register save eliminated.
  32              	.LVL0:
  33 0000 7047     		bx	lr
  34              		.cfi_endproc
  35              	.LFE7:
  36              		.size	notify, .-notify
  37 0002 00BFAFF3 		.section	.text.thread2,"ax",%progbits
  37      0080AFF3 
  37      0080AFF3 
  37      0080
  38              		.align	2
  39              		.p2align 4,,15
  40              		.thumb
  41              		.thumb_func
  42              		.type	thread2, %function
  43              	thread2:
  44              	.LFB12:
  45              		.loc 1 181 0
  46              		.cfi_startproc
  47              		@ args = 0, pretend = 0, frame = 0
  48              		@ frame_needed = 0, uses_anonymous_args = 0
  49              	.LVL1:
  50              		.loc 1 184 0
  51 0000 40F20000 		movw	r0, #:lower16:.LANCHOR0
  52              	.LVL2:
  53              		.loc 1 181 0
  54 0004 08B5     		push	{r3, lr}
ARM GAS  /tmp/cc4LuFZd.s 			page 2


  55              	.LCFI0:
  56              		.cfi_def_cfa_offset 8
  57              		.cfi_offset 3, -8
  58              		.cfi_offset 14, -4
  59              		.loc 1 184 0
  60 0006 0021     		movs	r1, #0
  61 0008 C822     		movs	r2, #200
  62 000a C0F20000 		movt	r0, #:upper16:.LANCHOR0
  63 000e FFF7FEFF 		bl	chOQPutTimeout
  64              	.LVL3:
  65              		.loc 1 186 0
  66 0012 0020     		movs	r0, #0
  67 0014 08BD     		pop	{r3, pc}
  68              		.cfi_endproc
  69              	.LFE12:
  70              		.size	thread2, .-thread2
  71 0016 00BFAFF3 		.section	.text.queues2_setup,"ax",%progbits
  71      0080AFF3 
  71      0080
  72              		.align	2
  73              		.p2align 4,,15
  74              		.thumb
  75              		.thumb_func
  76              		.type	queues2_setup, %function
  77              	queues2_setup:
  78              	.LFB11:
  79              		.loc 1 176 0
  80              		.cfi_startproc
  81              		@ args = 0, pretend = 0, frame = 0
  82              		@ frame_needed = 0, uses_anonymous_args = 0
  83              		@ link register save eliminated.
  84              		.loc 1 178 0
  85 0000 40F20003 		movw	r3, #:lower16:wa
  86 0004 C0F20003 		movt	r3, #:upper16:wa
  87 0008 40F20000 		movw	r0, #:lower16:.LANCHOR0
  88 000c 1968     		ldr	r1, [r3, #0]
  89 000e 40F20003 		movw	r3, #:lower16:notify
  90 0012 C0F20000 		movt	r0, #:upper16:.LANCHOR0
  91 0016 0422     		movs	r2, #4
  92 0018 C0F20003 		movt	r3, #:upper16:notify
  93              		.loc 1 179 0
  94              		.loc 1 178 0
  95 001c FFF7FEBF 		b	chOQInit
  96              	.LVL4:
  97              		.cfi_endproc
  98              	.LFE11:
  99              		.size	queues2_setup, .-queues2_setup
 100              		.section	.text.thread1,"ax",%progbits
 101              		.align	2
 102              		.p2align 4,,15
 103              		.thumb
 104              		.thumb_func
 105              		.type	thread1, %function
 106              	thread1:
 107              	.LFB9:
 108              		.loc 1 94 0
 109              		.cfi_startproc
ARM GAS  /tmp/cc4LuFZd.s 			page 3


 110              		@ args = 0, pretend = 0, frame = 0
 111              		@ frame_needed = 0, uses_anonymous_args = 0
 112              	.LVL5:
 113              		.loc 1 97 0
 114 0000 40F20000 		movw	r0, #:lower16:.LANCHOR1
 115              	.LVL6:
 116              		.loc 1 94 0
 117 0004 08B5     		push	{r3, lr}
 118              	.LCFI1:
 119              		.cfi_def_cfa_offset 8
 120              		.cfi_offset 3, -8
 121              		.cfi_offset 14, -4
 122              		.loc 1 97 0
 123 0006 C821     		movs	r1, #200
 124 0008 C0F20000 		movt	r0, #:upper16:.LANCHOR1
 125 000c FFF7FEFF 		bl	chIQGetTimeout
 126              	.LVL7:
 127              		.loc 1 99 0
 128 0010 0020     		movs	r0, #0
 129 0012 08BD     		pop	{r3, pc}
 130              		.cfi_endproc
 131              	.LFE9:
 132              		.size	thread1, .-thread1
 133 0014 AFF30080 		.section	.text.queues1_setup,"ax",%progbits
 133      AFF30080 
 133      AFF30080 
 134              		.align	2
 135              		.p2align 4,,15
 136              		.thumb
 137              		.thumb_func
 138              		.type	queues1_setup, %function
 139              	queues1_setup:
 140              	.LFB8:
 141              		.loc 1 89 0
 142              		.cfi_startproc
 143              		@ args = 0, pretend = 0, frame = 0
 144              		@ frame_needed = 0, uses_anonymous_args = 0
 145              		@ link register save eliminated.
 146              		.loc 1 91 0
 147 0000 40F20003 		movw	r3, #:lower16:wa
 148 0004 C0F20003 		movt	r3, #:upper16:wa
 149 0008 40F20000 		movw	r0, #:lower16:.LANCHOR1
 150 000c 1968     		ldr	r1, [r3, #0]
 151 000e 40F20003 		movw	r3, #:lower16:notify
 152 0012 C0F20000 		movt	r0, #:upper16:.LANCHOR1
 153 0016 0422     		movs	r2, #4
 154 0018 C0F20003 		movt	r3, #:upper16:notify
 155              		.loc 1 92 0
 156              		.loc 1 91 0
 157 001c FFF7FEBF 		b	chIQInit
 158              	.LVL8:
 159              		.cfi_endproc
 160              	.LFE8:
 161              		.size	queues1_setup, .-queues1_setup
 162              		.section	.text.queues2_execute,"ax",%progbits
 163              		.align	2
 164              		.p2align 4,,15
ARM GAS  /tmp/cc4LuFZd.s 			page 4


 165              		.thumb
 166              		.thumb_func
 167              		.type	queues2_execute, %function
 168              	queues2_execute:
 169              	.LFB13:
 170              		.loc 1 188 0
 171              		.cfi_startproc
 172              		@ args = 0, pretend = 0, frame = 0
 173              		@ frame_needed = 0, uses_anonymous_args = 0
 174 0000 2DE9F041 		push	{r4, r5, r6, r7, r8, lr}
 175              	.LCFI2:
 176              		.cfi_def_cfa_offset 24
 177              		.cfi_offset 4, -24
 178              		.cfi_offset 5, -20
 179              		.cfi_offset 6, -16
 180              		.cfi_offset 7, -12
 181              		.cfi_offset 8, -8
 182              		.cfi_offset 14, -4
 183              	.LBB96:
 184              		.loc 1 193 0
 185 0004 2023     		movs	r3, #32
 186              	.LVL9:
 187              	.LBE96:
 188              		.loc 1 188 0
 189 0006 82B0     		sub	sp, sp, #8
 190              	.LCFI3:
 191              		.cfi_def_cfa_offset 32
 192              	.LBB97:
 193              		.loc 1 193 0
 194              	@ 193 "../../ChibiOS_2.4.3/test/testqueues.c" 1
 195 0008 83F31188 		msr     BASEPRI, r3
 196              	@ 0 "" 2
 197              	.LVL10:
 198              		.thumb
 199              	.LBE97:
 200 000c AA4D     		ldr	r5, .L27
 201 000e 6A69     		ldr	r2, [r5, #20]
 202 0010 AB69     		ldr	r3, [r5, #24]
 203              	.LVL11:
 204 0012 9A42     		cmp	r2, r3
 205 0014 00F09780 		beq	.L25
 206 0018 0021     		movs	r1, #0
 207              	.L7:
 208              		.loc 1 193 0 is_stmt 0 discriminator 4
 209 001a 0120     		movs	r0, #1
 210 001c FFF7FEFF 		bl	_test_assert
 211              	.LVL12:
 212 0020 0646     		mov	r6, r0
 213 0022 0028     		cmp	r0, #0
 214 0024 68D1     		bne	.L22
 215              	.LBB98:
 216              	.LBB99:
 217              	.LBB100:
 218              		.loc 1 193 0
 219 0026 0346     		mov	r3, r0
 220              	.LVL13:
 221              	@ 193 "../../ChibiOS_2.4.3/test/testqueues.c" 1
ARM GAS  /tmp/cc4LuFZd.s 			page 5


 222 0028 83F31188 		msr     BASEPRI, r3
 223              	@ 0 "" 2
 224              	.LVL14:
 225              		.thumb
 226              	.LBE100:
 227              		.loc 1 197 0 is_stmt 1
 228 002c A24C     		ldr	r4, .L27
 229 002e 4121     		movs	r1, #65
 230 0030 2046     		mov	r0, r4
 231 0032 4FF0FF32 		mov	r2, #-1
 232 0036 FFF7FEFF 		bl	chOQPutTimeout
 233              	.LVL15:
 234 003a 4221     		movs	r1, #66
 235 003c 2046     		mov	r0, r4
 236 003e 4FF0FF32 		mov	r2, #-1
 237 0042 FFF7FEFF 		bl	chOQPutTimeout
 238              	.LVL16:
 239 0046 4321     		movs	r1, #67
 240 0048 2046     		mov	r0, r4
 241 004a 4FF0FF32 		mov	r2, #-1
 242 004e FFF7FEFF 		bl	chOQPutTimeout
 243              	.LVL17:
 244 0052 2046     		mov	r0, r4
 245 0054 4421     		movs	r1, #68
 246 0056 4FF0FF32 		mov	r2, #-1
 247 005a FFF7FEFF 		bl	chOQPutTimeout
 248              	.LVL18:
 249              	.LBB101:
 250              		.loc 1 198 0
 251 005e 2023     		movs	r3, #32
 252              	.LVL19:
 253              	@ 198 "../../ChibiOS_2.4.3/test/testqueues.c" 1
 254 0060 83F31188 		msr     BASEPRI, r3
 255              	@ 0 "" 2
 256              	.LVL20:
 257              		.thumb
 258              	.LBE101:
 259 0064 AD68     		ldr	r5, [r5, #8]
 260 0066 0220     		movs	r0, #2
 261 0068 D5F10101 		rsbs	r1, r5, #1
 262 006c 38BF     		it	cc
 263 006e 0021     		movcc	r1, #0
 264 0070 FFF7FEFF 		bl	_test_assert
 265              	.LVL21:
 266 0074 0546     		mov	r5, r0
 267 0076 0028     		cmp	r0, #0
 268 0078 44D1     		bne	.L23
 269              	.LBB102:
 270 007a 0346     		mov	r3, r0
 271              	.LVL22:
 272              	@ 198 "../../ChibiOS_2.4.3/test/testqueues.c" 1
 273 007c 83F31188 		msr     BASEPRI, r3
 274              	@ 0 "" 2
 275              	.LVL23:
 276              		.thumb
 277              	.LBE102:
 278              	.LBB103:
ARM GAS  /tmp/cc4LuFZd.s 			page 6


 279              	.LBB104:
 280              		.loc 1 204 0
 281 0080 2023     		movs	r3, #32
 282              	.LVL24:
 283              	@ 204 "../../ChibiOS_2.4.3/test/testqueues.c" 1
 284 0082 83F31188 		msr     BASEPRI, r3
 285              	@ 0 "" 2
 286              	.LVL25:
 287              		.thumb
 288              	.LBE104:
 289              		.loc 1 205 0
 290 0086 2046     		mov	r0, r4
 291 0088 FFF7FEFF 		bl	chOQGetI
 292              	.LVL26:
 293              	.LBB105:
 294              		.loc 1 206 0
 295 008c 2B46     		mov	r3, r5
 296              	.LVL27:
 297              	@ 206 "../../ChibiOS_2.4.3/test/testqueues.c" 1
 298 008e 83F31188 		msr     BASEPRI, r3
 299              	@ 0 "" 2
 300              	.LVL28:
 301              		.thumb
 302              	.LBE105:
 303              		.loc 1 207 0
 304 0092 C0B2     		uxtb	r0, r0
 305              	.LVL29:
 306 0094 FFF7FEFF 		bl	test_emit_token
 307              	.LVL30:
 308              	.LBB106:
 309              		.loc 1 204 0
 310 0098 2023     		movs	r3, #32
 311              	@ 204 "../../ChibiOS_2.4.3/test/testqueues.c" 1
 312 009a 83F31188 		msr     BASEPRI, r3
 313              	@ 0 "" 2
 314              	.LVL31:
 315              		.thumb
 316              	.LBE106:
 317              		.loc 1 205 0
 318 009e 2046     		mov	r0, r4
 319 00a0 FFF7FEFF 		bl	chOQGetI
 320              	.LVL32:
 321              	.LBB107:
 322              		.loc 1 206 0
 323 00a4 2B46     		mov	r3, r5
 324              	@ 206 "../../ChibiOS_2.4.3/test/testqueues.c" 1
 325 00a6 83F31188 		msr     BASEPRI, r3
 326              	@ 0 "" 2
 327              	.LVL33:
 328              		.thumb
 329              	.LBE107:
 330              		.loc 1 207 0
 331 00aa C0B2     		uxtb	r0, r0
 332              	.LVL34:
 333 00ac FFF7FEFF 		bl	test_emit_token
 334              	.LVL35:
 335              	.LBB108:
ARM GAS  /tmp/cc4LuFZd.s 			page 7


 336              		.loc 1 204 0
 337 00b0 2023     		movs	r3, #32
 338              	@ 204 "../../ChibiOS_2.4.3/test/testqueues.c" 1
 339 00b2 83F31188 		msr     BASEPRI, r3
 340              	@ 0 "" 2
 341              	.LVL36:
 342              		.thumb
 343              	.LBE108:
 344              		.loc 1 205 0
 345 00b6 2046     		mov	r0, r4
 346 00b8 FFF7FEFF 		bl	chOQGetI
 347              	.LVL37:
 348              	.LBB109:
 349              		.loc 1 206 0
 350 00bc 2B46     		mov	r3, r5
 351              	@ 206 "../../ChibiOS_2.4.3/test/testqueues.c" 1
 352 00be 83F31188 		msr     BASEPRI, r3
 353              	@ 0 "" 2
 354              	.LVL38:
 355              		.thumb
 356              	.LBE109:
 357              		.loc 1 207 0
 358 00c2 C0B2     		uxtb	r0, r0
 359              	.LVL39:
 360 00c4 FFF7FEFF 		bl	test_emit_token
 361              	.LVL40:
 362              	.LBB110:
 363              		.loc 1 204 0
 364 00c8 2023     		movs	r3, #32
 365              	@ 204 "../../ChibiOS_2.4.3/test/testqueues.c" 1
 366 00ca 83F31188 		msr     BASEPRI, r3
 367              	@ 0 "" 2
 368              	.LVL41:
 369              		.thumb
 370              	.LBE110:
 371              		.loc 1 205 0
 372 00ce 2046     		mov	r0, r4
 373 00d0 FFF7FEFF 		bl	chOQGetI
 374              	.LVL42:
 375              	.LBB111:
 376              		.loc 1 206 0
 377 00d4 2B46     		mov	r3, r5
 378              	@ 206 "../../ChibiOS_2.4.3/test/testqueues.c" 1
 379 00d6 83F31188 		msr     BASEPRI, r3
 380              	@ 0 "" 2
 381              	.LVL43:
 382              		.thumb
 383              	.LBE111:
 384              		.loc 1 207 0
 385 00da C0B2     		uxtb	r0, r0
 386              	.LVL44:
 387 00dc FFF7FEFF 		bl	test_emit_token
 388              	.LVL45:
 389              	.LBE103:
 390              	.LBB112:
 391              		.loc 1 209 0
 392 00e0 2023     		movs	r3, #32
ARM GAS  /tmp/cc4LuFZd.s 			page 8


 393              	.LVL46:
 394              	@ 209 "../../ChibiOS_2.4.3/test/testqueues.c" 1
 395 00e2 83F31188 		msr     BASEPRI, r3
 396              	@ 0 "" 2
 397              	.LVL47:
 398              		.thumb
 399              	.LBE112:
 400 00e6 6069     		ldr	r0, [r4, #20]
 401 00e8 A269     		ldr	r2, [r4, #24]
 402 00ea 9042     		cmp	r0, r2
 403 00ec 30D0     		beq	.L26
 404 00ee 2946     		mov	r1, r5
 405              	.L11:
 406 00f0 0320     		movs	r0, #3
 407 00f2 FFF7FEFF 		bl	_test_assert
 408              	.LVL48:
 409 00f6 48B1     		cbz	r0, .L12
 410              	.LVL49:
 411              	.L22:
 412              	.LBB113:
 413 00f8 0023     		movs	r3, #0
 414              	.LVL50:
 415              	@ 209 "../../ChibiOS_2.4.3/test/testqueues.c" 1
 416 00fa 83F31188 		msr     BASEPRI, r3
 417              	@ 0 "" 2
 418              	.LVL51:
 419              		.thumb
 420              	.L6:
 421              	.LBE113:
 422              	.LBE99:
 423              	.LBE98:
 424              		.loc 1 236 0
 425 00fe 02B0     		add	sp, sp, #8
 426 0100 BDE8F081 		pop	{r4, r5, r6, r7, r8, pc}
 427              	.LVL52:
 428              	.L23:
 429              	.LBB135:
 430              	.LBB132:
 431              	.LBB114:
 432              		.loc 1 225 0
 433 0104 3346     		mov	r3, r6
 434              	@ 225 "../../ChibiOS_2.4.3/test/testqueues.c" 1
 435 0106 83F31188 		msr     BASEPRI, r3
 436              	@ 0 "" 2
 437              	.LVL53:
 438              		.thumb
 439 010a F8E7     		b	.L6
 440              	.LVL54:
 441              	.L12:
 442              	.LBE114:
 443              	.LBB115:
 444              		.loc 1 209 0
 445 010c 0346     		mov	r3, r0
 446              	.LVL55:
 447              	@ 209 "../../ChibiOS_2.4.3/test/testqueues.c" 1
 448 010e 83F31188 		msr     BASEPRI, r3
 449              	@ 0 "" 2
ARM GAS  /tmp/cc4LuFZd.s 			page 9


 450              	.LVL56:
 451              		.thumb
 452              	.LBE115:
 453              		.loc 1 210 0
 454 0112 0420     		movs	r0, #4
 455 0114 6949     		ldr	r1, .L27+4
 456 0116 FFF7FEFF 		bl	_test_assert_sequence
 457              	.LVL57:
 458 011a 0446     		mov	r4, r0
 459 011c 0028     		cmp	r0, #0
 460 011e EED1     		bne	.L6
 461              	.LBB116:
 462              		.loc 1 211 0
 463 0120 2023     		movs	r3, #32
 464              	.LVL58:
 465              	@ 211 "../../ChibiOS_2.4.3/test/testqueues.c" 1
 466 0122 83F31188 		msr     BASEPRI, r3
 467              	@ 0 "" 2
 468              	.LVL59:
 469              		.thumb
 470              	.LBE116:
 471 0126 644D     		ldr	r5, .L27
 472 0128 2846     		mov	r0, r5
 473 012a FFF7FEFF 		bl	chOQGetI
 474              	.LVL60:
 475 012e 0330     		adds	r0, r0, #3
 476 0130 14BF     		ite	ne
 477 0132 0021     		movne	r1, #0
 478 0134 0121     		moveq	r1, #1
 479 0136 0520     		movs	r0, #5
 480 0138 FFF7FEFF 		bl	_test_assert
 481              	.LVL61:
 482 013c 68B1     		cbz	r0, .L14
 483              	.LBB117:
 484 013e 2346     		mov	r3, r4
 485              	@ 211 "../../ChibiOS_2.4.3/test/testqueues.c" 1
 486 0140 83F31188 		msr     BASEPRI, r3
 487              	@ 0 "" 2
 488              	.LVL62:
 489              		.thumb
 490 0144 DBE7     		b	.L6
 491              	.LVL63:
 492              	.L25:
 493              	.LBE117:
 494              	.LBE132:
 495              	.LBE135:
 496              		.loc 1 193 0 discriminator 1
 497 0146 A968     		ldr	r1, [r5, #8]
 498 0148 0031     		adds	r1, r1, #0
 499 014a 18BF     		it	ne
 500 014c 0121     		movne	r1, #1
 501 014e 64E7     		b	.L7
 502              	.LVL64:
 503              	.L26:
 504              	.LBB136:
 505              	.LBB133:
 506              		.loc 1 209 0
ARM GAS  /tmp/cc4LuFZd.s 			page 10


 507 0150 A368     		ldr	r3, [r4, #8]
 508              	.LVL65:
 509 0152 191C     		adds	r1, r3, #0
 510 0154 18BF     		it	ne
 511 0156 0121     		movne	r1, #1
 512 0158 CAE7     		b	.L11
 513              	.L14:
 514              	.LBB118:
 515              		.loc 1 211 0
 516 015a 0346     		mov	r3, r0
 517              	.LVL66:
 518              	@ 211 "../../ChibiOS_2.4.3/test/testqueues.c" 1
 519 015c 83F31188 		msr     BASEPRI, r3
 520              	@ 0 "" 2
 521              	.LVL67:
 522              		.thumb
 523              	.LBE118:
 524              		.loc 1 214 0
 525 0160 574E     		ldr	r6, .L27+8
 526 0162 7468     		ldr	r4, [r6, #4]
 527 0164 0822     		movs	r2, #8
 528 0166 2146     		mov	r1, r4
 529 0168 2846     		mov	r0, r5
 530 016a FFF7FEFF 		bl	chOQWriteTimeout
 531              	.LVL68:
 532              		.loc 1 215 0
 533 016e 071F     		subs	r7, r0, #4
 534 0170 7942     		rsbs	r1, r7, #0
 535 0172 7941     		adcs	r1, r1, r7
 536 0174 0620     		movs	r0, #6
 537              	.LVL69:
 538 0176 FFF7FEFF 		bl	_test_assert
 539              	.LVL70:
 540 017a 0746     		mov	r7, r0
 541              	.LVL71:
 542 017c 0028     		cmp	r0, #0
 543 017e BED1     		bne	.L6
 544              	.LBB119:
 545              		.loc 1 216 0
 546 0180 2023     		movs	r3, #32
 547              	.LVL72:
 548              	@ 216 "../../ChibiOS_2.4.3/test/testqueues.c" 1
 549 0182 83F31188 		msr     BASEPRI, r3
 550              	@ 0 "" 2
 551              	.LVL73:
 552              		.thumb
 553              	.LBE119:
 554 0186 AA68     		ldr	r2, [r5, #8]
 555 0188 0720     		movs	r0, #7
 556 018a D2F10101 		rsbs	r1, r2, #1
 557 018e 38BF     		it	cc
 558 0190 0021     		movcc	r1, #0
 559 0192 FFF7FEFF 		bl	_test_assert
 560              	.LVL74:
 561 0196 8046     		mov	r8, r0
 562 0198 18B1     		cbz	r0, .L16
 563              	.LBB120:
ARM GAS  /tmp/cc4LuFZd.s 			page 11


 564 019a 3B46     		mov	r3, r7
 565              	@ 216 "../../ChibiOS_2.4.3/test/testqueues.c" 1
 566 019c 83F31188 		msr     BASEPRI, r3
 567              	@ 0 "" 2
 568              	.LVL75:
 569              		.thumb
 570 01a0 ADE7     		b	.L6
 571              	.LVL76:
 572              	.L16:
 573              	.LBE120:
 574              	.LBB121:
 575 01a2 0346     		mov	r3, r0
 576              	.LVL77:
 577              	@ 216 "../../ChibiOS_2.4.3/test/testqueues.c" 1
 578 01a4 83F31188 		msr     BASEPRI, r3
 579              	@ 0 "" 2
 580              	.LVL78:
 581              		.thumb
 582              	.LBE121:
 583              		.loc 1 217 0
 584 01a8 3068     		ldr	r0, [r6, #0]
 585 01aa 464E     		ldr	r6, .L27+12
 586 01ac 464B     		ldr	r3, .L27+16
 587              	.LVL79:
 588 01ae F169     		ldr	r1, [r6, #28]
 589 01b0 464E     		ldr	r6, .L27+20
 590 01b2 8A68     		ldr	r2, [r1, #8]
 591 01b4 CDF80080 		str	r8, [sp, #0]
 592 01b8 4FF49871 		mov	r1, #304
 593 01bc 0132     		adds	r2, r2, #1
 594 01be FFF7FEFF 		bl	chThdCreateStatic
 595              	.LVL80:
 596              	.LBB122:
 597              		.loc 1 218 0
 598 01c2 2023     		movs	r3, #32
 599              	.LVL81:
 600              	.LBE122:
 601              		.loc 1 217 0
 602 01c4 3060     		str	r0, [r6, #0]
 603              	.LBB123:
 604              		.loc 1 218 0
 605              	@ 218 "../../ChibiOS_2.4.3/test/testqueues.c" 1
 606 01c6 83F31188 		msr     BASEPRI, r3
 607              	@ 0 "" 2
 608              	.LVL82:
 609              		.thumb
 610              	.LBE123:
 611 01ca 2869     		ldr	r0, [r5, #16]
 612 01cc E968     		ldr	r1, [r5, #12]
 613 01ce AB68     		ldr	r3, [r5, #8]
 614              	.LVL83:
 615 01d0 421A     		subs	r2, r0, r1
 616 01d2 D61A     		subs	r6, r2, r3
 617 01d4 0820     		movs	r0, #8
 618 01d6 B6F1040C 		subs	ip, r6, #4
 619 01da DCF10001 		rsbs	r1, ip, #0
 620 01de 51EB0C01 		adcs	r1, r1, ip
ARM GAS  /tmp/cc4LuFZd.s 			page 12


 621 01e2 FFF7FEFF 		bl	_test_assert
 622              	.LVL84:
 623 01e6 0646     		mov	r6, r0
 624 01e8 18B1     		cbz	r0, .L17
 625              	.LBB124:
 626 01ea 4346     		mov	r3, r8
 627              	@ 218 "../../ChibiOS_2.4.3/test/testqueues.c" 1
 628 01ec 83F31188 		msr     BASEPRI, r3
 629              	@ 0 "" 2
 630              	.LVL85:
 631              		.thumb
 632 01f0 85E7     		b	.L6
 633              	.LVL86:
 634              	.L17:
 635              	.LBE124:
 636              	.LBB125:
 637 01f2 0346     		mov	r3, r0
 638              	.LVL87:
 639              	@ 218 "../../ChibiOS_2.4.3/test/testqueues.c" 1
 640 01f4 83F31188 		msr     BASEPRI, r3
 641              	@ 0 "" 2
 642              	.LVL88:
 643              		.thumb
 644              	.LBE125:
 645              		.loc 1 219 0
 646 01f8 FFF7FEFF 		bl	test_wait_threads
 647              	.LVL89:
 648              	.LBB126:
 649              		.loc 1 222 0
 650 01fc 2023     		movs	r3, #32
 651              	.LVL90:
 652              	@ 222 "../../ChibiOS_2.4.3/test/testqueues.c" 1
 653 01fe 83F31188 		msr     BASEPRI, r3
 654              	@ 0 "" 2
 655              	.LVL91:
 656              		.thumb
 657              	.LBE126:
 658              		.loc 1 223 0
 659 0202 2846     		mov	r0, r5
 660 0204 FFF7FEFF 		bl	chOQResetI
 661              	.LVL92:
 662              	.LBB127:
 663              		.loc 1 224 0
 664 0208 3346     		mov	r3, r6
 665              	.LVL93:
 666              	@ 224 "../../ChibiOS_2.4.3/test/testqueues.c" 1
 667 020a 83F31188 		msr     BASEPRI, r3
 668              	@ 0 "" 2
 669              	.LVL94:
 670              		.thumb
 671              	.LBE127:
 672              	.LBB128:
 673              		.loc 1 225 0
 674 020e 2023     		movs	r3, #32
 675              	.LVL95:
 676              	@ 225 "../../ChibiOS_2.4.3/test/testqueues.c" 1
 677 0210 83F31188 		msr     BASEPRI, r3
ARM GAS  /tmp/cc4LuFZd.s 			page 13


 678              	@ 0 "" 2
 679              	.LVL96:
 680              		.thumb
 681              	.LBE128:
 682 0214 2869     		ldr	r0, [r5, #16]
 683 0216 EA68     		ldr	r2, [r5, #12]
 684 0218 AB68     		ldr	r3, [r5, #8]
 685              	.LVL97:
 686 021a 811A     		subs	r1, r0, r2
 687 021c 0920     		movs	r0, #9
 688 021e B1EB030E 		subs	lr, r1, r3
 689 0222 DEF10002 		rsbs	r2, lr, #0
 690 0226 52EB0E01 		adcs	r1, r2, lr
 691 022a FFF7FEFF 		bl	_test_assert
 692              	.LVL98:
 693 022e 0346     		mov	r3, r0
 694 0230 0028     		cmp	r0, #0
 695 0232 7FF467AF 		bne	.L23
 696              	.LBB129:
 697              	@ 225 "../../ChibiOS_2.4.3/test/testqueues.c" 1
 698 0236 83F31188 		msr     BASEPRI, r3
 699              	@ 0 "" 2
 700              	.LVL99:
 701              		.thumb
 702              	.LBE129:
 703              		.loc 1 228 0
 704 023a 0222     		movs	r2, #2
 705 023c 2146     		mov	r1, r4
 706 023e 2846     		mov	r0, r5
 707 0240 FFF7FEFF 		bl	chOQWriteTimeout
 708              	.LVL100:
 709              		.loc 1 229 0
 710 0244 0238     		subs	r0, r0, #2
 711              	.LVL101:
 712 0246 4342     		rsbs	r3, r0, #0
 713 0248 53EB0001 		adcs	r1, r3, r0
 714 024c 0A20     		movs	r0, #10
 715              	.LVL102:
 716 024e FFF7FEFF 		bl	_test_assert
 717              	.LVL103:
 718 0252 0346     		mov	r3, r0
 719 0254 0028     		cmp	r0, #0
 720 0256 7FF452AF 		bne	.L6
 721              		.loc 1 230 0
 722 025a 2146     		mov	r1, r4
 723 025c 0222     		movs	r2, #2
 724 025e 2846     		mov	r0, r5
 725 0260 FFF7FEFF 		bl	chOQWriteTimeout
 726              	.LVL104:
 727              		.loc 1 231 0
 728 0264 821E     		subs	r2, r0, #2
 729 0266 5142     		rsbs	r1, r2, #0
 730 0268 5141     		adcs	r1, r1, r2
 731 026a 0B20     		movs	r0, #11
 732              	.LVL105:
 733 026c FFF7FEFF 		bl	_test_assert
 734              	.LVL106:
ARM GAS  /tmp/cc4LuFZd.s 			page 14


 735 0270 0028     		cmp	r0, #0
 736 0272 7FF444AF 		bne	.L6
 737              	.LBB130:
 738              		.loc 1 232 0
 739 0276 2023     		movs	r3, #32
 740              	.LVL107:
 741              	@ 232 "../../ChibiOS_2.4.3/test/testqueues.c" 1
 742 0278 83F31188 		msr     BASEPRI, r3
 743              	@ 0 "" 2
 744              	.LVL108:
 745              		.thumb
 746              	.LBE130:
 747 027c AB68     		ldr	r3, [r5, #8]
 748              	.LVL109:
 749 027e 0C20     		movs	r0, #12
 750 0280 D3F10101 		rsbs	r1, r3, #1
 751 0284 38BF     		it	cc
 752 0286 0021     		movcc	r1, #0
 753 0288 FFF7FEFF 		bl	_test_assert
 754              	.LVL110:
 755              	.LBB131:
 756 028c 0023     		movs	r3, #0
 757              	@ 232 "../../ChibiOS_2.4.3/test/testqueues.c" 1
 758 028e 83F31188 		msr     BASEPRI, r3
 759              	@ 0 "" 2
 760              	.LVL111:
 761              		.thumb
 762              	.LBE131:
 763 0292 0028     		cmp	r0, #0
 764 0294 7FF433AF 		bne	.L6
 765              		.loc 1 235 0
 766 0298 1946     		mov	r1, r3
 767              	.LVL112:
 768 029a 0A22     		movs	r2, #10
 769 029c 0648     		ldr	r0, .L27
 770 029e FFF7FEFF 		bl	chOQPutTimeout
 771              	.LVL113:
 772 02a2 B0F1FF30 		subs	r0, r0, #-1
 773 02a6 4242     		rsbs	r2, r0, #0
 774 02a8 52EB0001 		adcs	r1, r2, r0
 775 02ac 0D20     		movs	r0, #13
 776              	.LBE133:
 777              	.LBE136:
 778              		.loc 1 236 0
 779 02ae 02B0     		add	sp, sp, #8
 780 02b0 BDE8F041 		pop	{r4, r5, r6, r7, r8, lr}
 781              	.LBB137:
 782              	.LBB134:
 783              		.loc 1 235 0
 784 02b4 FFF7FEBF 		b	_test_assert
 785              	.LVL114:
 786              	.L28:
 787              		.align	2
 788              	.L27:
 789 02b8 00000000 		.word	.LANCHOR0
 790 02bc 00000000 		.word	.LC0
 791 02c0 00000000 		.word	wa
ARM GAS  /tmp/cc4LuFZd.s 			page 15


 792 02c4 00000000 		.word	rlist
 793 02c8 00000000 		.word	thread2
 794 02cc 00000000 		.word	threads
 795              	.LBE134:
 796              	.LBE137:
 797              		.cfi_endproc
 798              	.LFE13:
 799              		.size	queues2_execute, .-queues2_execute
 800              		.section	.text.queues1_execute,"ax",%progbits
 801              		.align	2
 802              		.p2align 4,,15
 803              		.thumb
 804              		.thumb_func
 805              		.type	queues1_execute, %function
 806              	queues1_execute:
 807              	.LFB10:
 808              		.loc 1 101 0
 809              		.cfi_startproc
 810              		@ args = 0, pretend = 0, frame = 0
 811              		@ frame_needed = 0, uses_anonymous_args = 0
 812 0000 2DE9F043 		push	{r4, r5, r6, r7, r8, r9, lr}
 813              	.LCFI4:
 814              		.cfi_def_cfa_offset 28
 815              		.cfi_offset 4, -28
 816              		.cfi_offset 5, -24
 817              		.cfi_offset 6, -20
 818              		.cfi_offset 7, -16
 819              		.cfi_offset 8, -12
 820              		.cfi_offset 9, -8
 821              		.cfi_offset 14, -4
 822              	.LBB174:
 823              		.loc 1 106 0
 824 0004 2023     		movs	r3, #32
 825              	.LVL115:
 826              	.LBE174:
 827              		.loc 1 101 0
 828 0006 83B0     		sub	sp, sp, #12
 829              	.LCFI5:
 830              		.cfi_def_cfa_offset 40
 831              	.LBB175:
 832              		.loc 1 106 0
 833              	@ 106 "../../ChibiOS_2.4.3/test/testqueues.c" 1
 834 0008 83F31188 		msr     BASEPRI, r3
 835              	@ 0 "" 2
 836              	.LVL116:
 837              		.thumb
 838              	.LBE175:
 839 000c 894C     		ldr	r4, .L47
 840 000e A168     		ldr	r1, [r4, #8]
 841 0010 0120     		movs	r0, #1
 842 0012 D1F10101 		rsbs	r1, r1, #1
 843 0016 38BF     		it	cc
 844 0018 0021     		movcc	r1, #0
 845 001a FFF7FEFF 		bl	_test_assert
 846              	.LVL117:
 847 001e 0546     		mov	r5, r0
 848 0020 28BB     		cbnz	r0, .L44
ARM GAS  /tmp/cc4LuFZd.s 			page 16


 849              	.LBB176:
 850              	.LBB177:
 851              	.LBB178:
 852 0022 0346     		mov	r3, r0
 853              	.LVL118:
 854              	@ 106 "../../ChibiOS_2.4.3/test/testqueues.c" 1
 855 0024 83F31188 		msr     BASEPRI, r3
 856              	@ 0 "" 2
 857              	.LVL119:
 858              		.thumb
 859              	.LBE178:
 860              	.LBB179:
 861              		.loc 1 109 0
 862 0028 2023     		movs	r3, #32
 863              	.LVL120:
 864              	@ 109 "../../ChibiOS_2.4.3/test/testqueues.c" 1
 865 002a 83F31188 		msr     BASEPRI, r3
 866              	@ 0 "" 2
 867              	.LVL121:
 868              		.thumb
 869              	.LBE179:
 870              		.loc 1 111 0
 871 002e 4121     		movs	r1, #65
 872 0030 2046     		mov	r0, r4
 873 0032 FFF7FEFF 		bl	chIQPutI
 874              	.LVL122:
 875 0036 4221     		movs	r1, #66
 876 0038 2046     		mov	r0, r4
 877 003a FFF7FEFF 		bl	chIQPutI
 878              	.LVL123:
 879 003e 4321     		movs	r1, #67
 880 0040 2046     		mov	r0, r4
 881 0042 FFF7FEFF 		bl	chIQPutI
 882              	.LVL124:
 883 0046 2046     		mov	r0, r4
 884 0048 4421     		movs	r1, #68
 885 004a FFF7FEFF 		bl	chIQPutI
 886              	.LVL125:
 887              	.LBB180:
 888              		.loc 1 112 0
 889 004e 2B46     		mov	r3, r5
 890              	.LVL126:
 891              	@ 112 "../../ChibiOS_2.4.3/test/testqueues.c" 1
 892 0050 83F31188 		msr     BASEPRI, r3
 893              	@ 0 "" 2
 894              	.LVL127:
 895              		.thumb
 896              	.LBE180:
 897              	.LBB181:
 898              		.loc 1 113 0
 899 0054 2023     		movs	r3, #32
 900              	.LVL128:
 901              	@ 113 "../../ChibiOS_2.4.3/test/testqueues.c" 1
 902 0056 83F31188 		msr     BASEPRI, r3
 903              	@ 0 "" 2
 904              	.LVL129:
 905              		.thumb
ARM GAS  /tmp/cc4LuFZd.s 			page 17


 906              	.LBE181:
 907 005a 6269     		ldr	r2, [r4, #20]
 908 005c A369     		ldr	r3, [r4, #24]
 909              	.LVL130:
 910 005e 9A42     		cmp	r2, r3
 911 0060 56D0     		beq	.L46
 912 0062 2946     		mov	r1, r5
 913              	.L32:
 914 0064 0220     		movs	r0, #2
 915 0066 FFF7FEFF 		bl	_test_assert
 916              	.LVL131:
 917 006a 0546     		mov	r5, r0
 918 006c 28B1     		cbz	r0, .L33
 919              	.LVL132:
 920              	.L44:
 921              	.LBB182:
 922 006e 0023     		movs	r3, #0
 923              	.LVL133:
 924              	@ 113 "../../ChibiOS_2.4.3/test/testqueues.c" 1
 925 0070 83F31188 		msr     BASEPRI, r3
 926              	@ 0 "" 2
 927              	.LVL134:
 928              		.thumb
 929              	.L29:
 930              	.LBE182:
 931              	.LBE177:
 932              	.LBE176:
 933              		.loc 1 158 0
 934 0074 03B0     		add	sp, sp, #12
 935 0076 BDE8F083 		pop	{r4, r5, r6, r7, r8, r9, pc}
 936              	.LVL135:
 937              	.L33:
 938              	.LBB208:
 939              	.LBB206:
 940              	.LBB183:
 941              		.loc 1 113 0
 942 007a 0346     		mov	r3, r0
 943              	.LVL136:
 944              	@ 113 "../../ChibiOS_2.4.3/test/testqueues.c" 1
 945 007c 83F31188 		msr     BASEPRI, r3
 946              	@ 0 "" 2
 947              	.LVL137:
 948              		.thumb
 949              	.LBE183:
 950              	.LBB184:
 951              		.loc 1 114 0
 952 0080 2023     		movs	r3, #32
 953              	.LVL138:
 954              	@ 114 "../../ChibiOS_2.4.3/test/testqueues.c" 1
 955 0082 83F31188 		msr     BASEPRI, r3
 956              	@ 0 "" 2
 957              	.LVL139:
 958              		.thumb
 959              	.LBE184:
 960 0086 6B4E     		ldr	r6, .L47
 961 0088 0146     		mov	r1, r0
 962 008a 3046     		mov	r0, r6
ARM GAS  /tmp/cc4LuFZd.s 			page 18


 963 008c FFF7FEFF 		bl	chIQPutI
 964              	.LVL140:
 965 0090 0430     		adds	r0, r0, #4
 966 0092 14BF     		ite	ne
 967 0094 0021     		movne	r1, #0
 968 0096 0121     		moveq	r1, #1
 969 0098 0320     		movs	r0, #3
 970 009a FFF7FEFF 		bl	_test_assert
 971              	.LVL141:
 972 009e 0746     		mov	r7, r0
 973 00a0 90BB     		cbnz	r0, .L45
 974              	.LBB185:
 975 00a2 0346     		mov	r3, r0
 976              	.LVL142:
 977              	@ 114 "../../ChibiOS_2.4.3/test/testqueues.c" 1
 978 00a4 83F31188 		msr     BASEPRI, r3
 979              	@ 0 "" 2
 980              	.LVL143:
 981              		.thumb
 982              	.LBE185:
 983              		.loc 1 118 0
 984 00a8 4FF0FF31 		mov	r1, #-1
 985 00ac 3046     		mov	r0, r6
 986 00ae FFF7FEFF 		bl	chIQGetTimeout
 987              	.LVL144:
 988 00b2 C0B2     		uxtb	r0, r0
 989 00b4 FFF7FEFF 		bl	test_emit_token
 990              	.LVL145:
 991 00b8 4FF0FF31 		mov	r1, #-1
 992 00bc 3046     		mov	r0, r6
 993 00be FFF7FEFF 		bl	chIQGetTimeout
 994              	.LVL146:
 995 00c2 C0B2     		uxtb	r0, r0
 996 00c4 FFF7FEFF 		bl	test_emit_token
 997              	.LVL147:
 998 00c8 4FF0FF31 		mov	r1, #-1
 999 00cc 3046     		mov	r0, r6
 1000 00ce FFF7FEFF 		bl	chIQGetTimeout
 1001              	.LVL148:
 1002 00d2 C0B2     		uxtb	r0, r0
 1003 00d4 FFF7FEFF 		bl	test_emit_token
 1004              	.LVL149:
 1005 00d8 4FF0FF31 		mov	r1, #-1
 1006 00dc 3046     		mov	r0, r6
 1007 00de FFF7FEFF 		bl	chIQGetTimeout
 1008              	.LVL150:
 1009 00e2 C0B2     		uxtb	r0, r0
 1010 00e4 FFF7FEFF 		bl	test_emit_token
 1011              	.LVL151:
 1012              	.LBB186:
 1013              		.loc 1 119 0
 1014 00e8 2023     		movs	r3, #32
 1015              	.LVL152:
 1016              	@ 119 "../../ChibiOS_2.4.3/test/testqueues.c" 1
 1017 00ea 83F31188 		msr     BASEPRI, r3
 1018              	@ 0 "" 2
 1019              	.LVL153:
ARM GAS  /tmp/cc4LuFZd.s 			page 19


 1020              		.thumb
 1021              	.LBE186:
 1022 00ee B168     		ldr	r1, [r6, #8]
 1023 00f0 0420     		movs	r0, #4
 1024 00f2 D1F10101 		rsbs	r1, r1, #1
 1025 00f6 38BF     		it	cc
 1026 00f8 0021     		movcc	r1, #0
 1027 00fa FFF7FEFF 		bl	_test_assert
 1028              	.LVL154:
 1029 00fe 60B1     		cbz	r0, .L35
 1030              	.LBB187:
 1031 0100 3B46     		mov	r3, r7
 1032              	@ 119 "../../ChibiOS_2.4.3/test/testqueues.c" 1
 1033 0102 83F31188 		msr     BASEPRI, r3
 1034              	@ 0 "" 2
 1035              	.LVL155:
 1036              		.thumb
 1037 0106 B5E7     		b	.L29
 1038              	.LVL156:
 1039              	.L45:
 1040              	.LBE187:
 1041              	.LBB188:
 1042              		.loc 1 153 0
 1043 0108 2B46     		mov	r3, r5
 1044              	@ 153 "../../ChibiOS_2.4.3/test/testqueues.c" 1
 1045 010a 83F31188 		msr     BASEPRI, r3
 1046              	@ 0 "" 2
 1047              	.LVL157:
 1048              		.thumb
 1049 010e B1E7     		b	.L29
 1050              	.LVL158:
 1051              	.L46:
 1052              	.LBE188:
 1053              		.loc 1 113 0
 1054 0110 A068     		ldr	r0, [r4, #8]
 1055 0112 011C     		adds	r1, r0, #0
 1056 0114 18BF     		it	ne
 1057 0116 0121     		movne	r1, #1
 1058 0118 A4E7     		b	.L32
 1059              	.L35:
 1060              	.LBB189:
 1061              		.loc 1 119 0
 1062 011a 0346     		mov	r3, r0
 1063              	.LVL159:
 1064              	@ 119 "../../ChibiOS_2.4.3/test/testqueues.c" 1
 1065 011c 83F31188 		msr     BASEPRI, r3
 1066              	@ 0 "" 2
 1067              	.LVL160:
 1068              		.thumb
 1069              	.LBE189:
 1070              		.loc 1 120 0
 1071 0120 0520     		movs	r0, #5
 1072 0122 4549     		ldr	r1, .L47+4
 1073 0124 FFF7FEFF 		bl	_test_assert_sequence
 1074              	.LVL161:
 1075 0128 0546     		mov	r5, r0
 1076 012a 0028     		cmp	r0, #0
ARM GAS  /tmp/cc4LuFZd.s 			page 20


 1077 012c A2D1     		bne	.L29
 1078              	.LBB190:
 1079              		.loc 1 123 0
 1080 012e 2023     		movs	r3, #32
 1081              	.LVL162:
 1082              	@ 123 "../../ChibiOS_2.4.3/test/testqueues.c" 1
 1083 0130 83F31188 		msr     BASEPRI, r3
 1084              	@ 0 "" 2
 1085              	.LVL163:
 1086              		.thumb
 1087              	.LBE190:
 1088              		.loc 1 125 0
 1089 0134 4121     		movs	r1, #65
 1090 0136 3046     		mov	r0, r6
 1091 0138 FFF7FEFF 		bl	chIQPutI
 1092              	.LVL164:
 1093 013c 4221     		movs	r1, #66
 1094 013e 3046     		mov	r0, r6
 1095 0140 FFF7FEFF 		bl	chIQPutI
 1096              	.LVL165:
 1097 0144 4321     		movs	r1, #67
 1098 0146 3046     		mov	r0, r6
 1099 0148 FFF7FEFF 		bl	chIQPutI
 1100              	.LVL166:
 1101 014c 3046     		mov	r0, r6
 1102 014e 4421     		movs	r1, #68
 1103 0150 FFF7FEFF 		bl	chIQPutI
 1104              	.LVL167:
 1105              	.LBB191:
 1106              		.loc 1 126 0
 1107 0154 2B46     		mov	r3, r5
 1108              	.LVL168:
 1109              	@ 126 "../../ChibiOS_2.4.3/test/testqueues.c" 1
 1110 0156 83F31188 		msr     BASEPRI, r3
 1111              	@ 0 "" 2
 1112              	.LVL169:
 1113              		.thumb
 1114              	.LBE191:
 1115              		.loc 1 129 0
 1116 015a 384F     		ldr	r7, .L47+8
 1117 015c 7D68     		ldr	r5, [r7, #4]
 1118 015e 0822     		movs	r2, #8
 1119 0160 2946     		mov	r1, r5
 1120 0162 3046     		mov	r0, r6
 1121 0164 FFF7FEFF 		bl	chIQReadTimeout
 1122              	.LVL170:
 1123              		.loc 1 130 0
 1124 0168 021F     		subs	r2, r0, #4
 1125 016a 5342     		rsbs	r3, r2, #0
 1126 016c 53EB0201 		adcs	r1, r3, r2
 1127 0170 0620     		movs	r0, #6
 1128              	.LVL171:
 1129 0172 FFF7FEFF 		bl	_test_assert
 1130              	.LVL172:
 1131 0176 8046     		mov	r8, r0
 1132 0178 0028     		cmp	r0, #0
 1133 017a 7FF47BAF 		bne	.L29
ARM GAS  /tmp/cc4LuFZd.s 			page 21


 1134              	.LBB192:
 1135              		.loc 1 131 0
 1136 017e 2023     		movs	r3, #32
 1137              	.LVL173:
 1138              	@ 131 "../../ChibiOS_2.4.3/test/testqueues.c" 1
 1139 0180 83F31188 		msr     BASEPRI, r3
 1140              	@ 0 "" 2
 1141              	.LVL174:
 1142              		.thumb
 1143              	.LBE192:
 1144 0184 B168     		ldr	r1, [r6, #8]
 1145 0186 0720     		movs	r0, #7
 1146 0188 D1F10101 		rsbs	r1, r1, #1
 1147 018c 38BF     		it	cc
 1148 018e 0021     		movcc	r1, #0
 1149 0190 FFF7FEFF 		bl	_test_assert
 1150              	.LVL175:
 1151 0194 8146     		mov	r9, r0
 1152 0196 0028     		cmp	r0, #0
 1153 0198 47D1     		bne	.L43
 1154              	.LBB193:
 1155 019a 0346     		mov	r3, r0
 1156              	.LVL176:
 1157              	@ 131 "../../ChibiOS_2.4.3/test/testqueues.c" 1
 1158 019c 83F31188 		msr     BASEPRI, r3
 1159              	@ 0 "" 2
 1160              	.LVL177:
 1161              		.thumb
 1162              	.LBE193:
 1163              	.LBB194:
 1164              		.loc 1 134 0
 1165 01a0 2023     		movs	r3, #32
 1166              	.LVL178:
 1167              	@ 134 "../../ChibiOS_2.4.3/test/testqueues.c" 1
 1168 01a2 83F31188 		msr     BASEPRI, r3
 1169              	@ 0 "" 2
 1170              	.LVL179:
 1171              		.thumb
 1172              	.LBE194:
 1173              		.loc 1 136 0
 1174 01a6 4121     		movs	r1, #65
 1175 01a8 3046     		mov	r0, r6
 1176 01aa FFF7FEFF 		bl	chIQPutI
 1177              	.LVL180:
 1178 01ae 4221     		movs	r1, #66
 1179 01b0 3046     		mov	r0, r6
 1180 01b2 FFF7FEFF 		bl	chIQPutI
 1181              	.LVL181:
 1182 01b6 4321     		movs	r1, #67
 1183 01b8 3046     		mov	r0, r6
 1184 01ba FFF7FEFF 		bl	chIQPutI
 1185              	.LVL182:
 1186 01be 3046     		mov	r0, r6
 1187 01c0 4421     		movs	r1, #68
 1188 01c2 FFF7FEFF 		bl	chIQPutI
 1189              	.LVL183:
 1190              	.LBB195:
ARM GAS  /tmp/cc4LuFZd.s 			page 22


 1191              		.loc 1 137 0
 1192 01c6 4B46     		mov	r3, r9
 1193              	.LVL184:
 1194              	@ 137 "../../ChibiOS_2.4.3/test/testqueues.c" 1
 1195 01c8 83F31188 		msr     BASEPRI, r3
 1196              	@ 0 "" 2
 1197              	.LVL185:
 1198              		.thumb
 1199              	.LBE195:
 1200              		.loc 1 140 0
 1201 01cc 0222     		movs	r2, #2
 1202 01ce 2946     		mov	r1, r5
 1203 01d0 3046     		mov	r0, r6
 1204 01d2 FFF7FEFF 		bl	chIQReadTimeout
 1205              	.LVL186:
 1206              		.loc 1 141 0
 1207 01d6 0238     		subs	r0, r0, #2
 1208              	.LVL187:
 1209 01d8 4242     		rsbs	r2, r0, #0
 1210 01da 52EB0001 		adcs	r1, r2, r0
 1211 01de 0820     		movs	r0, #8
 1212              	.LVL188:
 1213 01e0 FFF7FEFF 		bl	_test_assert
 1214              	.LVL189:
 1215 01e4 0028     		cmp	r0, #0
 1216 01e6 7FF445AF 		bne	.L29
 1217              		.loc 1 142 0
 1218 01ea 0222     		movs	r2, #2
 1219 01ec 0346     		mov	r3, r0
 1220 01ee 2946     		mov	r1, r5
 1221 01f0 3046     		mov	r0, r6
 1222 01f2 FFF7FEFF 		bl	chIQReadTimeout
 1223              	.LVL190:
 1224              		.loc 1 143 0
 1225 01f6 B0F1020C 		subs	ip, r0, #2
 1226 01fa DCF10003 		rsbs	r3, ip, #0
 1227 01fe 53EB0C01 		adcs	r1, r3, ip
 1228 0202 0920     		movs	r0, #9
 1229              	.LVL191:
 1230 0204 FFF7FEFF 		bl	_test_assert
 1231              	.LVL192:
 1232 0208 8046     		mov	r8, r0
 1233 020a 0028     		cmp	r0, #0
 1234 020c 7FF432AF 		bne	.L29
 1235              	.LBB196:
 1236              		.loc 1 144 0
 1237 0210 2023     		movs	r3, #32
 1238              	.LVL193:
 1239              	@ 144 "../../ChibiOS_2.4.3/test/testqueues.c" 1
 1240 0212 83F31188 		msr     BASEPRI, r3
 1241              	@ 0 "" 2
 1242              	.LVL194:
 1243              		.thumb
 1244              	.LBE196:
 1245 0216 B568     		ldr	r5, [r6, #8]
 1246 0218 0A20     		movs	r0, #10
 1247 021a D5F10101 		rsbs	r1, r5, #1
ARM GAS  /tmp/cc4LuFZd.s 			page 23


 1248 021e 38BF     		it	cc
 1249 0220 0021     		movcc	r1, #0
 1250 0222 FFF7FEFF 		bl	_test_assert
 1251              	.LVL195:
 1252 0226 0546     		mov	r5, r0
 1253 0228 50B1     		cbz	r0, .L39
 1254              	.L43:
 1255              	.LBB197:
 1256 022a 4346     		mov	r3, r8
 1257              	@ 144 "../../ChibiOS_2.4.3/test/testqueues.c" 1
 1258 022c 83F31188 		msr     BASEPRI, r3
 1259              	@ 0 "" 2
 1260              	.LVL196:
 1261              		.thumb
 1262 0230 20E7     		b	.L29
 1263              	.L48:
 1264 0232 00BF     		.align	2
 1265              	.L47:
 1266 0234 00000000 		.word	.LANCHOR1
 1267 0238 00000000 		.word	.LC0
 1268 023c 00000000 		.word	wa
 1269              	.LVL197:
 1270              	.L39:
 1271              	.LBE197:
 1272              	.LBB198:
 1273 0240 0346     		mov	r3, r0
 1274              	.LVL198:
 1275              	@ 144 "../../ChibiOS_2.4.3/test/testqueues.c" 1
 1276 0242 83F31188 		msr     BASEPRI, r3
 1277              	@ 0 "" 2
 1278              	.LVL199:
 1279              		.thumb
 1280              	.LBE198:
 1281              	.LBB199:
 1282              		.loc 1 147 0
 1283 0246 2023     		movs	r3, #32
 1284              	.LVL200:
 1285              	@ 147 "../../ChibiOS_2.4.3/test/testqueues.c" 1
 1286 0248 83F31188 		msr     BASEPRI, r3
 1287              	@ 0 "" 2
 1288              	.LVL201:
 1289              		.thumb
 1290              	.LBE199:
 1291              		.loc 1 148 0
 1292 024c 0146     		mov	r1, r0
 1293 024e 3046     		mov	r0, r6
 1294 0250 FFF7FEFF 		bl	chIQPutI
 1295              	.LVL202:
 1296              		.loc 1 149 0
 1297 0254 3046     		mov	r0, r6
 1298 0256 FFF7FEFF 		bl	chIQResetI
 1299              	.LVL203:
 1300              	.LBB200:
 1301              		.loc 1 150 0
 1302 025a 2B46     		mov	r3, r5
 1303              	.LVL204:
 1304              	@ 150 "../../ChibiOS_2.4.3/test/testqueues.c" 1
ARM GAS  /tmp/cc4LuFZd.s 			page 24


 1305 025c 83F31188 		msr     BASEPRI, r3
 1306              	@ 0 "" 2
 1307              	.LVL205:
 1308              		.thumb
 1309              	.LBE200:
 1310              	.LBB201:
 1311              		.loc 1 151 0
 1312 0260 2023     		movs	r3, #32
 1313              	.LVL206:
 1314              	@ 151 "../../ChibiOS_2.4.3/test/testqueues.c" 1
 1315 0262 83F31188 		msr     BASEPRI, r3
 1316              	@ 0 "" 2
 1317              	.LVL207:
 1318              		.thumb
 1319              	.LBE201:
 1320 0266 B168     		ldr	r1, [r6, #8]
 1321 0268 0B20     		movs	r0, #11
 1322 026a D1F10101 		rsbs	r1, r1, #1
 1323 026e 38BF     		it	cc
 1324 0270 0021     		movcc	r1, #0
 1325 0272 FFF7FEFF 		bl	_test_assert
 1326              	.LVL208:
 1327              	.LBB202:
 1328 0276 0023     		movs	r3, #0
 1329              	@ 151 "../../ChibiOS_2.4.3/test/testqueues.c" 1
 1330 0278 83F31188 		msr     BASEPRI, r3
 1331              	@ 0 "" 2
 1332              	.LVL209:
 1333              		.thumb
 1334              	.LBE202:
 1335 027c 0028     		cmp	r0, #0
 1336 027e 7FF4F9AE 		bne	.L29
 1337              		.loc 1 152 0
 1338 0282 184A     		ldr	r2, .L49
 1339 0284 3868     		ldr	r0, [r7, #0]
 1340 0286 D569     		ldr	r5, [r2, #28]
 1341 0288 AA68     		ldr	r2, [r5, #8]
 1342 028a 0093     		str	r3, [sp, #0]
 1343              	.LVL210:
 1344 028c 1D46     		mov	r5, r3
 1345              	.LVL211:
 1346 028e 4FF49871 		mov	r1, #304
 1347 0292 0132     		adds	r2, r2, #1
 1348 0294 144B     		ldr	r3, .L49+4
 1349              	.LVL212:
 1350 0296 FFF7FEFF 		bl	chThdCreateStatic
 1351              	.LVL213:
 1352 029a 1449     		ldr	r1, .L49+8
 1353              	.LBB203:
 1354              		.loc 1 153 0
 1355 029c 2023     		movs	r3, #32
 1356              	.LVL214:
 1357              	.LBE203:
 1358              		.loc 1 152 0
 1359 029e 0860     		str	r0, [r1, #0]
 1360              	.LBB204:
 1361              		.loc 1 153 0
ARM GAS  /tmp/cc4LuFZd.s 			page 25


 1362              	@ 153 "../../ChibiOS_2.4.3/test/testqueues.c" 1
 1363 02a0 83F31188 		msr     BASEPRI, r3
 1364              	@ 0 "" 2
 1365              	.LVL215:
 1366              		.thumb
 1367              	.LBE204:
 1368 02a4 A368     		ldr	r3, [r4, #8]
 1369              	.LVL216:
 1370 02a6 0C20     		movs	r0, #12
 1371 02a8 B3EB050E 		subs	lr, r3, r5
 1372 02ac DEF10002 		rsbs	r2, lr, #0
 1373 02b0 52EB0E01 		adcs	r1, r2, lr
 1374 02b4 FFF7FEFF 		bl	_test_assert
 1375              	.LVL217:
 1376 02b8 0346     		mov	r3, r0
 1377 02ba 0028     		cmp	r0, #0
 1378 02bc 7FF424AF 		bne	.L45
 1379              	.LBB205:
 1380              	@ 153 "../../ChibiOS_2.4.3/test/testqueues.c" 1
 1381 02c0 83F31188 		msr     BASEPRI, r3
 1382              	@ 0 "" 2
 1383              	.LVL218:
 1384              		.thumb
 1385              	.LBE205:
 1386              		.loc 1 154 0
 1387 02c4 FFF7FEFF 		bl	test_wait_threads
 1388              	.LVL219:
 1389              		.loc 1 157 0
 1390 02c8 0A21     		movs	r1, #10
 1391 02ca 0948     		ldr	r0, .L49+12
 1392 02cc FFF7FEFF 		bl	chIQGetTimeout
 1393              	.LVL220:
 1394 02d0 B0F1FF30 		subs	r0, r0, #-1
 1395 02d4 4142     		rsbs	r1, r0, #0
 1396 02d6 4141     		adcs	r1, r1, r0
 1397 02d8 0D20     		movs	r0, #13
 1398              	.LBE206:
 1399              	.LBE208:
 1400              		.loc 1 158 0
 1401 02da 03B0     		add	sp, sp, #12
 1402 02dc BDE8F043 		pop	{r4, r5, r6, r7, r8, r9, lr}
 1403              	.LBB209:
 1404              	.LBB207:
 1405              		.loc 1 157 0
 1406 02e0 FFF7FEBF 		b	_test_assert
 1407              	.LVL221:
 1408              	.L50:
 1409              		.align	2
 1410              	.L49:
 1411 02e4 00000000 		.word	rlist
 1412 02e8 00000000 		.word	thread1
 1413 02ec 00000000 		.word	threads
 1414 02f0 00000000 		.word	.LANCHOR1
 1415              	.LBE207:
 1416              	.LBE209:
 1417              		.cfi_endproc
 1418              	.LFE10:
ARM GAS  /tmp/cc4LuFZd.s 			page 26


 1419              		.size	queues1_execute, .-queues1_execute
 1420              		.global	patternqueues
 1421              		.global	testqueues2
 1422              		.global	testqueues1
 1423 02f4 AFF30080 		.section	.rodata.testqueues1,"a",%progbits
 1423      AFF30080 
 1423      AFF30080 
 1424              		.align	2
 1425              		.type	testqueues1, %object
 1426              		.size	testqueues1, 16
 1427              	testqueues1:
 1428 0000 20000000 		.word	.LC2
 1429 0004 00000000 		.word	queues1_setup
 1430 0008 00000000 		.word	0
 1431 000c 00000000 		.word	queues1_execute
 1432              		.section	.rodata.testqueues2,"a",%progbits
 1433              		.align	2
 1434              		.type	testqueues2, %object
 1435              		.size	testqueues2, 16
 1436              	testqueues2:
 1437 0000 08000000 		.word	.LC1
 1438 0004 00000000 		.word	queues2_setup
 1439 0008 00000000 		.word	0
 1440 000c 00000000 		.word	queues2_execute
 1441              		.section	.rodata.str1.4,"aMS",%progbits,1
 1442              		.align	2
 1443              	.LC0:
 1444 0000 41424344 		.ascii	"ABCD\000"
 1444      00
 1445 0005 000000   		.space	3
 1446              	.LC1:
 1447 0008 51756575 		.ascii	"Queues, output queues\000"
 1447      65732C20 
 1447      6F757470 
 1447      75742071 
 1447      75657565 
 1448 001e 0000     		.space	2
 1449              	.LC2:
 1450 0020 51756575 		.ascii	"Queues, input queues\000"
 1450      65732C20 
 1450      696E7075 
 1450      74207175 
 1450      65756573 
 1451 0035 000000   		.section	.rodata.patternqueues,"a",%progbits
 1452              		.align	2
 1453              		.type	patternqueues, %object
 1454              		.size	patternqueues, 12
 1455              	patternqueues:
 1456 0000 00000000 		.word	testqueues1
 1457 0004 00000000 		.word	testqueues2
 1458 0008 00000000 		.word	0
 1459              		.section	.data.oq,"aw",%progbits
 1460              		.align	2
 1461              		.set	.LANCHOR0,. + 0
 1462              		.type	oq, %object
 1463              		.size	oq, 32
 1464              	oq:
ARM GAS  /tmp/cc4LuFZd.s 			page 27


 1465 0000 00000000 		.word	oq
 1466 0004 00000000 		.word	oq
 1467 0008 04000000 		.word	4
 1468 000c 30010000 		.word	test+304
 1469 0010 34010000 		.word	test+308
 1470 0014 30010000 		.word	test+304
 1471 0018 30010000 		.word	test+304
 1472 001c 00000000 		.word	notify
 1473              		.section	.data.iq,"aw",%progbits
 1474              		.align	2
 1475              		.set	.LANCHOR1,. + 0
 1476              		.type	iq, %object
 1477              		.size	iq, 32
 1478              	iq:
 1479 0000 00000000 		.word	iq
 1480 0004 00000000 		.word	iq
 1481 0008 00000000 		.word	0
 1482 000c 00000000 		.word	test
 1483 0010 04000000 		.word	test+4
 1484 0014 00000000 		.word	test
 1485 0018 00000000 		.word	test
 1486 001c 00000000 		.word	notify
 1487              		.text
 1488              	.Letext0:
 1489              		.file 2 "/opt/ARM/bin/../lib/gcc/arm-none-eabi/4.7.3/include/stddef.h"
 1490              		.file 3 "/opt/ARM/bin/../lib/gcc/arm-none-eabi/4.7.3/../../../../arm-none-eabi/include/stdint.h"
 1491              		.file 4 "../../ChibiOS_2.4.3/os/ports/GCC/ARMCMx/chtypes.h"
 1492              		.file 5 "../../ChibiOS_2.4.3/os/kernel/include/chlists.h"
 1493              		.file 6 "../../ChibiOS_2.4.3/os/kernel/include/chthreads.h"
 1494              		.file 7 "../../ChibiOS_2.4.3/os/ports/GCC/ARMCMx/chcore_v7m.h"
 1495              		.file 8 "../../ChibiOS_2.4.3/os/kernel/include/chschd.h"
 1496              		.file 9 "../../ChibiOS_2.4.3/os/kernel/include/chmtx.h"
 1497              		.file 10 "../../ChibiOS_2.4.3/os/kernel/include/chqueues.h"
 1498              		.file 11 "../../ChibiOS_2.4.3/test/test.h"