ARM GAS  /tmp/cc5D7Gxe.s 			page 1


   1              		.syntax unified
   2              		.cpu cortex-m4
   3              		.fpu softvfp
   4              		.eabi_attribute 20, 1
   5              		.eabi_attribute 21, 1
   6              		.eabi_attribute 23, 3
   7              		.eabi_attribute 24, 1
   8              		.eabi_attribute 25, 1
   9              		.eabi_attribute 26, 1
  10              		.eabi_attribute 30, 2
  11              		.eabi_attribute 34, 1
  12              		.eabi_attribute 18, 4
  13              		.thumb
  14              		.file	"main.c"
  15              		.text
  16              	.Ltext0:
  17              		.cfi_sections	.debug_frame
  18              		.section	.text.cmd_about,"ax",%progbits
  19              		.align	2
  20              		.p2align 4,,15
  21              		.thumb
  22              		.thumb_func
  23              		.type	cmd_about, %function
  24              	cmd_about:
  25              	.LFB120:
  26              		.file 1 "main.c"
  27              		.loc 1 59 0
  28              		.cfi_startproc
  29              		@ args = 0, pretend = 0, frame = 0
  30              		@ frame_needed = 0, uses_anonymous_args = 0
  31              	.LVL0:
  32              		.loc 1 61 0
  33 0000 0029     		cmp	r1, #0
  34              		.loc 1 59 0
  35 0002 10B5     		push	{r4, lr}
  36              	.LCFI0:
  37              		.cfi_def_cfa_offset 8
  38              		.cfi_offset 4, -8
  39              		.cfi_offset 14, -4
  40              		.loc 1 59 0
  41 0004 0446     		mov	r4, r0
  42              		.loc 1 61 0
  43 0006 04DD     		ble	.L2
  44              		.loc 1 62 0
  45 0008 0649     		ldr	r1, .L4
  46              	.LVL1:
  47              		.loc 1 67 0
  48 000a BDE81040 		pop	{r4, lr}
  49              		.loc 1 62 0
  50 000e FFF7FEBF 		b	chprintf
  51              	.LVL2:
  52              	.L2:
  53              	.LBB4:
  54              	.LBB5:
  55              		.loc 1 65 0
  56 0012 0549     		ldr	r1, .L4+4
  57              	.LVL3:
ARM GAS  /tmp/cc5D7Gxe.s 			page 2


  58 0014 FFF7FEFF 		bl	chprintf
  59              	.LVL4:
  60              		.loc 1 66 0
  61 0018 0449     		ldr	r1, .L4+8
  62 001a 2046     		mov	r0, r4
  63              	.LBE5:
  64              	.LBE4:
  65              		.loc 1 67 0
  66 001c BDE81040 		pop	{r4, lr}
  67              	.LBB7:
  68              	.LBB6:
  69              		.loc 1 66 0
  70 0020 FFF7FEBF 		b	chprintf
  71              	.LVL5:
  72              	.L5:
  73              		.align	2
  74              	.L4:
  75 0024 00000000 		.word	.LC0
  76 0028 10000000 		.word	.LC1
  77 002c 20000000 		.word	.LC2
  78              	.LBE6:
  79              	.LBE7:
  80              		.cfi_endproc
  81              	.LFE120:
  82              		.size	cmd_about, .-cmd_about
  83              		.section	.text.cmd_threads,"ax",%progbits
  84              		.align	2
  85              		.p2align 4,,15
  86              		.thumb
  87              		.thumb_func
  88              		.type	cmd_threads, %function
  89              	cmd_threads:
  90              	.LFB119:
  91              		.loc 1 39 0
  92              		.cfi_startproc
  93              		@ args = 0, pretend = 0, frame = 0
  94              		@ frame_needed = 0, uses_anonymous_args = 0
  95              	.LVL6:
  96 0000 F0B5     		push	{r4, r5, r6, r7, lr}
  97              	.LCFI1:
  98              		.cfi_def_cfa_offset 20
  99              		.cfi_offset 4, -20
 100              		.cfi_offset 5, -16
 101              		.cfi_offset 6, -12
 102              		.cfi_offset 7, -8
 103              		.cfi_offset 14, -4
 104              		.loc 1 44 0
 105 0002 0029     		cmp	r1, #0
 106              		.loc 1 39 0
 107 0004 85B0     		sub	sp, sp, #20
 108              	.LCFI2:
 109              		.cfi_def_cfa_offset 40
 110              		.loc 1 39 0
 111 0006 0646     		mov	r6, r0
 112              		.loc 1 44 0
 113 0008 05DD     		ble	.L7
 114              		.loc 1 45 0
ARM GAS  /tmp/cc5D7Gxe.s 			page 3


 115 000a 1349     		ldr	r1, .L10
 116              	.LVL7:
 117              		.loc 1 57 0
 118 000c 05B0     		add	sp, sp, #20
 119 000e BDE8F040 		pop	{r4, r5, r6, r7, lr}
 120              		.loc 1 45 0
 121 0012 FFF7FEBF 		b	chprintf
 122              	.LVL8:
 123              	.L7:
 124              	.LBB10:
 125              	.LBB11:
 126              		.loc 1 48 0
 127 0016 1149     		ldr	r1, .L10+4
 128              	.LVL9:
 129 0018 114F     		ldr	r7, .L10+8
 130 001a FFF7FEFF 		bl	chprintf
 131              	.LVL10:
 132              		.loc 1 49 0
 133 001e FFF7FEFF 		bl	chRegFirstThread
 134              	.LVL11:
 135 0022 0446     		mov	r4, r0
 136              	.LVL12:
 137              	.L8:
 138              		.loc 1 51 0
 139 0024 A268     		ldr	r2, [r4, #8]
 140 0026 E368     		ldr	r3, [r4, #12]
 141 0028 256A     		ldr	r5, [r4, #32]
 142 002a 0092     		str	r2, [sp, #0]
 143              		.loc 1 53 0
 144 002c A07F     		ldrb	r0, [r4, #30]	@ zero_extendqisi2
 145              	.LVL13:
 146              		.loc 1 51 0
 147 002e 0D49     		ldr	r1, .L10+12
 148              		.loc 1 53 0
 149 0030 421E     		subs	r2, r0, #1
 150              		.loc 1 51 0
 151 0032 0192     		str	r2, [sp, #4]
 152 0034 207F     		ldrb	r0, [r4, #28]	@ zero_extendqisi2
 153 0036 0395     		str	r5, [sp, #12]
 154 0038 57F82050 		ldr	r5, [r7, r0, lsl #2]
 155 003c 2246     		mov	r2, r4
 156 003e 3046     		mov	r0, r6
 157 0040 0295     		str	r5, [sp, #8]
 158 0042 FFF7FEFF 		bl	chprintf
 159              	.LVL14:
 160              		.loc 1 55 0
 161 0046 2046     		mov	r0, r4
 162 0048 FFF7FEFF 		bl	chRegNextThread
 163              	.LVL15:
 164              		.loc 1 56 0
 165 004c 0446     		mov	r4, r0
 166 004e 0028     		cmp	r0, #0
 167 0050 E8D1     		bne	.L8
 168              	.LBE11:
 169              	.LBE10:
 170              		.loc 1 57 0
 171 0052 05B0     		add	sp, sp, #20
ARM GAS  /tmp/cc5D7Gxe.s 			page 4


 172 0054 F0BD     		pop	{r4, r5, r6, r7, pc}
 173              	.L11:
 174 0056 00BF     		.align	2
 175              	.L10:
 176 0058 34000000 		.word	.LC3
 177 005c 48000000 		.word	.LC4
 178 0060 00000000 		.word	.LANCHOR0
 179 0064 78000000 		.word	.LC5
 180              		.cfi_endproc
 181              	.LFE119:
 182              		.size	cmd_threads, .-cmd_threads
 183 0068 AFF30080 		.section	.text.cmd_mem,"ax",%progbits
 183      AFF30080 
 184              		.align	2
 185              		.p2align 4,,15
 186              		.thumb
 187              		.thumb_func
 188              		.type	cmd_mem, %function
 189              	cmd_mem:
 190              	.LFB118:
 191              		.loc 1 24 0
 192              		.cfi_startproc
 193              		@ args = 0, pretend = 0, frame = 8
 194              		@ frame_needed = 0, uses_anonymous_args = 0
 195              	.LVL16:
 196 0000 30B5     		push	{r4, r5, lr}
 197              	.LCFI3:
 198              		.cfi_def_cfa_offset 12
 199              		.cfi_offset 4, -12
 200              		.cfi_offset 5, -8
 201              		.cfi_offset 14, -4
 202              		.loc 1 28 0
 203 0002 0029     		cmp	r1, #0
 204              		.loc 1 24 0
 205 0004 83B0     		sub	sp, sp, #12
 206              	.LCFI4:
 207              		.cfi_def_cfa_offset 24
 208              		.loc 1 24 0
 209 0006 0446     		mov	r4, r0
 210              		.loc 1 28 0
 211 0008 04DD     		ble	.L13
 212              		.loc 1 29 0
 213 000a 0E49     		ldr	r1, .L15
 214              	.LVL17:
 215 000c FFF7FEFF 		bl	chprintf
 216              	.LVL18:
 217              	.L12:
 218              		.loc 1 36 0
 219 0010 03B0     		add	sp, sp, #12
 220 0012 30BD     		pop	{r4, r5, pc}
 221              	.LVL19:
 222              	.L13:
 223              	.LBB14:
 224              	.LBB15:
 225              		.loc 1 32 0
 226 0014 01A9     		add	r1, sp, #4
 227              	.LVL20:
ARM GAS  /tmp/cc5D7Gxe.s 			page 5


 228 0016 0020     		movs	r0, #0
 229              	.LVL21:
 230 0018 FFF7FEFF 		bl	chHeapStatus
 231              	.LVL22:
 232 001c 0546     		mov	r5, r0
 233              	.LVL23:
 234              		.loc 1 33 0
 235 001e FFF7FEFF 		bl	chCoreStatus
 236              	.LVL24:
 237 0022 0949     		ldr	r1, .L15+4
 238 0024 0246     		mov	r2, r0
 239 0026 2046     		mov	r0, r4
 240 0028 FFF7FEFF 		bl	chprintf
 241              	.LVL25:
 242              		.loc 1 34 0
 243 002c 2046     		mov	r0, r4
 244 002e 2A46     		mov	r2, r5
 245 0030 0649     		ldr	r1, .L15+8
 246 0032 FFF7FEFF 		bl	chprintf
 247              	.LVL26:
 248              		.loc 1 35 0
 249 0036 2046     		mov	r0, r4
 250 0038 0549     		ldr	r1, .L15+12
 251              	.LVL27:
 252 003a 019A     		ldr	r2, [sp, #4]
 253 003c FFF7FEFF 		bl	chprintf
 254              	.LVL28:
 255 0040 E6E7     		b	.L12
 256              	.L16:
 257 0042 00BF     		.align	2
 258              	.L15:
 259 0044 98000000 		.word	.LC6
 260 0048 A8000000 		.word	.LC7
 261 004c C8000000 		.word	.LC8
 262 0050 E0000000 		.word	.LC9
 263              	.LBE15:
 264              	.LBE14:
 265              		.cfi_endproc
 266              	.LFE118:
 267              		.size	cmd_mem, .-cmd_mem
 268 0054 AFF30080 		.section	.text.USBInit,"ax",%progbits
 268      AFF30080 
 268      AFF30080 
 269              		.align	2
 270              		.p2align 4,,15
 271              		.global	USBInit
 272              		.thumb
 273              		.thumb_func
 274              		.type	USBInit, %function
 275              	USBInit:
 276              	.LFB122:
 277              		.loc 1 124 0
 278              		.cfi_startproc
 279              		@ args = 0, pretend = 0, frame = 0
 280              		@ frame_needed = 0, uses_anonymous_args = 0
 281 0000 38B5     		push	{r3, r4, r5, lr}
 282              	.LCFI5:
ARM GAS  /tmp/cc5D7Gxe.s 			page 6


 283              		.cfi_def_cfa_offset 16
 284              		.cfi_offset 3, -16
 285              		.cfi_offset 4, -12
 286              		.cfi_offset 5, -8
 287              		.cfi_offset 14, -4
 288              		.loc 1 133 0
 289 0002 40F20005 		movw	r5, #:lower16:.LANCHOR1
 290 0006 C0F20005 		movt	r5, #:upper16:.LANCHOR1
 291              		.loc 1 134 0
 292 000a 40F20004 		movw	r4, #:lower16:serusbcfg
 293              		.loc 1 128 0
 294 000e FFF7FEFF 		bl	shellInit
 295              	.LVL29:
 296              		.loc 1 134 0
 297 0012 C0F20004 		movt	r4, #:upper16:serusbcfg
 298              		.loc 1 133 0
 299 0016 2846     		mov	r0, r5
 300 0018 FFF7FEFF 		bl	sduObjectInit
 301              	.LVL30:
 302              		.loc 1 134 0
 303 001c 2146     		mov	r1, r4
 304 001e 2846     		mov	r0, r5
 305 0020 FFF7FEFF 		bl	sduStart
 306              	.LVL31:
 307              		.loc 1 142 0
 308 0024 2368     		ldr	r3, [r4, #0]
 309 0026 196D     		ldr	r1, [r3, #80]
 310 0028 8A6B     		ldr	r2, [r1, #56]
 311 002a 22F40023 		bic	r3, r2, #524288
 312 002e 8B63     		str	r3, [r1, #56]
 313              		.loc 1 143 0
 314 0030 4FF47A70 		mov	r0, #1000
 315 0034 FFF7FEFF 		bl	chThdSleep
 316              	.LVL32:
 317              		.loc 1 144 0
 318 0038 40F20001 		movw	r1, #:lower16:usbcfg
 319 003c 2068     		ldr	r0, [r4, #0]
 320 003e C0F20001 		movt	r1, #:upper16:usbcfg
 321 0042 FFF7FEFF 		bl	usbStart
 322              	.LVL33:
 323              		.loc 1 145 0
 324 0046 2068     		ldr	r0, [r4, #0]
 325 0048 016D     		ldr	r1, [r0, #80]
 326 004a 8A6B     		ldr	r2, [r1, #56]
 327 004c 42F40023 		orr	r3, r2, #524288
 328 0050 8B63     		str	r3, [r1, #56]
 329 0052 38BD     		pop	{r3, r4, r5, pc}
 330              		.cfi_endproc
 331              	.LFE122:
 332              		.size	USBInit, .-USBInit
 333 0054 AFF30080 		.section	.text.startup.main,"ax",%progbits
 333      AFF30080 
 333      AFF30080 
 334              		.align	2
 335              		.p2align 4,,15
 336              		.global	main
 337              		.thumb
ARM GAS  /tmp/cc5D7Gxe.s 			page 7


 338              		.thumb_func
 339              		.type	main, %function
 340              	main:
 341              	.LFB121:
 342              		.loc 1 90 0
 343              		.cfi_startproc
 344              		@ args = 0, pretend = 0, frame = 0
 345              		@ frame_needed = 0, uses_anonymous_args = 0
 346              	.LVL34:
 347 0000 38B5     		push	{r3, r4, r5, lr}
 348              	.LCFI6:
 349              		.cfi_def_cfa_offset 16
 350              		.cfi_offset 3, -16
 351              		.cfi_offset 4, -12
 352              		.cfi_offset 5, -8
 353              		.cfi_offset 14, -4
 354              		.loc 1 92 0
 355 0002 0024     		movs	r4, #0
 356              		.loc 1 101 0
 357 0004 FFF7FEFF 		bl	halInit
 358              	.LVL35:
 359 0008 104D     		ldr	r5, .L24
 360              		.loc 1 102 0
 361 000a FFF7FEFF 		bl	chSysInit
 362              	.LVL36:
 363              		.loc 1 104 0
 364 000e FFF7FEFF 		bl	USBInit
 365              	.LVL37:
 366              		.loc 1 108 0
 367 0012 44B1     		cbz	r4, .L22
 368              	.L19:
 369              		.loc 1 114 0
 370 0014 227F     		ldrb	r2, [r4, #28]	@ zero_extendqisi2
 371 0016 0E2A     		cmp	r2, #14
 372 0018 13D0     		beq	.L23
 373              	.LVL38:
 374              	.L20:
 375              		.loc 1 120 0
 376 001a 4FF4FA70 		mov	r0, #500
 377 001e FFF7FEFF 		bl	chThdSleep
 378              	.LVL39:
 379              		.loc 1 108 0
 380 0022 002C     		cmp	r4, #0
 381 0024 F6D1     		bne	.L19
 382              	.L22:
 383              		.loc 1 108 0 is_stmt 0 discriminator 1
 384 0026 D5F85432 		ldr	r3, [r5, #596]
 385 002a 1868     		ldr	r0, [r3, #0]
 386 002c 0178     		ldrb	r1, [r0, #0]	@ zero_extendqisi2
 387 002e 0429     		cmp	r1, #4
 388 0030 F0D1     		bne	.L19
 389              		.loc 1 110 0 is_stmt 1
 390 0032 0748     		ldr	r0, .L24+4
 391 0034 4FF40B61 		mov	r1, #2224
 392 0038 4022     		movs	r2, #64
 393 003a FFF7FEFF 		bl	shellCreate
 394              	.LVL40:
ARM GAS  /tmp/cc5D7Gxe.s 			page 8


 395 003e 0446     		mov	r4, r0
 396              	.LVL41:
 397 0040 EBE7     		b	.L20
 398              	.LVL42:
 399              	.L23:
 400              		.loc 1 116 0
 401 0042 2046     		mov	r0, r4
 402 0044 FFF7FEFF 		bl	chThdRelease
 403              	.LVL43:
 404              		.loc 1 117 0
 405 0048 0024     		movs	r4, #0
 406 004a E6E7     		b	.L20
 407              	.L25:
 408              		.align	2
 409              	.L24:
 410 004c 00000000 		.word	.LANCHOR1
 411 0050 00000000 		.word	.LANCHOR2
 412              		.cfi_endproc
 413              	.LFE121:
 414              		.size	main, .-main
 415              		.global	SDU1
 416 0054 AFF30080 		.section	.rodata.commands,"a",%progbits
 416      AFF30080 
 416      AFF30080 
 417              		.align	2
 418              		.type	commands, %object
 419              		.size	commands, 32
 420              	commands:
 421 0000 84010000 		.word	.LC25
 422 0004 00000000 		.word	cmd_mem
 423 0008 88010000 		.word	.LC26
 424 000c 00000000 		.word	cmd_threads
 425 0010 90010000 		.word	.LC27
 426 0014 00000000 		.word	cmd_about
 427 0018 00000000 		.word	0
 428 001c 00000000 		.word	0
 429              		.section	.bss.SDU1,"aw",%nobits
 430              		.align	2
 431              		.set	.LANCHOR1,. + 0
 432              		.type	SDU1, %object
 433              		.size	SDU1, 600
 434              	SDU1:
 435 0000 00000000 		.space	600
 435      00000000 
 435      00000000 
 435      00000000 
 435      00000000 
 436              		.section	.rodata.states.7014,"a",%progbits
 437              		.align	2
 438              		.set	.LANCHOR0,. + 0
 439              		.type	states.7014, %object
 440              		.size	states.7014, 60
 441              	states.7014:
 442 0000 00010000 		.word	.LC10
 443 0004 08010000 		.word	.LC11
 444 0008 10010000 		.word	.LC12
 445 000c 1C010000 		.word	.LC13
ARM GAS  /tmp/cc5D7Gxe.s 			page 9


 446 0010 24010000 		.word	.LC14
 447 0014 2C010000 		.word	.LC15
 448 0018 34010000 		.word	.LC16
 449 001c 40010000 		.word	.LC17
 450 0020 48010000 		.word	.LC18
 451 0024 50010000 		.word	.LC19
 452 0028 5C010000 		.word	.LC20
 453 002c 64010000 		.word	.LC21
 454 0030 6C010000 		.word	.LC22
 455 0034 74010000 		.word	.LC23
 456 0038 7C010000 		.word	.LC24
 457              		.section	.rodata.str1.4,"aMS",%progbits,1
 458              		.align	2
 459              	.LC0:
 460 0000 55736167 		.ascii	"Usage: about\015\012\000"
 460      653A2061 
 460      626F7574 
 460      0D0A00
 461 000f 00       		.space	1
 462              	.LC1:
 463 0010 43444320 		.ascii	"CDC VCP Demo\015\012\000"
 463      56435020 
 463      44656D6F 
 463      0D0A00
 464 001f 00       		.space	1
 465              	.LC2:
 466 0020 42792052 		.ascii	"By Rumman Waqar\015\012\000"
 466      756D6D61 
 466      6E205761 
 466      7161720D 
 466      0A00
 467 0032 0000     		.space	2
 468              	.LC3:
 469 0034 55736167 		.ascii	"Usage: threads\015\012\000"
 469      653A2074 
 469      68726561 
 469      64730D0A 
 469      00
 470 0045 000000   		.space	3
 471              	.LC4:
 472 0048 20202020 		.ascii	"    addr    stack prio refs     state time\015\012\000"
 472      61646472 
 472      20202020 
 472      73746163 
 472      6B207072 
 473 0075 000000   		.space	3
 474              	.LC5:
 475 0078 252E386C 		.ascii	"%.8lx %.8lx %4lu %4lu %9s %lu\015\012\000"
 475      7820252E 
 475      386C7820 
 475      25346C75 
 475      2025346C 
 476              	.LC6:
 477 0098 55736167 		.ascii	"Usage: mem\015\012\000"
 477      653A206D 
 477      656D0D0A 
 477      00
ARM GAS  /tmp/cc5D7Gxe.s 			page 10


 478 00a5 000000   		.space	3
 479              	.LC7:
 480 00a8 636F7265 		.ascii	"core free memory : %u bytes\015\012\000"
 480      20667265 
 480      65206D65 
 480      6D6F7279 
 480      203A2025 
 481 00c6 0000     		.space	2
 482              	.LC8:
 483 00c8 68656170 		.ascii	"heap fragments   : %u\015\012\000"
 483      20667261 
 483      676D656E 
 483      74732020 
 483      203A2025 
 484              	.LC9:
 485 00e0 68656170 		.ascii	"heap free total  : %u bytes\015\012\000"
 485      20667265 
 485      6520746F 
 485      74616C20 
 485      203A2025 
 486 00fe 0000     		.space	2
 487              	.LC10:
 488 0100 52454144 		.ascii	"READY\000"
 488      5900
 489 0106 0000     		.space	2
 490              	.LC11:
 491 0108 43555252 		.ascii	"CURRENT\000"
 491      454E5400 
 492              	.LC12:
 493 0110 53555350 		.ascii	"SUSPENDED\000"
 493      454E4445 
 493      4400
 494 011a 0000     		.space	2
 495              	.LC13:
 496 011c 57545345 		.ascii	"WTSEM\000"
 496      4D00
 497 0122 0000     		.space	2
 498              	.LC14:
 499 0124 57544D54 		.ascii	"WTMTX\000"
 499      5800
 500 012a 0000     		.space	2
 501              	.LC15:
 502 012c 5754434F 		.ascii	"WTCOND\000"
 502      4E4400
 503 0133 00       		.space	1
 504              	.LC16:
 505 0134 534C4545 		.ascii	"SLEEPING\000"
 505      50494E47 
 505      00
 506 013d 000000   		.space	3
 507              	.LC17:
 508 0140 57544558 		.ascii	"WTEXIT\000"
 508      495400
 509 0147 00       		.space	1
 510              	.LC18:
 511 0148 57544F52 		.ascii	"WTOREVT\000"
 511      45565400 
ARM GAS  /tmp/cc5D7Gxe.s 			page 11


 512              	.LC19:
 513 0150 5754414E 		.ascii	"WTANDEVT\000"
 513      44455654 
 513      00
 514 0159 000000   		.space	3
 515              	.LC20:
 516 015c 534E444D 		.ascii	"SNDMSGQ\000"
 516      53475100 
 517              	.LC21:
 518 0164 534E444D 		.ascii	"SNDMSG\000"
 518      534700
 519 016b 00       		.space	1
 520              	.LC22:
 521 016c 57544D53 		.ascii	"WTMSG\000"
 521      4700
 522 0172 0000     		.space	2
 523              	.LC23:
 524 0174 57545155 		.ascii	"WTQUEUE\000"
 524      45554500 
 525              	.LC24:
 526 017c 46494E41 		.ascii	"FINAL\000"
 526      4C00
 527 0182 0000     		.space	2
 528              	.LC25:
 529 0184 6D656D00 		.ascii	"mem\000"
 530              	.LC26:
 531 0188 74687265 		.ascii	"threads\000"
 531      61647300 
 532              	.LC27:
 533 0190 61626F75 		.ascii	"about\000"
 533      7400
 534 0196 0000     		.section	.rodata.shell_cfg1,"a",%progbits
 535              		.align	2
 536              		.set	.LANCHOR2,. + 0
 537              		.type	shell_cfg1, %object
 538              		.size	shell_cfg1, 8
 539              	shell_cfg1:
 540 0000 00000000 		.word	SDU1
 541 0004 00000000 		.word	commands
 542              		.text
 543              	.Letext0:
 544              		.file 2 "/opt/ARM/bin/../lib/gcc/arm-none-eabi/4.7.3/include/stddef.h"
 545              		.file 3 "/opt/ARM/bin/../lib/gcc/arm-none-eabi/4.7.3/../../../../arm-none-eabi/include/stdint.h"
 546              		.file 4 "../../ChibiOS/os/ports/GCC/ARMCMx/chtypes.h"
 547              		.file 5 "../../ChibiOS/os/kernel/include/chlists.h"
 548              		.file 6 "../../ChibiOS/os/kernel/include/chthreads.h"
 549              		.file 7 "../../ChibiOS/os/ports/GCC/ARMCMx/chcore_v7m.h"
 550              		.file 8 "../../ChibiOS/os/kernel/include/chmtx.h"
 551              		.file 9 "../../ChibiOS/os/kernel/include/chevents.h"
 552              		.file 10 "../../ChibiOS/os/kernel/include/chmemcore.h"
 553              		.file 11 "../../ChibiOS/os/kernel/include/chheap.h"
 554              		.file 12 "../../ChibiOS/os/kernel/include/chqueues.h"
 555              		.file 13 "../../ChibiOS/os/kernel/include/chstreams.h"
 556              		.file 14 "../../ChibiOS/os/hal/include/usb.h"
 557              		.file 15 "../../ChibiOS/os/hal/platforms/STM32/OTGv1/usb_lld.h"
 558              		.file 16 "../../ChibiOS/os/hal/platforms/STM32/OTGv1/stm32_otg.h"
 559              		.file 17 "../../ChibiOS/os/hal/include/serial_usb.h"
ARM GAS  /tmp/cc5D7Gxe.s 			page 12


 560              		.file 18 "../../ChibiOS/os/various/shell.h"
 561              		.file 19 "../../ChibiOS/os/ports/common/ARMCMx/CMSIS/include/core_cm4.h"
 562              		.file 20 "usbcfg.h"
 563              		.file 21 "../../ChibiOS/os/kernel/include/chregistry.h"
 564              		.file 22 "../../ChibiOS/os/various/chprintf.h"
 565              		.file 23 "../../ChibiOS/os/hal/include/hal.h"
 566              		.file 24 "../../ChibiOS/os/kernel/include/chsys.h"
 567              		.file 25 "../../ChibiOS/os/kernel/include/chdynamic.h"